
Feather_ULP.elf:     file format elf32-littlearm

Sections:
Idx Name          Size      VMA       LMA       File off  Algn
  0 .text         00007624  00000000  00000000  00010000  2**2
                  CONTENTS, ALLOC, LOAD, READONLY, CODE
  1 .ARM.exidx    00000008  00007624  00007624  00017624  2**2
                  CONTENTS, ALLOC, LOAD, READONLY, DATA
  2 .relocate     00000010  20000000  0000762c  00020000  2**1
                  CONTENTS, ALLOC, LOAD, CODE
  3 .lpram        00000000  30000000  30000000  00020010  2**0
                  CONTENTS
  4 .bss          00000194  20000010  0000763c  00020010  2**2
                  ALLOC
  5 .stack        00002004  200001a4  000077d0  00020010  2**0
                  ALLOC
  6 .ARM.attributes 00000028  00000000  00000000  00020010  2**0
                  CONTENTS, READONLY
  7 .comment      00000059  00000000  00000000  00020038  2**0
                  CONTENTS, READONLY
  8 .debug_frame  0000032c  00000000  00000000  00020094  2**2
                  CONTENTS, READONLY, DEBUGGING

Disassembly of section .text:

00000000 <exception_table>:
       0:	a8 21 00 20 89 4b 00 00 1d 4c 00 00 1d 4c 00 00     .!. .K...L...L..
	...
      2c:	1d 4c 00 00 00 00 00 00 00 00 00 00 1d 4c 00 00     .L...........L..
      3c:	1d 4c 00 00 1d 4c 00 00 a1 3c 00 00 21 15 00 00     .L...L...<..!...
      4c:	1d 4c 00 00 1d 4c 00 00 1d 4c 00 00 1d 4c 00 00     .L...L...L...L..
      5c:	1d 4c 00 00 1d 4c 00 00 1d 4c 00 00 1d 4c 00 00     .L...L...L...L..
      6c:	1d 4c 00 00 1d 4c 00 00 1d 4c 00 00 1d 4c 00 00     .L...L...L...L..
      7c:	1d 4c 00 00 1d 4c 00 00 bd 20 00 00 d1 20 00 00     .L...L... ... ..
      8c:	e5 20 00 00 f9 20 00 00 0d 21 00 00 01 0d 00 00     . ... ...!......
      9c:	1d 4c 00 00 1d 4c 00 00 1d 4c 00 00 1d 4c 00 00     .L...L...L...L..
      ac:	1d 4c 00 00 00 00 00 00                             .L......

000000b4 <__do_global_dtors_aux>:
      b4:	b510      	push	{r4, lr}
      b6:	4c06      	ldr	r4, [pc, #24]	; (d0 <__do_global_dtors_aux+0x1c>)
      b8:	7823      	ldrb	r3, [r4, #0]
      ba:	2b00      	cmp	r3, #0
      bc:	d107      	bne.n	ce <__do_global_dtors_aux+0x1a>
      be:	4b05      	ldr	r3, [pc, #20]	; (d4 <__do_global_dtors_aux+0x20>)
      c0:	2b00      	cmp	r3, #0
      c2:	d002      	beq.n	ca <__do_global_dtors_aux+0x16>
      c4:	4804      	ldr	r0, [pc, #16]	; (d8 <__do_global_dtors_aux+0x24>)
      c6:	e000      	b.n	ca <__do_global_dtors_aux+0x16>
      c8:	bf00      	nop
      ca:	2301      	movs	r3, #1
      cc:	7023      	strb	r3, [r4, #0]
      ce:	bd10      	pop	{r4, pc}
      d0:	20000010 	.word	0x20000010
      d4:	00000000 	.word	0x00000000
      d8:	0000762c 	.word	0x0000762c

000000dc <frame_dummy>:
      dc:	4b08      	ldr	r3, [pc, #32]	; (100 <frame_dummy+0x24>)
      de:	b510      	push	{r4, lr}
      e0:	2b00      	cmp	r3, #0
      e2:	d003      	beq.n	ec <frame_dummy+0x10>
      e4:	4907      	ldr	r1, [pc, #28]	; (104 <frame_dummy+0x28>)
      e6:	4808      	ldr	r0, [pc, #32]	; (108 <frame_dummy+0x2c>)
      e8:	e000      	b.n	ec <frame_dummy+0x10>
      ea:	bf00      	nop
      ec:	4807      	ldr	r0, [pc, #28]	; (10c <frame_dummy+0x30>)
      ee:	6803      	ldr	r3, [r0, #0]
      f0:	2b00      	cmp	r3, #0
      f2:	d100      	bne.n	f6 <frame_dummy+0x1a>
      f4:	bd10      	pop	{r4, pc}
      f6:	4b06      	ldr	r3, [pc, #24]	; (110 <frame_dummy+0x34>)
      f8:	2b00      	cmp	r3, #0
      fa:	d0fb      	beq.n	f4 <frame_dummy+0x18>
      fc:	4798      	blx	r3
      fe:	e7f9      	b.n	f4 <frame_dummy+0x18>
     100:	00000000 	.word	0x00000000
     104:	20000014 	.word	0x20000014
     108:	0000762c 	.word	0x0000762c
     10c:	0000762c 	.word	0x0000762c
     110:	00000000 	.word	0x00000000

00000114 <unpack_reg>:
     114:	b580      	push	{r7, lr}
     116:	b084      	sub	sp, #16
     118:	af00      	add	r7, sp, #0
     11a:	6078      	str	r0, [r7, #4]
     11c:	687b      	ldr	r3, [r7, #4]
     11e:	781b      	ldrb	r3, [r3, #0]
     120:	b29a      	uxth	r2, r3
     122:	230e      	movs	r3, #14
     124:	18fb      	adds	r3, r7, r3
     126:	0212      	lsls	r2, r2, #8
     128:	801a      	strh	r2, [r3, #0]
     12a:	687b      	ldr	r3, [r7, #4]
     12c:	3301      	adds	r3, #1
     12e:	781b      	ldrb	r3, [r3, #0]
     130:	b299      	uxth	r1, r3
     132:	230e      	movs	r3, #14
     134:	18fb      	adds	r3, r7, r3
     136:	220e      	movs	r2, #14
     138:	18ba      	adds	r2, r7, r2
     13a:	8812      	ldrh	r2, [r2, #0]
     13c:	188a      	adds	r2, r1, r2
     13e:	801a      	strh	r2, [r3, #0]
     140:	230e      	movs	r3, #14
     142:	18fb      	adds	r3, r7, r3
     144:	881b      	ldrh	r3, [r3, #0]
     146:	0018      	movs	r0, r3
     148:	46bd      	mov	sp, r7
     14a:	b004      	add	sp, #16
     14c:	bd80      	pop	{r7, pc}

0000014e <pack_reg>:
     14e:	b580      	push	{r7, lr}
     150:	b082      	sub	sp, #8
     152:	af00      	add	r7, sp, #0
     154:	0002      	movs	r2, r0
     156:	6039      	str	r1, [r7, #0]
     158:	1dbb      	adds	r3, r7, #6
     15a:	801a      	strh	r2, [r3, #0]
     15c:	1dbb      	adds	r3, r7, #6
     15e:	881b      	ldrh	r3, [r3, #0]
     160:	0a1b      	lsrs	r3, r3, #8
     162:	b29b      	uxth	r3, r3
     164:	b2da      	uxtb	r2, r3
     166:	683b      	ldr	r3, [r7, #0]
     168:	701a      	strb	r2, [r3, #0]
     16a:	683b      	ldr	r3, [r7, #0]
     16c:	3301      	adds	r3, #1
     16e:	1dba      	adds	r2, r7, #6
     170:	8812      	ldrh	r2, [r2, #0]
     172:	b2d2      	uxtb	r2, r2
     174:	701a      	strb	r2, [r3, #0]
     176:	46c0      	nop			; (mov r8, r8)
     178:	46bd      	mov	sp, r7
     17a:	b002      	add	sp, #8
     17c:	bd80      	pop	{r7, pc}
	...

00000180 <init_opt3004>:
     180:	b590      	push	{r4, r7, lr}
     182:	b085      	sub	sp, #20
     184:	af00      	add	r7, sp, #0
     186:	2308      	movs	r3, #8
     188:	18fb      	adds	r3, r7, r3
     18a:	2200      	movs	r2, #0
     18c:	801a      	strh	r2, [r3, #0]
     18e:	2308      	movs	r3, #8
     190:	18f8      	adds	r0, r7, r3
     192:	237f      	movs	r3, #127	; 0x7f
     194:	2244      	movs	r2, #68	; 0x44
     196:	2102      	movs	r1, #2
     198:	4c13      	ldr	r4, [pc, #76]	; (1e8 <init_opt3004+0x68>)
     19a:	47a0      	blx	r4
     19c:	230e      	movs	r3, #14
     19e:	18fc      	adds	r4, r7, r3
     1a0:	2308      	movs	r3, #8
     1a2:	18fb      	adds	r3, r7, r3
     1a4:	0018      	movs	r0, r3
     1a6:	4b11      	ldr	r3, [pc, #68]	; (1ec <init_opt3004+0x6c>)
     1a8:	4798      	blx	r3
     1aa:	0003      	movs	r3, r0
     1ac:	8023      	strh	r3, [r4, #0]
     1ae:	230e      	movs	r3, #14
     1b0:	18fb      	adds	r3, r7, r3
     1b2:	881b      	ldrh	r3, [r3, #0]
     1b4:	4a0e      	ldr	r2, [pc, #56]	; (1f0 <init_opt3004+0x70>)
     1b6:	4293      	cmp	r3, r2
     1b8:	d112      	bne.n	1e0 <init_opt3004+0x60>
     1ba:	230c      	movs	r3, #12
     1bc:	18fb      	adds	r3, r7, r3
     1be:	4a0d      	ldr	r2, [pc, #52]	; (1f4 <init_opt3004+0x74>)
     1c0:	801a      	strh	r2, [r3, #0]
     1c2:	1d3a      	adds	r2, r7, #4
     1c4:	230c      	movs	r3, #12
     1c6:	18fb      	adds	r3, r7, r3
     1c8:	881b      	ldrh	r3, [r3, #0]
     1ca:	0011      	movs	r1, r2
     1cc:	0018      	movs	r0, r3
     1ce:	4b0a      	ldr	r3, [pc, #40]	; (1f8 <init_opt3004+0x78>)
     1d0:	4798      	blx	r3
     1d2:	1d38      	adds	r0, r7, #4
     1d4:	2301      	movs	r3, #1
     1d6:	2244      	movs	r2, #68	; 0x44
     1d8:	2102      	movs	r1, #2
     1da:	4c08      	ldr	r4, [pc, #32]	; (1fc <init_opt3004+0x7c>)
     1dc:	47a0      	blx	r4
     1de:	e000      	b.n	1e2 <init_opt3004+0x62>
     1e0:	46c0      	nop			; (mov r8, r8)
     1e2:	46bd      	mov	sp, r7
     1e4:	b005      	add	sp, #20
     1e6:	bd90      	pop	{r4, r7, pc}
     1e8:	00003a29 	.word	0x00003a29
     1ec:	00000115 	.word	0x00000115
     1f0:	00003001 	.word	0x00003001
     1f4:	fffffc00 	.word	0xfffffc00
     1f8:	0000014f 	.word	0x0000014f
     1fc:	000038f9 	.word	0x000038f9

00000200 <get_opt3004_ambient_light_level_lux>:
     200:	b590      	push	{r4, r7, lr}
     202:	b087      	sub	sp, #28
     204:	af00      	add	r7, sp, #0
     206:	1d3b      	adds	r3, r7, #4
     208:	2200      	movs	r2, #0
     20a:	801a      	strh	r2, [r3, #0]
     20c:	1d38      	adds	r0, r7, #4
     20e:	2300      	movs	r3, #0
     210:	2244      	movs	r2, #68	; 0x44
     212:	2102      	movs	r1, #2
     214:	4c11      	ldr	r4, [pc, #68]	; (25c <get_opt3004_ambient_light_level_lux+0x5c>)
     216:	47a0      	blx	r4
     218:	2316      	movs	r3, #22
     21a:	18fc      	adds	r4, r7, r3
     21c:	1d3b      	adds	r3, r7, #4
     21e:	0018      	movs	r0, r3
     220:	4b0f      	ldr	r3, [pc, #60]	; (260 <get_opt3004_ambient_light_level_lux+0x60>)
     222:	4798      	blx	r3
     224:	0003      	movs	r3, r0
     226:	8023      	strh	r3, [r4, #0]
     228:	2316      	movs	r3, #22
     22a:	18fb      	adds	r3, r7, r3
     22c:	881b      	ldrh	r3, [r3, #0]
     22e:	0b1b      	lsrs	r3, r3, #12
     230:	b29b      	uxth	r3, r3
     232:	613b      	str	r3, [r7, #16]
     234:	2316      	movs	r3, #22
     236:	18fb      	adds	r3, r7, r3
     238:	881b      	ldrh	r3, [r3, #0]
     23a:	051b      	lsls	r3, r3, #20
     23c:	0d1b      	lsrs	r3, r3, #20
     23e:	60fb      	str	r3, [r7, #12]
     240:	68fa      	ldr	r2, [r7, #12]
     242:	693b      	ldr	r3, [r7, #16]
     244:	409a      	lsls	r2, r3
     246:	4b07      	ldr	r3, [pc, #28]	; (264 <get_opt3004_ambient_light_level_lux+0x64>)
     248:	2164      	movs	r1, #100	; 0x64
     24a:	0010      	movs	r0, r2
     24c:	4798      	blx	r3
     24e:	0003      	movs	r3, r0
     250:	60bb      	str	r3, [r7, #8]
     252:	68bb      	ldr	r3, [r7, #8]
     254:	0018      	movs	r0, r3
     256:	46bd      	mov	sp, r7
     258:	b007      	add	sp, #28
     25a:	bd90      	pop	{r4, r7, pc}
     25c:	00003a29 	.word	0x00003a29
     260:	00000115 	.word	0x00000115
     264:	000050a1 	.word	0x000050a1

00000268 <system_gclk_chan_get_config_defaults>:
     268:	b580      	push	{r7, lr}
     26a:	b082      	sub	sp, #8
     26c:	af00      	add	r7, sp, #0
     26e:	6078      	str	r0, [r7, #4]
     270:	687b      	ldr	r3, [r7, #4]
     272:	2200      	movs	r2, #0
     274:	701a      	strb	r2, [r3, #0]
     276:	46c0      	nop			; (mov r8, r8)
     278:	46bd      	mov	sp, r7
     27a:	b002      	add	sp, #8
     27c:	bd80      	pop	{r7, pc}
	...

00000280 <system_apb_clock_set_mask>:
     280:	b580      	push	{r7, lr}
     282:	b082      	sub	sp, #8
     284:	af00      	add	r7, sp, #0
     286:	0002      	movs	r2, r0
     288:	6039      	str	r1, [r7, #0]
     28a:	1dfb      	adds	r3, r7, #7
     28c:	701a      	strb	r2, [r3, #0]
     28e:	1dfb      	adds	r3, r7, #7
     290:	781b      	ldrb	r3, [r3, #0]
     292:	2b04      	cmp	r3, #4
     294:	d827      	bhi.n	2e6 <system_apb_clock_set_mask+0x66>
     296:	009a      	lsls	r2, r3, #2
     298:	4b16      	ldr	r3, [pc, #88]	; (2f4 <system_apb_clock_set_mask+0x74>)
     29a:	18d3      	adds	r3, r2, r3
     29c:	681b      	ldr	r3, [r3, #0]
     29e:	469f      	mov	pc, r3
     2a0:	4b15      	ldr	r3, [pc, #84]	; (2f8 <system_apb_clock_set_mask+0x78>)
     2a2:	4a15      	ldr	r2, [pc, #84]	; (2f8 <system_apb_clock_set_mask+0x78>)
     2a4:	6951      	ldr	r1, [r2, #20]
     2a6:	683a      	ldr	r2, [r7, #0]
     2a8:	430a      	orrs	r2, r1
     2aa:	615a      	str	r2, [r3, #20]
     2ac:	e01d      	b.n	2ea <system_apb_clock_set_mask+0x6a>
     2ae:	4b12      	ldr	r3, [pc, #72]	; (2f8 <system_apb_clock_set_mask+0x78>)
     2b0:	4a11      	ldr	r2, [pc, #68]	; (2f8 <system_apb_clock_set_mask+0x78>)
     2b2:	6991      	ldr	r1, [r2, #24]
     2b4:	683a      	ldr	r2, [r7, #0]
     2b6:	430a      	orrs	r2, r1
     2b8:	619a      	str	r2, [r3, #24]
     2ba:	e016      	b.n	2ea <system_apb_clock_set_mask+0x6a>
     2bc:	4b0e      	ldr	r3, [pc, #56]	; (2f8 <system_apb_clock_set_mask+0x78>)
     2be:	4a0e      	ldr	r2, [pc, #56]	; (2f8 <system_apb_clock_set_mask+0x78>)
     2c0:	69d1      	ldr	r1, [r2, #28]
     2c2:	683a      	ldr	r2, [r7, #0]
     2c4:	430a      	orrs	r2, r1
     2c6:	61da      	str	r2, [r3, #28]
     2c8:	e00f      	b.n	2ea <system_apb_clock_set_mask+0x6a>
     2ca:	4b0b      	ldr	r3, [pc, #44]	; (2f8 <system_apb_clock_set_mask+0x78>)
     2cc:	4a0a      	ldr	r2, [pc, #40]	; (2f8 <system_apb_clock_set_mask+0x78>)
     2ce:	6a11      	ldr	r1, [r2, #32]
     2d0:	683a      	ldr	r2, [r7, #0]
     2d2:	430a      	orrs	r2, r1
     2d4:	621a      	str	r2, [r3, #32]
     2d6:	e008      	b.n	2ea <system_apb_clock_set_mask+0x6a>
     2d8:	4b07      	ldr	r3, [pc, #28]	; (2f8 <system_apb_clock_set_mask+0x78>)
     2da:	4a07      	ldr	r2, [pc, #28]	; (2f8 <system_apb_clock_set_mask+0x78>)
     2dc:	6a51      	ldr	r1, [r2, #36]	; 0x24
     2de:	683a      	ldr	r2, [r7, #0]
     2e0:	430a      	orrs	r2, r1
     2e2:	625a      	str	r2, [r3, #36]	; 0x24
     2e4:	e001      	b.n	2ea <system_apb_clock_set_mask+0x6a>
     2e6:	2317      	movs	r3, #23
     2e8:	e000      	b.n	2ec <system_apb_clock_set_mask+0x6c>
     2ea:	2300      	movs	r3, #0
     2ec:	0018      	movs	r0, r3
     2ee:	46bd      	mov	sp, r7
     2f0:	b002      	add	sp, #8
     2f2:	bd80      	pop	{r7, pc}
     2f4:	000072bc 	.word	0x000072bc
     2f8:	40000400 	.word	0x40000400

000002fc <system_pinmux_get_config_defaults>:
     2fc:	b580      	push	{r7, lr}
     2fe:	b082      	sub	sp, #8
     300:	af00      	add	r7, sp, #0
     302:	6078      	str	r0, [r7, #4]
     304:	687b      	ldr	r3, [r7, #4]
     306:	2280      	movs	r2, #128	; 0x80
     308:	701a      	strb	r2, [r3, #0]
     30a:	687b      	ldr	r3, [r7, #4]
     30c:	2200      	movs	r2, #0
     30e:	705a      	strb	r2, [r3, #1]
     310:	687b      	ldr	r3, [r7, #4]
     312:	2201      	movs	r2, #1
     314:	709a      	strb	r2, [r3, #2]
     316:	687b      	ldr	r3, [r7, #4]
     318:	2200      	movs	r2, #0
     31a:	70da      	strb	r2, [r3, #3]
     31c:	46c0      	nop			; (mov r8, r8)
     31e:	46bd      	mov	sp, r7
     320:	b002      	add	sp, #8
     322:	bd80      	pop	{r7, pc}

00000324 <system_voltage_reference_enable>:
     324:	b580      	push	{r7, lr}
     326:	b082      	sub	sp, #8
     328:	af00      	add	r7, sp, #0
     32a:	0002      	movs	r2, r0
     32c:	1dfb      	adds	r3, r7, #7
     32e:	701a      	strb	r2, [r3, #0]
     330:	1dfb      	adds	r3, r7, #7
     332:	781b      	ldrb	r3, [r3, #0]
     334:	2b00      	cmp	r3, #0
     336:	d002      	beq.n	33e <system_voltage_reference_enable+0x1a>
     338:	2b01      	cmp	r3, #1
     33a:	d007      	beq.n	34c <system_voltage_reference_enable+0x28>
     33c:	e00d      	b.n	35a <system_voltage_reference_enable+0x36>
     33e:	4b08      	ldr	r3, [pc, #32]	; (360 <system_voltage_reference_enable+0x3c>)
     340:	4a07      	ldr	r2, [pc, #28]	; (360 <system_voltage_reference_enable+0x3c>)
     342:	69d2      	ldr	r2, [r2, #28]
     344:	2102      	movs	r1, #2
     346:	430a      	orrs	r2, r1
     348:	61da      	str	r2, [r3, #28]
     34a:	e006      	b.n	35a <system_voltage_reference_enable+0x36>
     34c:	4b04      	ldr	r3, [pc, #16]	; (360 <system_voltage_reference_enable+0x3c>)
     34e:	4a04      	ldr	r2, [pc, #16]	; (360 <system_voltage_reference_enable+0x3c>)
     350:	69d2      	ldr	r2, [r2, #28]
     352:	2104      	movs	r1, #4
     354:	430a      	orrs	r2, r1
     356:	61da      	str	r2, [r3, #28]
     358:	46c0      	nop			; (mov r8, r8)
     35a:	46bd      	mov	sp, r7
     35c:	b002      	add	sp, #8
     35e:	bd80      	pop	{r7, pc}
     360:	40001400 	.word	0x40001400

00000364 <adc_is_syncing>:
     364:	b580      	push	{r7, lr}
     366:	b084      	sub	sp, #16
     368:	af00      	add	r7, sp, #0
     36a:	6078      	str	r0, [r7, #4]
     36c:	687b      	ldr	r3, [r7, #4]
     36e:	681b      	ldr	r3, [r3, #0]
     370:	60fb      	str	r3, [r7, #12]
     372:	68fb      	ldr	r3, [r7, #12]
     374:	8c1b      	ldrh	r3, [r3, #32]
     376:	b29b      	uxth	r3, r3
     378:	2b00      	cmp	r3, #0
     37a:	d001      	beq.n	380 <adc_is_syncing+0x1c>
     37c:	2301      	movs	r3, #1
     37e:	e000      	b.n	382 <adc_is_syncing+0x1e>
     380:	2300      	movs	r3, #0
     382:	0018      	movs	r0, r3
     384:	46bd      	mov	sp, r7
     386:	b004      	add	sp, #16
     388:	bd80      	pop	{r7, pc}
	...

0000038c <_adc_get_inst_index>:
     38c:	b580      	push	{r7, lr}
     38e:	b084      	sub	sp, #16
     390:	af00      	add	r7, sp, #0
     392:	6078      	str	r0, [r7, #4]
     394:	4b0e      	ldr	r3, [pc, #56]	; (3d0 <_adc_get_inst_index+0x44>)
     396:	60bb      	str	r3, [r7, #8]
     398:	2300      	movs	r3, #0
     39a:	60fb      	str	r3, [r7, #12]
     39c:	e010      	b.n	3c0 <_adc_get_inst_index+0x34>
     39e:	68fb      	ldr	r3, [r7, #12]
     3a0:	009b      	lsls	r3, r3, #2
     3a2:	2210      	movs	r2, #16
     3a4:	4694      	mov	ip, r2
     3a6:	44bc      	add	ip, r7
     3a8:	4463      	add	r3, ip
     3aa:	3b08      	subs	r3, #8
     3ac:	681a      	ldr	r2, [r3, #0]
     3ae:	687b      	ldr	r3, [r7, #4]
     3b0:	429a      	cmp	r2, r3
     3b2:	d102      	bne.n	3ba <_adc_get_inst_index+0x2e>
     3b4:	68fb      	ldr	r3, [r7, #12]
     3b6:	b2db      	uxtb	r3, r3
     3b8:	e006      	b.n	3c8 <_adc_get_inst_index+0x3c>
     3ba:	68fb      	ldr	r3, [r7, #12]
     3bc:	3301      	adds	r3, #1
     3be:	60fb      	str	r3, [r7, #12]
     3c0:	68fb      	ldr	r3, [r7, #12]
     3c2:	2b00      	cmp	r3, #0
     3c4:	d0eb      	beq.n	39e <_adc_get_inst_index+0x12>
     3c6:	2300      	movs	r3, #0
     3c8:	0018      	movs	r0, r3
     3ca:	46bd      	mov	sp, r7
     3cc:	b004      	add	sp, #16
     3ce:	bd80      	pop	{r7, pc}
     3d0:	43000c00 	.word	0x43000c00

000003d4 <adc_get_config_defaults>:
     3d4:	b580      	push	{r7, lr}
     3d6:	b082      	sub	sp, #8
     3d8:	af00      	add	r7, sp, #0
     3da:	6078      	str	r0, [r7, #4]
     3dc:	687b      	ldr	r3, [r7, #4]
     3de:	2200      	movs	r2, #0
     3e0:	701a      	strb	r2, [r3, #0]
     3e2:	687b      	ldr	r3, [r7, #4]
     3e4:	2200      	movs	r2, #0
     3e6:	705a      	strb	r2, [r3, #1]
     3e8:	687b      	ldr	r3, [r7, #4]
     3ea:	2200      	movs	r2, #0
     3ec:	709a      	strb	r2, [r3, #2]
     3ee:	687b      	ldr	r3, [r7, #4]
     3f0:	2200      	movs	r2, #0
     3f2:	70da      	strb	r2, [r3, #3]
     3f4:	687b      	ldr	r3, [r7, #4]
     3f6:	2200      	movs	r2, #0
     3f8:	831a      	strh	r2, [r3, #24]
     3fa:	687b      	ldr	r3, [r7, #4]
     3fc:	2200      	movs	r2, #0
     3fe:	621a      	str	r2, [r3, #32]
     400:	687b      	ldr	r3, [r7, #4]
     402:	2200      	movs	r2, #0
     404:	61da      	str	r2, [r3, #28]
     406:	687b      	ldr	r3, [r7, #4]
     408:	2201      	movs	r2, #1
     40a:	711a      	strb	r2, [r3, #4]
     40c:	687b      	ldr	r3, [r7, #4]
     40e:	22c0      	movs	r2, #192	; 0xc0
     410:	0152      	lsls	r2, r2, #5
     412:	80da      	strh	r2, [r3, #6]
     414:	687b      	ldr	r3, [r7, #4]
     416:	2200      	movs	r2, #0
     418:	721a      	strb	r2, [r3, #8]
     41a:	687b      	ldr	r3, [r7, #4]
     41c:	2200      	movs	r2, #0
     41e:	725a      	strb	r2, [r3, #9]
     420:	687b      	ldr	r3, [r7, #4]
     422:	2200      	movs	r2, #0
     424:	729a      	strb	r2, [r3, #10]
     426:	687b      	ldr	r3, [r7, #4]
     428:	2200      	movs	r2, #0
     42a:	72da      	strb	r2, [r3, #11]
     42c:	687b      	ldr	r3, [r7, #4]
     42e:	2200      	movs	r2, #0
     430:	731a      	strb	r2, [r3, #12]
     432:	687b      	ldr	r3, [r7, #4]
     434:	222a      	movs	r2, #42	; 0x2a
     436:	2100      	movs	r1, #0
     438:	5499      	strb	r1, [r3, r2]
     43a:	687b      	ldr	r3, [r7, #4]
     43c:	2200      	movs	r2, #0
     43e:	735a      	strb	r2, [r3, #13]
     440:	687b      	ldr	r3, [r7, #4]
     442:	2200      	movs	r2, #0
     444:	739a      	strb	r2, [r3, #14]
     446:	687b      	ldr	r3, [r7, #4]
     448:	2200      	movs	r2, #0
     44a:	73da      	strb	r2, [r3, #15]
     44c:	687b      	ldr	r3, [r7, #4]
     44e:	2200      	movs	r2, #0
     450:	611a      	str	r2, [r3, #16]
     452:	687b      	ldr	r3, [r7, #4]
     454:	2200      	movs	r2, #0
     456:	751a      	strb	r2, [r3, #20]
     458:	687b      	ldr	r3, [r7, #4]
     45a:	2224      	movs	r2, #36	; 0x24
     45c:	2100      	movs	r1, #0
     45e:	5499      	strb	r1, [r3, r2]
     460:	687b      	ldr	r3, [r7, #4]
     462:	2200      	movs	r2, #0
     464:	84da      	strh	r2, [r3, #38]	; 0x26
     466:	687b      	ldr	r3, [r7, #4]
     468:	2200      	movs	r2, #0
     46a:	851a      	strh	r2, [r3, #40]	; 0x28
     46c:	687b      	ldr	r3, [r7, #4]
     46e:	2200      	movs	r2, #0
     470:	755a      	strb	r2, [r3, #21]
     472:	46c0      	nop			; (mov r8, r8)
     474:	46bd      	mov	sp, r7
     476:	b002      	add	sp, #8
     478:	bd80      	pop	{r7, pc}
	...

0000047c <_adc_configure_ain_pin>:
     47c:	b580      	push	{r7, lr}
     47e:	b09c      	sub	sp, #112	; 0x70
     480:	af00      	add	r7, sp, #0
     482:	0002      	movs	r2, r0
     484:	6039      	str	r1, [r7, #0]
     486:	1dfb      	adds	r3, r7, #7
     488:	701a      	strb	r2, [r3, #0]
     48a:	230c      	movs	r3, #12
     48c:	18fa      	adds	r2, r7, r3
     48e:	4b16      	ldr	r3, [pc, #88]	; (4e8 <_adc_configure_ain_pin+0x6c>)
     490:	0010      	movs	r0, r2
     492:	0019      	movs	r1, r3
     494:	2360      	movs	r3, #96	; 0x60
     496:	001a      	movs	r2, r3
     498:	4b14      	ldr	r3, [pc, #80]	; (4ec <_adc_configure_ain_pin+0x70>)
     49a:	4798      	blx	r3
     49c:	4b14      	ldr	r3, [pc, #80]	; (4f0 <_adc_configure_ain_pin+0x74>)
     49e:	66fb      	str	r3, [r7, #108]	; 0x6c
     4a0:	2213      	movs	r2, #19
     4a2:	683b      	ldr	r3, [r7, #0]
     4a4:	429a      	cmp	r2, r3
     4a6:	d31a      	bcc.n	4de <_adc_configure_ain_pin+0x62>
     4a8:	230c      	movs	r3, #12
     4aa:	18fb      	adds	r3, r7, r3
     4ac:	683a      	ldr	r2, [r7, #0]
     4ae:	0092      	lsls	r2, r2, #2
     4b0:	58d3      	ldr	r3, [r2, r3]
     4b2:	66fb      	str	r3, [r7, #108]	; 0x6c
     4b4:	2308      	movs	r3, #8
     4b6:	18fb      	adds	r3, r7, r3
     4b8:	0018      	movs	r0, r3
     4ba:	4b0e      	ldr	r3, [pc, #56]	; (4f4 <_adc_configure_ain_pin+0x78>)
     4bc:	4798      	blx	r3
     4be:	2308      	movs	r3, #8
     4c0:	18fb      	adds	r3, r7, r3
     4c2:	2200      	movs	r2, #0
     4c4:	709a      	strb	r2, [r3, #2]
     4c6:	2308      	movs	r3, #8
     4c8:	18fb      	adds	r3, r7, r3
     4ca:	2201      	movs	r2, #1
     4cc:	701a      	strb	r2, [r3, #0]
     4ce:	6efb      	ldr	r3, [r7, #108]	; 0x6c
     4d0:	b2db      	uxtb	r3, r3
     4d2:	2208      	movs	r2, #8
     4d4:	18ba      	adds	r2, r7, r2
     4d6:	0011      	movs	r1, r2
     4d8:	0018      	movs	r0, r3
     4da:	4b07      	ldr	r3, [pc, #28]	; (4f8 <_adc_configure_ain_pin+0x7c>)
     4dc:	4798      	blx	r3
     4de:	46c0      	nop			; (mov r8, r8)
     4e0:	46bd      	mov	sp, r7
     4e2:	b01c      	add	sp, #112	; 0x70
     4e4:	bd80      	pop	{r7, pc}
     4e6:	46c0      	nop			; (mov r8, r8)
     4e8:	000072d0 	.word	0x000072d0
     4ec:	00007299 	.word	0x00007299
     4f0:	0000ffff 	.word	0x0000ffff
     4f4:	000002fd 	.word	0x000002fd
     4f8:	00004b01 	.word	0x00004b01

000004fc <_adc_set_config>:
     4fc:	b580      	push	{r7, lr}
     4fe:	b08a      	sub	sp, #40	; 0x28
     500:	af00      	add	r7, sp, #0
     502:	60b9      	str	r1, [r7, #8]
     504:	607a      	str	r2, [r7, #4]
     506:	230f      	movs	r3, #15
     508:	18fb      	adds	r3, r7, r3
     50a:	1c02      	adds	r2, r0, #0
     50c:	701a      	strb	r2, [r3, #0]
     50e:	2327      	movs	r3, #39	; 0x27
     510:	18fb      	adds	r3, r7, r3
     512:	2200      	movs	r2, #0
     514:	701a      	strb	r2, [r3, #0]
     516:	2310      	movs	r3, #16
     518:	623b      	str	r3, [r7, #32]
     51a:	231f      	movs	r3, #31
     51c:	18fb      	adds	r3, r7, r3
     51e:	2200      	movs	r2, #0
     520:	701a      	strb	r2, [r3, #0]
     522:	68bb      	ldr	r3, [r7, #8]
     524:	681b      	ldr	r3, [r3, #0]
     526:	61bb      	str	r3, [r7, #24]
     528:	2314      	movs	r3, #20
     52a:	18fb      	adds	r3, r7, r3
     52c:	0018      	movs	r0, r3
     52e:	4bc5      	ldr	r3, [pc, #788]	; (844 <_adc_set_config+0x348>)
     530:	4798      	blx	r3
     532:	687b      	ldr	r3, [r7, #4]
     534:	781a      	ldrb	r2, [r3, #0]
     536:	2314      	movs	r3, #20
     538:	18fb      	adds	r3, r7, r3
     53a:	701a      	strb	r2, [r3, #0]
     53c:	221e      	movs	r2, #30
     53e:	2314      	movs	r3, #20
     540:	18fb      	adds	r3, r7, r3
     542:	0019      	movs	r1, r3
     544:	0010      	movs	r0, r2
     546:	4bc0      	ldr	r3, [pc, #768]	; (848 <_adc_set_config+0x34c>)
     548:	4798      	blx	r3
     54a:	231e      	movs	r3, #30
     54c:	0018      	movs	r0, r3
     54e:	4bbf      	ldr	r3, [pc, #764]	; (84c <_adc_set_config+0x350>)
     550:	4798      	blx	r3
     552:	687b      	ldr	r3, [r7, #4]
     554:	791b      	ldrb	r3, [r3, #4]
     556:	001a      	movs	r2, r3
     558:	230f      	movs	r3, #15
     55a:	18fb      	adds	r3, r7, r3
     55c:	781b      	ldrb	r3, [r3, #0]
     55e:	0011      	movs	r1, r2
     560:	0018      	movs	r0, r3
     562:	4bbb      	ldr	r3, [pc, #748]	; (850 <_adc_set_config+0x354>)
     564:	4798      	blx	r3
     566:	687b      	ldr	r3, [r7, #4]
     568:	88db      	ldrh	r3, [r3, #6]
     56a:	001a      	movs	r2, r3
     56c:	230f      	movs	r3, #15
     56e:	18fb      	adds	r3, r7, r3
     570:	781b      	ldrb	r3, [r3, #0]
     572:	0011      	movs	r1, r2
     574:	0018      	movs	r0, r3
     576:	4bb6      	ldr	r3, [pc, #728]	; (850 <_adc_set_config+0x354>)
     578:	4798      	blx	r3
     57a:	231e      	movs	r3, #30
     57c:	18fb      	adds	r3, r7, r3
     57e:	2200      	movs	r2, #0
     580:	701a      	strb	r2, [r3, #0]
     582:	e01a      	b.n	5ba <_adc_set_config+0xbe>
     584:	687b      	ldr	r3, [r7, #4]
     586:	691b      	ldr	r3, [r3, #16]
     588:	221e      	movs	r2, #30
     58a:	18ba      	adds	r2, r7, r2
     58c:	7812      	ldrb	r2, [r2, #0]
     58e:	2101      	movs	r1, #1
     590:	4091      	lsls	r1, r2
     592:	000a      	movs	r2, r1
     594:	4013      	ands	r3, r2
     596:	d009      	beq.n	5ac <_adc_set_config+0xb0>
     598:	231e      	movs	r3, #30
     59a:	18fb      	adds	r3, r7, r3
     59c:	781a      	ldrb	r2, [r3, #0]
     59e:	230f      	movs	r3, #15
     5a0:	18fb      	adds	r3, r7, r3
     5a2:	781b      	ldrb	r3, [r3, #0]
     5a4:	0011      	movs	r1, r2
     5a6:	0018      	movs	r0, r3
     5a8:	4ba9      	ldr	r3, [pc, #676]	; (850 <_adc_set_config+0x354>)
     5aa:	4798      	blx	r3
     5ac:	231e      	movs	r3, #30
     5ae:	18fb      	adds	r3, r7, r3
     5b0:	781a      	ldrb	r2, [r3, #0]
     5b2:	231e      	movs	r3, #30
     5b4:	18fb      	adds	r3, r7, r3
     5b6:	3201      	adds	r2, #1
     5b8:	701a      	strb	r2, [r3, #0]
     5ba:	231e      	movs	r3, #30
     5bc:	18fb      	adds	r3, r7, r3
     5be:	781b      	ldrb	r3, [r3, #0]
     5c0:	2213      	movs	r2, #19
     5c2:	4293      	cmp	r3, r2
     5c4:	d9de      	bls.n	584 <_adc_set_config+0x88>
     5c6:	687b      	ldr	r3, [r7, #4]
     5c8:	7b5b      	ldrb	r3, [r3, #13]
     5ca:	019b      	lsls	r3, r3, #6
     5cc:	b25a      	sxtb	r2, r3
     5ce:	687b      	ldr	r3, [r7, #4]
     5d0:	7b9b      	ldrb	r3, [r3, #14]
     5d2:	01db      	lsls	r3, r3, #7
     5d4:	b25b      	sxtb	r3, r3
     5d6:	4313      	orrs	r3, r2
     5d8:	b25b      	sxtb	r3, r3
     5da:	b2da      	uxtb	r2, r3
     5dc:	69bb      	ldr	r3, [r7, #24]
     5de:	701a      	strb	r2, [r3, #0]
     5e0:	687b      	ldr	r3, [r7, #4]
     5e2:	7d1b      	ldrb	r3, [r3, #20]
     5e4:	01db      	lsls	r3, r3, #7
     5e6:	b25a      	sxtb	r2, r3
     5e8:	687b      	ldr	r3, [r7, #4]
     5ea:	785b      	ldrb	r3, [r3, #1]
     5ec:	b25b      	sxtb	r3, r3
     5ee:	4313      	orrs	r3, r2
     5f0:	b25b      	sxtb	r3, r3
     5f2:	b2da      	uxtb	r2, r3
     5f4:	69bb      	ldr	r3, [r7, #24]
     5f6:	709a      	strb	r2, [r3, #2]
     5f8:	687b      	ldr	r3, [r7, #4]
     5fa:	78db      	ldrb	r3, [r3, #3]
     5fc:	2b34      	cmp	r3, #52	; 0x34
     5fe:	d846      	bhi.n	68e <_adc_set_config+0x192>
     600:	009a      	lsls	r2, r3, #2
     602:	4b94      	ldr	r3, [pc, #592]	; (854 <_adc_set_config+0x358>)
     604:	18d3      	adds	r3, r2, r3
     606:	681b      	ldr	r3, [r3, #0]
     608:	469f      	mov	pc, r3
     60a:	2327      	movs	r3, #39	; 0x27
     60c:	18fb      	adds	r3, r7, r3
     60e:	687a      	ldr	r2, [r7, #4]
     610:	7a52      	ldrb	r2, [r2, #9]
     612:	701a      	strb	r2, [r3, #0]
     614:	231f      	movs	r3, #31
     616:	18fb      	adds	r3, r7, r3
     618:	687a      	ldr	r2, [r7, #4]
     61a:	7a12      	ldrb	r2, [r2, #8]
     61c:	701a      	strb	r2, [r3, #0]
     61e:	2310      	movs	r3, #16
     620:	623b      	str	r3, [r7, #32]
     622:	e036      	b.n	692 <_adc_set_config+0x196>
     624:	2327      	movs	r3, #39	; 0x27
     626:	18fb      	adds	r3, r7, r3
     628:	2201      	movs	r2, #1
     62a:	701a      	strb	r2, [r3, #0]
     62c:	231f      	movs	r3, #31
     62e:	18fb      	adds	r3, r7, r3
     630:	2202      	movs	r2, #2
     632:	701a      	strb	r2, [r3, #0]
     634:	2310      	movs	r3, #16
     636:	623b      	str	r3, [r7, #32]
     638:	e02b      	b.n	692 <_adc_set_config+0x196>
     63a:	2327      	movs	r3, #39	; 0x27
     63c:	18fb      	adds	r3, r7, r3
     63e:	2202      	movs	r2, #2
     640:	701a      	strb	r2, [r3, #0]
     642:	231f      	movs	r3, #31
     644:	18fb      	adds	r3, r7, r3
     646:	2204      	movs	r2, #4
     648:	701a      	strb	r2, [r3, #0]
     64a:	2310      	movs	r3, #16
     64c:	623b      	str	r3, [r7, #32]
     64e:	e020      	b.n	692 <_adc_set_config+0x196>
     650:	2327      	movs	r3, #39	; 0x27
     652:	18fb      	adds	r3, r7, r3
     654:	2201      	movs	r2, #1
     656:	701a      	strb	r2, [r3, #0]
     658:	231f      	movs	r3, #31
     65a:	18fb      	adds	r3, r7, r3
     65c:	2206      	movs	r2, #6
     65e:	701a      	strb	r2, [r3, #0]
     660:	2310      	movs	r3, #16
     662:	623b      	str	r3, [r7, #32]
     664:	e015      	b.n	692 <_adc_set_config+0x196>
     666:	2327      	movs	r3, #39	; 0x27
     668:	18fb      	adds	r3, r7, r3
     66a:	2200      	movs	r2, #0
     66c:	701a      	strb	r2, [r3, #0]
     66e:	231f      	movs	r3, #31
     670:	18fb      	adds	r3, r7, r3
     672:	2208      	movs	r2, #8
     674:	701a      	strb	r2, [r3, #0]
     676:	2310      	movs	r3, #16
     678:	623b      	str	r3, [r7, #32]
     67a:	e00a      	b.n	692 <_adc_set_config+0x196>
     67c:	2330      	movs	r3, #48	; 0x30
     67e:	623b      	str	r3, [r7, #32]
     680:	e007      	b.n	692 <_adc_set_config+0x196>
     682:	2320      	movs	r3, #32
     684:	623b      	str	r3, [r7, #32]
     686:	e004      	b.n	692 <_adc_set_config+0x196>
     688:	2300      	movs	r3, #0
     68a:	623b      	str	r3, [r7, #32]
     68c:	e001      	b.n	692 <_adc_set_config+0x196>
     68e:	2317      	movs	r3, #23
     690:	e1a7      	b.n	9e2 <_adc_set_config+0x4e6>
     692:	2327      	movs	r3, #39	; 0x27
     694:	18fb      	adds	r3, r7, r3
     696:	781b      	ldrb	r3, [r3, #0]
     698:	011b      	lsls	r3, r3, #4
     69a:	b2db      	uxtb	r3, r3
     69c:	2270      	movs	r2, #112	; 0x70
     69e:	4013      	ands	r3, r2
     6a0:	b2da      	uxtb	r2, r3
     6a2:	231f      	movs	r3, #31
     6a4:	18fb      	adds	r3, r7, r3
     6a6:	781b      	ldrb	r3, [r3, #0]
     6a8:	4313      	orrs	r3, r2
     6aa:	b2da      	uxtb	r2, r3
     6ac:	69bb      	ldr	r3, [r7, #24]
     6ae:	731a      	strb	r2, [r3, #12]
     6b0:	46c0      	nop			; (mov r8, r8)
     6b2:	68bb      	ldr	r3, [r7, #8]
     6b4:	0018      	movs	r0, r3
     6b6:	4b68      	ldr	r3, [pc, #416]	; (858 <_adc_set_config+0x35c>)
     6b8:	4798      	blx	r3
     6ba:	1e03      	subs	r3, r0, #0
     6bc:	d1f9      	bne.n	6b2 <_adc_set_config+0x1b6>
     6be:	687b      	ldr	r3, [r7, #4]
     6c0:	7d5b      	ldrb	r3, [r3, #21]
     6c2:	2b3f      	cmp	r3, #63	; 0x3f
     6c4:	d901      	bls.n	6ca <_adc_set_config+0x1ce>
     6c6:	2317      	movs	r3, #23
     6c8:	e18b      	b.n	9e2 <_adc_set_config+0x4e6>
     6ca:	687b      	ldr	r3, [r7, #4]
     6cc:	7d5b      	ldrb	r3, [r3, #21]
     6ce:	b25a      	sxtb	r2, r3
     6d0:	687b      	ldr	r3, [r7, #4]
     6d2:	7bdb      	ldrb	r3, [r3, #15]
     6d4:	01db      	lsls	r3, r3, #7
     6d6:	b25b      	sxtb	r3, r3
     6d8:	4313      	orrs	r3, r2
     6da:	b25b      	sxtb	r3, r3
     6dc:	b2da      	uxtb	r2, r3
     6de:	69bb      	ldr	r3, [r7, #24]
     6e0:	735a      	strb	r2, [r3, #13]
     6e2:	46c0      	nop			; (mov r8, r8)
     6e4:	68bb      	ldr	r3, [r7, #8]
     6e6:	0018      	movs	r0, r3
     6e8:	4b5b      	ldr	r3, [pc, #364]	; (858 <_adc_set_config+0x35c>)
     6ea:	4798      	blx	r3
     6ec:	1e03      	subs	r3, r0, #0
     6ee:	d1f9      	bne.n	6e4 <_adc_set_config+0x1e8>
     6f0:	687b      	ldr	r3, [r7, #4]
     6f2:	789a      	ldrb	r2, [r3, #2]
     6f4:	69bb      	ldr	r3, [r7, #24]
     6f6:	705a      	strb	r2, [r3, #1]
     6f8:	687b      	ldr	r3, [r7, #4]
     6fa:	2224      	movs	r2, #36	; 0x24
     6fc:	5c9b      	ldrb	r3, [r3, r2]
     6fe:	b29b      	uxth	r3, r3
     700:	00db      	lsls	r3, r3, #3
     702:	b29a      	uxth	r2, r3
     704:	6a3b      	ldr	r3, [r7, #32]
     706:	b29b      	uxth	r3, r3
     708:	4313      	orrs	r3, r2
     70a:	b29a      	uxth	r2, r3
     70c:	687b      	ldr	r3, [r7, #4]
     70e:	7b1b      	ldrb	r3, [r3, #12]
     710:	b29b      	uxth	r3, r3
     712:	009b      	lsls	r3, r3, #2
     714:	b29b      	uxth	r3, r3
     716:	4313      	orrs	r3, r2
     718:	b29a      	uxth	r2, r3
     71a:	687b      	ldr	r3, [r7, #4]
     71c:	7a9b      	ldrb	r3, [r3, #10]
     71e:	b29b      	uxth	r3, r3
     720:	18db      	adds	r3, r3, r3
     722:	b29b      	uxth	r3, r3
     724:	4313      	orrs	r3, r2
     726:	b29a      	uxth	r2, r3
     728:	687b      	ldr	r3, [r7, #4]
     72a:	7adb      	ldrb	r3, [r3, #11]
     72c:	b29b      	uxth	r3, r3
     72e:	4313      	orrs	r3, r2
     730:	b29a      	uxth	r2, r3
     732:	69bb      	ldr	r3, [r7, #24]
     734:	815a      	strh	r2, [r3, #10]
     736:	46c0      	nop			; (mov r8, r8)
     738:	68bb      	ldr	r3, [r7, #8]
     73a:	0018      	movs	r0, r3
     73c:	4b46      	ldr	r3, [pc, #280]	; (858 <_adc_set_config+0x35c>)
     73e:	4798      	blx	r3
     740:	1e03      	subs	r3, r0, #0
     742:	d1f9      	bne.n	738 <_adc_set_config+0x23c>
     744:	687b      	ldr	r3, [r7, #4]
     746:	8b1b      	ldrh	r3, [r3, #24]
     748:	2b00      	cmp	r3, #0
     74a:	d100      	bne.n	74e <_adc_set_config+0x252>
     74c:	e0bf      	b.n	8ce <_adc_set_config+0x3d2>
     74e:	6a3b      	ldr	r3, [r7, #32]
     750:	2b10      	cmp	r3, #16
     752:	d100      	bne.n	756 <_adc_set_config+0x25a>
     754:	e08e      	b.n	874 <_adc_set_config+0x378>
     756:	d802      	bhi.n	75e <_adc_set_config+0x262>
     758:	2b00      	cmp	r3, #0
     75a:	d04d      	beq.n	7f8 <_adc_set_config+0x2fc>
     75c:	e0b7      	b.n	8ce <_adc_set_config+0x3d2>
     75e:	2b20      	cmp	r3, #32
     760:	d023      	beq.n	7aa <_adc_set_config+0x2ae>
     762:	2b30      	cmp	r3, #48	; 0x30
     764:	d000      	beq.n	768 <_adc_set_config+0x26c>
     766:	e0b2      	b.n	8ce <_adc_set_config+0x3d2>
     768:	687b      	ldr	r3, [r7, #4]
     76a:	7adb      	ldrb	r3, [r3, #11]
     76c:	2b00      	cmp	r3, #0
     76e:	d011      	beq.n	794 <_adc_set_config+0x298>
     770:	687b      	ldr	r3, [r7, #4]
     772:	69db      	ldr	r3, [r3, #28]
     774:	2b7f      	cmp	r3, #127	; 0x7f
     776:	dc0b      	bgt.n	790 <_adc_set_config+0x294>
     778:	687b      	ldr	r3, [r7, #4]
     77a:	69db      	ldr	r3, [r3, #28]
     77c:	3380      	adds	r3, #128	; 0x80
     77e:	db07      	blt.n	790 <_adc_set_config+0x294>
     780:	687b      	ldr	r3, [r7, #4]
     782:	6a1b      	ldr	r3, [r3, #32]
     784:	2b7f      	cmp	r3, #127	; 0x7f
     786:	dc03      	bgt.n	790 <_adc_set_config+0x294>
     788:	687b      	ldr	r3, [r7, #4]
     78a:	6a1b      	ldr	r3, [r3, #32]
     78c:	3380      	adds	r3, #128	; 0x80
     78e:	da01      	bge.n	794 <_adc_set_config+0x298>
     790:	2317      	movs	r3, #23
     792:	e126      	b.n	9e2 <_adc_set_config+0x4e6>
     794:	687b      	ldr	r3, [r7, #4]
     796:	69db      	ldr	r3, [r3, #28]
     798:	2bff      	cmp	r3, #255	; 0xff
     79a:	dc04      	bgt.n	7a6 <_adc_set_config+0x2aa>
     79c:	687b      	ldr	r3, [r7, #4]
     79e:	6a1b      	ldr	r3, [r3, #32]
     7a0:	2bff      	cmp	r3, #255	; 0xff
     7a2:	dc00      	bgt.n	7a6 <_adc_set_config+0x2aa>
     7a4:	e08c      	b.n	8c0 <_adc_set_config+0x3c4>
     7a6:	2317      	movs	r3, #23
     7a8:	e11b      	b.n	9e2 <_adc_set_config+0x4e6>
     7aa:	687b      	ldr	r3, [r7, #4]
     7ac:	7adb      	ldrb	r3, [r3, #11]
     7ae:	2b00      	cmp	r3, #0
     7b0:	d015      	beq.n	7de <_adc_set_config+0x2e2>
     7b2:	687b      	ldr	r3, [r7, #4]
     7b4:	69db      	ldr	r3, [r3, #28]
     7b6:	4a29      	ldr	r2, [pc, #164]	; (85c <_adc_set_config+0x360>)
     7b8:	4293      	cmp	r3, r2
     7ba:	dc0e      	bgt.n	7da <_adc_set_config+0x2de>
     7bc:	687b      	ldr	r3, [r7, #4]
     7be:	69db      	ldr	r3, [r3, #28]
     7c0:	4a27      	ldr	r2, [pc, #156]	; (860 <_adc_set_config+0x364>)
     7c2:	4293      	cmp	r3, r2
     7c4:	db09      	blt.n	7da <_adc_set_config+0x2de>
     7c6:	687b      	ldr	r3, [r7, #4]
     7c8:	6a1b      	ldr	r3, [r3, #32]
     7ca:	4a24      	ldr	r2, [pc, #144]	; (85c <_adc_set_config+0x360>)
     7cc:	4293      	cmp	r3, r2
     7ce:	dc04      	bgt.n	7da <_adc_set_config+0x2de>
     7d0:	687b      	ldr	r3, [r7, #4]
     7d2:	6a1b      	ldr	r3, [r3, #32]
     7d4:	4a22      	ldr	r2, [pc, #136]	; (860 <_adc_set_config+0x364>)
     7d6:	4293      	cmp	r3, r2
     7d8:	da01      	bge.n	7de <_adc_set_config+0x2e2>
     7da:	2317      	movs	r3, #23
     7dc:	e101      	b.n	9e2 <_adc_set_config+0x4e6>
     7de:	687b      	ldr	r3, [r7, #4]
     7e0:	69db      	ldr	r3, [r3, #28]
     7e2:	4a20      	ldr	r2, [pc, #128]	; (864 <_adc_set_config+0x368>)
     7e4:	4293      	cmp	r3, r2
     7e6:	dc05      	bgt.n	7f4 <_adc_set_config+0x2f8>
     7e8:	687b      	ldr	r3, [r7, #4]
     7ea:	6a1b      	ldr	r3, [r3, #32]
     7ec:	4a1d      	ldr	r2, [pc, #116]	; (864 <_adc_set_config+0x368>)
     7ee:	4293      	cmp	r3, r2
     7f0:	dc00      	bgt.n	7f4 <_adc_set_config+0x2f8>
     7f2:	e067      	b.n	8c4 <_adc_set_config+0x3c8>
     7f4:	2317      	movs	r3, #23
     7f6:	e0f4      	b.n	9e2 <_adc_set_config+0x4e6>
     7f8:	687b      	ldr	r3, [r7, #4]
     7fa:	7adb      	ldrb	r3, [r3, #11]
     7fc:	2b00      	cmp	r3, #0
     7fe:	d015      	beq.n	82c <_adc_set_config+0x330>
     800:	687b      	ldr	r3, [r7, #4]
     802:	69db      	ldr	r3, [r3, #28]
     804:	4a18      	ldr	r2, [pc, #96]	; (868 <_adc_set_config+0x36c>)
     806:	4293      	cmp	r3, r2
     808:	dc0e      	bgt.n	828 <_adc_set_config+0x32c>
     80a:	687b      	ldr	r3, [r7, #4]
     80c:	69db      	ldr	r3, [r3, #28]
     80e:	4a17      	ldr	r2, [pc, #92]	; (86c <_adc_set_config+0x370>)
     810:	4293      	cmp	r3, r2
     812:	db09      	blt.n	828 <_adc_set_config+0x32c>
     814:	687b      	ldr	r3, [r7, #4]
     816:	6a1b      	ldr	r3, [r3, #32]
     818:	4a13      	ldr	r2, [pc, #76]	; (868 <_adc_set_config+0x36c>)
     81a:	4293      	cmp	r3, r2
     81c:	dc04      	bgt.n	828 <_adc_set_config+0x32c>
     81e:	687b      	ldr	r3, [r7, #4]
     820:	6a1b      	ldr	r3, [r3, #32]
     822:	4a12      	ldr	r2, [pc, #72]	; (86c <_adc_set_config+0x370>)
     824:	4293      	cmp	r3, r2
     826:	da01      	bge.n	82c <_adc_set_config+0x330>
     828:	2317      	movs	r3, #23
     82a:	e0da      	b.n	9e2 <_adc_set_config+0x4e6>
     82c:	687b      	ldr	r3, [r7, #4]
     82e:	69db      	ldr	r3, [r3, #28]
     830:	4a0f      	ldr	r2, [pc, #60]	; (870 <_adc_set_config+0x374>)
     832:	4293      	cmp	r3, r2
     834:	dc04      	bgt.n	840 <_adc_set_config+0x344>
     836:	687b      	ldr	r3, [r7, #4]
     838:	6a1b      	ldr	r3, [r3, #32]
     83a:	4a0d      	ldr	r2, [pc, #52]	; (870 <_adc_set_config+0x374>)
     83c:	4293      	cmp	r3, r2
     83e:	dd43      	ble.n	8c8 <_adc_set_config+0x3cc>
     840:	2317      	movs	r3, #23
     842:	e0ce      	b.n	9e2 <_adc_set_config+0x4e6>
     844:	00000269 	.word	0x00000269
     848:	0000484d 	.word	0x0000484d
     84c:	0000488d 	.word	0x0000488d
     850:	0000047d 	.word	0x0000047d
     854:	00007330 	.word	0x00007330
     858:	00000365 	.word	0x00000365
     85c:	000001ff 	.word	0x000001ff
     860:	fffffe00 	.word	0xfffffe00
     864:	000003ff 	.word	0x000003ff
     868:	000007ff 	.word	0x000007ff
     86c:	fffff800 	.word	0xfffff800
     870:	00000fff 	.word	0x00000fff
     874:	687b      	ldr	r3, [r7, #4]
     876:	7adb      	ldrb	r3, [r3, #11]
     878:	2b00      	cmp	r3, #0
     87a:	d015      	beq.n	8a8 <_adc_set_config+0x3ac>
     87c:	687b      	ldr	r3, [r7, #4]
     87e:	69db      	ldr	r3, [r3, #28]
     880:	4a5a      	ldr	r2, [pc, #360]	; (9ec <_adc_set_config+0x4f0>)
     882:	4293      	cmp	r3, r2
     884:	dc0e      	bgt.n	8a4 <_adc_set_config+0x3a8>
     886:	687b      	ldr	r3, [r7, #4]
     888:	69db      	ldr	r3, [r3, #28]
     88a:	4a59      	ldr	r2, [pc, #356]	; (9f0 <_adc_set_config+0x4f4>)
     88c:	4293      	cmp	r3, r2
     88e:	db09      	blt.n	8a4 <_adc_set_config+0x3a8>
     890:	687b      	ldr	r3, [r7, #4]
     892:	6a1b      	ldr	r3, [r3, #32]
     894:	4a55      	ldr	r2, [pc, #340]	; (9ec <_adc_set_config+0x4f0>)
     896:	4293      	cmp	r3, r2
     898:	dc04      	bgt.n	8a4 <_adc_set_config+0x3a8>
     89a:	687b      	ldr	r3, [r7, #4]
     89c:	6a1b      	ldr	r3, [r3, #32]
     89e:	4a54      	ldr	r2, [pc, #336]	; (9f0 <_adc_set_config+0x4f4>)
     8a0:	4293      	cmp	r3, r2
     8a2:	da01      	bge.n	8a8 <_adc_set_config+0x3ac>
     8a4:	2317      	movs	r3, #23
     8a6:	e09c      	b.n	9e2 <_adc_set_config+0x4e6>
     8a8:	687b      	ldr	r3, [r7, #4]
     8aa:	69db      	ldr	r3, [r3, #28]
     8ac:	4a51      	ldr	r2, [pc, #324]	; (9f4 <_adc_set_config+0x4f8>)
     8ae:	4293      	cmp	r3, r2
     8b0:	dc04      	bgt.n	8bc <_adc_set_config+0x3c0>
     8b2:	687b      	ldr	r3, [r7, #4]
     8b4:	6a1b      	ldr	r3, [r3, #32]
     8b6:	4a4f      	ldr	r2, [pc, #316]	; (9f4 <_adc_set_config+0x4f8>)
     8b8:	4293      	cmp	r3, r2
     8ba:	dd07      	ble.n	8cc <_adc_set_config+0x3d0>
     8bc:	2317      	movs	r3, #23
     8be:	e090      	b.n	9e2 <_adc_set_config+0x4e6>
     8c0:	46c0      	nop			; (mov r8, r8)
     8c2:	e004      	b.n	8ce <_adc_set_config+0x3d2>
     8c4:	46c0      	nop			; (mov r8, r8)
     8c6:	e002      	b.n	8ce <_adc_set_config+0x3d2>
     8c8:	46c0      	nop			; (mov r8, r8)
     8ca:	e000      	b.n	8ce <_adc_set_config+0x3d2>
     8cc:	46c0      	nop			; (mov r8, r8)
     8ce:	69bb      	ldr	r3, [r7, #24]
     8d0:	895b      	ldrh	r3, [r3, #10]
     8d2:	b29a      	uxth	r2, r3
     8d4:	687b      	ldr	r3, [r7, #4]
     8d6:	8b1b      	ldrh	r3, [r3, #24]
     8d8:	4313      	orrs	r3, r2
     8da:	b29a      	uxth	r2, r3
     8dc:	69bb      	ldr	r3, [r7, #24]
     8de:	815a      	strh	r2, [r3, #10]
     8e0:	46c0      	nop			; (mov r8, r8)
     8e2:	68bb      	ldr	r3, [r7, #8]
     8e4:	0018      	movs	r0, r3
     8e6:	4b44      	ldr	r3, [pc, #272]	; (9f8 <_adc_set_config+0x4fc>)
     8e8:	4798      	blx	r3
     8ea:	1e03      	subs	r3, r0, #0
     8ec:	d1f9      	bne.n	8e2 <_adc_set_config+0x3e6>
     8ee:	687b      	ldr	r3, [r7, #4]
     8f0:	69db      	ldr	r3, [r3, #28]
     8f2:	b29a      	uxth	r2, r3
     8f4:	69bb      	ldr	r3, [r7, #24]
     8f6:	81da      	strh	r2, [r3, #14]
     8f8:	46c0      	nop			; (mov r8, r8)
     8fa:	68bb      	ldr	r3, [r7, #8]
     8fc:	0018      	movs	r0, r3
     8fe:	4b3e      	ldr	r3, [pc, #248]	; (9f8 <_adc_set_config+0x4fc>)
     900:	4798      	blx	r3
     902:	1e03      	subs	r3, r0, #0
     904:	d1f9      	bne.n	8fa <_adc_set_config+0x3fe>
     906:	687b      	ldr	r3, [r7, #4]
     908:	6a1b      	ldr	r3, [r3, #32]
     90a:	b29a      	uxth	r2, r3
     90c:	69bb      	ldr	r3, [r7, #24]
     90e:	821a      	strh	r2, [r3, #16]
     910:	46c0      	nop			; (mov r8, r8)
     912:	68bb      	ldr	r3, [r7, #8]
     914:	0018      	movs	r0, r3
     916:	4b38      	ldr	r3, [pc, #224]	; (9f8 <_adc_set_config+0x4fc>)
     918:	4798      	blx	r3
     91a:	1e03      	subs	r3, r0, #0
     91c:	d1f9      	bne.n	912 <_adc_set_config+0x416>
     91e:	687b      	ldr	r3, [r7, #4]
     920:	88da      	ldrh	r2, [r3, #6]
     922:	687b      	ldr	r3, [r7, #4]
     924:	791b      	ldrb	r3, [r3, #4]
     926:	b29b      	uxth	r3, r3
     928:	4313      	orrs	r3, r2
     92a:	b29a      	uxth	r2, r3
     92c:	69bb      	ldr	r3, [r7, #24]
     92e:	811a      	strh	r2, [r3, #8]
     930:	46c0      	nop			; (mov r8, r8)
     932:	68bb      	ldr	r3, [r7, #8]
     934:	0018      	movs	r0, r3
     936:	4b30      	ldr	r3, [pc, #192]	; (9f8 <_adc_set_config+0x4fc>)
     938:	4798      	blx	r3
     93a:	1e03      	subs	r3, r0, #0
     93c:	d1f9      	bne.n	932 <_adc_set_config+0x436>
     93e:	687b      	ldr	r3, [r7, #4]
     940:	222a      	movs	r2, #42	; 0x2a
     942:	5c9a      	ldrb	r2, [r3, r2]
     944:	69bb      	ldr	r3, [r7, #24]
     946:	70da      	strb	r2, [r3, #3]
     948:	69bb      	ldr	r3, [r7, #24]
     94a:	2207      	movs	r2, #7
     94c:	711a      	strb	r2, [r3, #4]
     94e:	687b      	ldr	r3, [r7, #4]
     950:	2224      	movs	r2, #36	; 0x24
     952:	5c9b      	ldrb	r3, [r3, r2]
     954:	2b00      	cmp	r3, #0
     956:	d02c      	beq.n	9b2 <_adc_set_config+0x4b6>
     958:	687b      	ldr	r3, [r7, #4]
     95a:	8cdb      	ldrh	r3, [r3, #38]	; 0x26
     95c:	4a27      	ldr	r2, [pc, #156]	; (9fc <_adc_set_config+0x500>)
     95e:	4293      	cmp	r3, r2
     960:	d901      	bls.n	966 <_adc_set_config+0x46a>
     962:	2317      	movs	r3, #23
     964:	e03d      	b.n	9e2 <_adc_set_config+0x4e6>
     966:	687b      	ldr	r3, [r7, #4]
     968:	8cda      	ldrh	r2, [r3, #38]	; 0x26
     96a:	69bb      	ldr	r3, [r7, #24]
     96c:	825a      	strh	r2, [r3, #18]
     96e:	46c0      	nop			; (mov r8, r8)
     970:	68bb      	ldr	r3, [r7, #8]
     972:	0018      	movs	r0, r3
     974:	4b20      	ldr	r3, [pc, #128]	; (9f8 <_adc_set_config+0x4fc>)
     976:	4798      	blx	r3
     978:	1e03      	subs	r3, r0, #0
     97a:	d1f9      	bne.n	970 <_adc_set_config+0x474>
     97c:	687b      	ldr	r3, [r7, #4]
     97e:	2228      	movs	r2, #40	; 0x28
     980:	5e9b      	ldrsh	r3, [r3, r2]
     982:	4a1f      	ldr	r2, [pc, #124]	; (a00 <_adc_set_config+0x504>)
     984:	4293      	cmp	r3, r2
     986:	dc05      	bgt.n	994 <_adc_set_config+0x498>
     988:	687b      	ldr	r3, [r7, #4]
     98a:	2228      	movs	r2, #40	; 0x28
     98c:	5e9b      	ldrsh	r3, [r3, r2]
     98e:	4a1d      	ldr	r2, [pc, #116]	; (a04 <_adc_set_config+0x508>)
     990:	4293      	cmp	r3, r2
     992:	da01      	bge.n	998 <_adc_set_config+0x49c>
     994:	2317      	movs	r3, #23
     996:	e024      	b.n	9e2 <_adc_set_config+0x4e6>
     998:	687b      	ldr	r3, [r7, #4]
     99a:	2228      	movs	r2, #40	; 0x28
     99c:	5e9b      	ldrsh	r3, [r3, r2]
     99e:	b29a      	uxth	r2, r3
     9a0:	69bb      	ldr	r3, [r7, #24]
     9a2:	829a      	strh	r2, [r3, #20]
     9a4:	46c0      	nop			; (mov r8, r8)
     9a6:	68bb      	ldr	r3, [r7, #8]
     9a8:	0018      	movs	r0, r3
     9aa:	4b13      	ldr	r3, [pc, #76]	; (9f8 <_adc_set_config+0x4fc>)
     9ac:	4798      	blx	r3
     9ae:	1e03      	subs	r3, r0, #0
     9b0:	d1f9      	bne.n	9a6 <_adc_set_config+0x4aa>
     9b2:	4b15      	ldr	r3, [pc, #84]	; (a08 <_adc_set_config+0x50c>)
     9b4:	681b      	ldr	r3, [r3, #0]
     9b6:	2200      	movs	r2, #0
     9b8:	40d3      	lsrs	r3, r2
     9ba:	b29b      	uxth	r3, r3
     9bc:	021b      	lsls	r3, r3, #8
     9be:	b29a      	uxth	r2, r3
     9c0:	23e0      	movs	r3, #224	; 0xe0
     9c2:	00db      	lsls	r3, r3, #3
     9c4:	4013      	ands	r3, r2
     9c6:	b29a      	uxth	r2, r3
     9c8:	4b0f      	ldr	r3, [pc, #60]	; (a08 <_adc_set_config+0x50c>)
     9ca:	681b      	ldr	r3, [r3, #0]
     9cc:	2103      	movs	r1, #3
     9ce:	40cb      	lsrs	r3, r1
     9d0:	b29b      	uxth	r3, r3
     9d2:	2107      	movs	r1, #7
     9d4:	400b      	ands	r3, r1
     9d6:	b29b      	uxth	r3, r3
     9d8:	4313      	orrs	r3, r2
     9da:	b29a      	uxth	r2, r3
     9dc:	69bb      	ldr	r3, [r7, #24]
     9de:	859a      	strh	r2, [r3, #44]	; 0x2c
     9e0:	2300      	movs	r3, #0
     9e2:	0018      	movs	r0, r3
     9e4:	46bd      	mov	sp, r7
     9e6:	b00a      	add	sp, #40	; 0x28
     9e8:	bd80      	pop	{r7, pc}
     9ea:	46c0      	nop			; (mov r8, r8)
     9ec:	00007fff 	.word	0x00007fff
     9f0:	ffff8000 	.word	0xffff8000
     9f4:	0000ffff 	.word	0x0000ffff
     9f8:	00000365 	.word	0x00000365
     9fc:	00000fff 	.word	0x00000fff
     a00:	000007ff 	.word	0x000007ff
     a04:	fffff800 	.word	0xfffff800
     a08:	00806020 	.word	0x00806020

00000a0c <adc_init>:
     a0c:	b590      	push	{r4, r7, lr}
     a0e:	b087      	sub	sp, #28
     a10:	af00      	add	r7, sp, #0
     a12:	60f8      	str	r0, [r7, #12]
     a14:	60b9      	str	r1, [r7, #8]
     a16:	607a      	str	r2, [r7, #4]
     a18:	2316      	movs	r3, #22
     a1a:	18fc      	adds	r4, r7, r3
     a1c:	68bb      	ldr	r3, [r7, #8]
     a1e:	0018      	movs	r0, r3
     a20:	4b3d      	ldr	r3, [pc, #244]	; (b18 <adc_init+0x10c>)
     a22:	4798      	blx	r3
     a24:	0003      	movs	r3, r0
     a26:	7023      	strb	r3, [r4, #0]
     a28:	68fb      	ldr	r3, [r7, #12]
     a2a:	68ba      	ldr	r2, [r7, #8]
     a2c:	601a      	str	r2, [r3, #0]
     a2e:	2108      	movs	r1, #8
     a30:	2003      	movs	r0, #3
     a32:	4b3a      	ldr	r3, [pc, #232]	; (b1c <adc_init+0x110>)
     a34:	4798      	blx	r3
     a36:	68bb      	ldr	r3, [r7, #8]
     a38:	781b      	ldrb	r3, [r3, #0]
     a3a:	b2db      	uxtb	r3, r3
     a3c:	001a      	movs	r2, r3
     a3e:	2301      	movs	r3, #1
     a40:	4013      	ands	r3, r2
     a42:	d001      	beq.n	a48 <adc_init+0x3c>
     a44:	2305      	movs	r3, #5
     a46:	e062      	b.n	b0e <adc_init+0x102>
     a48:	46c0      	nop			; (mov r8, r8)
     a4a:	68fb      	ldr	r3, [r7, #12]
     a4c:	0018      	movs	r0, r3
     a4e:	4b34      	ldr	r3, [pc, #208]	; (b20 <adc_init+0x114>)
     a50:	4798      	blx	r3
     a52:	1e03      	subs	r3, r0, #0
     a54:	d1f9      	bne.n	a4a <adc_init+0x3e>
     a56:	68bb      	ldr	r3, [r7, #8]
     a58:	781b      	ldrb	r3, [r3, #0]
     a5a:	b2db      	uxtb	r3, r3
     a5c:	001a      	movs	r2, r3
     a5e:	2302      	movs	r3, #2
     a60:	4013      	ands	r3, r2
     a62:	d001      	beq.n	a68 <adc_init+0x5c>
     a64:	231c      	movs	r3, #28
     a66:	e052      	b.n	b0e <adc_init+0x102>
     a68:	687b      	ldr	r3, [r7, #4]
     a6a:	785a      	ldrb	r2, [r3, #1]
     a6c:	68fb      	ldr	r3, [r7, #12]
     a6e:	711a      	strb	r2, [r3, #4]
     a70:	68fb      	ldr	r3, [r7, #12]
     a72:	791b      	ldrb	r3, [r3, #4]
     a74:	2b00      	cmp	r3, #0
     a76:	d102      	bne.n	a7e <adc_init+0x72>
     a78:	2001      	movs	r0, #1
     a7a:	4b2a      	ldr	r3, [pc, #168]	; (b24 <adc_init+0x118>)
     a7c:	4798      	blx	r3
     a7e:	2317      	movs	r3, #23
     a80:	18fb      	adds	r3, r7, r3
     a82:	2200      	movs	r2, #0
     a84:	701a      	strb	r2, [r3, #0]
     a86:	e00e      	b.n	aa6 <adc_init+0x9a>
     a88:	2317      	movs	r3, #23
     a8a:	18fb      	adds	r3, r7, r3
     a8c:	781a      	ldrb	r2, [r3, #0]
     a8e:	68fb      	ldr	r3, [r7, #12]
     a90:	3202      	adds	r2, #2
     a92:	0092      	lsls	r2, r2, #2
     a94:	2100      	movs	r1, #0
     a96:	50d1      	str	r1, [r2, r3]
     a98:	2317      	movs	r3, #23
     a9a:	18fb      	adds	r3, r7, r3
     a9c:	781a      	ldrb	r2, [r3, #0]
     a9e:	2317      	movs	r3, #23
     aa0:	18fb      	adds	r3, r7, r3
     aa2:	3201      	adds	r2, #1
     aa4:	701a      	strb	r2, [r3, #0]
     aa6:	2317      	movs	r3, #23
     aa8:	18fb      	adds	r3, r7, r3
     aaa:	781b      	ldrb	r3, [r3, #0]
     aac:	2b02      	cmp	r3, #2
     aae:	d9eb      	bls.n	a88 <adc_init+0x7c>
     ab0:	68fb      	ldr	r3, [r7, #12]
     ab2:	2200      	movs	r2, #0
     ab4:	769a      	strb	r2, [r3, #26]
     ab6:	68fb      	ldr	r3, [r7, #12]
     ab8:	2200      	movs	r2, #0
     aba:	76da      	strb	r2, [r3, #27]
     abc:	68fb      	ldr	r3, [r7, #12]
     abe:	2200      	movs	r2, #0
     ac0:	831a      	strh	r2, [r3, #24]
     ac2:	68fb      	ldr	r3, [r7, #12]
     ac4:	2200      	movs	r2, #0
     ac6:	771a      	strb	r2, [r3, #28]
     ac8:	2316      	movs	r3, #22
     aca:	18fb      	adds	r3, r7, r3
     acc:	781a      	ldrb	r2, [r3, #0]
     ace:	4b16      	ldr	r3, [pc, #88]	; (b28 <adc_init+0x11c>)
     ad0:	0092      	lsls	r2, r2, #2
     ad2:	68f9      	ldr	r1, [r7, #12]
     ad4:	50d1      	str	r1, [r2, r3]
     ad6:	687b      	ldr	r3, [r7, #4]
     ad8:	222a      	movs	r2, #42	; 0x2a
     ada:	5c9b      	ldrb	r3, [r3, r2]
     adc:	2b00      	cmp	r3, #0
     ade:	d10a      	bne.n	af6 <adc_init+0xea>
     ae0:	687b      	ldr	r3, [r7, #4]
     ae2:	7b1b      	ldrb	r3, [r3, #12]
     ae4:	2201      	movs	r2, #1
     ae6:	4053      	eors	r3, r2
     ae8:	b2db      	uxtb	r3, r3
     aea:	2b00      	cmp	r3, #0
     aec:	d003      	beq.n	af6 <adc_init+0xea>
     aee:	68fb      	ldr	r3, [r7, #12]
     af0:	2201      	movs	r2, #1
     af2:	775a      	strb	r2, [r3, #29]
     af4:	e002      	b.n	afc <adc_init+0xf0>
     af6:	68fb      	ldr	r3, [r7, #12]
     af8:	2200      	movs	r2, #0
     afa:	775a      	strb	r2, [r3, #29]
     afc:	687a      	ldr	r2, [r7, #4]
     afe:	68f9      	ldr	r1, [r7, #12]
     b00:	2316      	movs	r3, #22
     b02:	18fb      	adds	r3, r7, r3
     b04:	781b      	ldrb	r3, [r3, #0]
     b06:	0018      	movs	r0, r3
     b08:	4b08      	ldr	r3, [pc, #32]	; (b2c <adc_init+0x120>)
     b0a:	4798      	blx	r3
     b0c:	0003      	movs	r3, r0
     b0e:	0018      	movs	r0, r3
     b10:	46bd      	mov	sp, r7
     b12:	b007      	add	sp, #28
     b14:	bd90      	pop	{r4, r7, pc}
     b16:	46c0      	nop			; (mov r8, r8)
     b18:	0000038d 	.word	0x0000038d
     b1c:	00000281 	.word	0x00000281
     b20:	00000365 	.word	0x00000365
     b24:	00000325 	.word	0x00000325
     b28:	20000184 	.word	0x20000184
     b2c:	000004fd 	.word	0x000004fd

00000b30 <adc_is_syncing>:
     b30:	b580      	push	{r7, lr}
     b32:	b084      	sub	sp, #16
     b34:	af00      	add	r7, sp, #0
     b36:	6078      	str	r0, [r7, #4]
     b38:	687b      	ldr	r3, [r7, #4]
     b3a:	681b      	ldr	r3, [r3, #0]
     b3c:	60fb      	str	r3, [r7, #12]
     b3e:	68fb      	ldr	r3, [r7, #12]
     b40:	8c1b      	ldrh	r3, [r3, #32]
     b42:	b29b      	uxth	r3, r3
     b44:	2b00      	cmp	r3, #0
     b46:	d001      	beq.n	b4c <adc_is_syncing+0x1c>
     b48:	2301      	movs	r3, #1
     b4a:	e000      	b.n	b4e <adc_is_syncing+0x1e>
     b4c:	2300      	movs	r3, #0
     b4e:	0018      	movs	r0, r3
     b50:	46bd      	mov	sp, r7
     b52:	b004      	add	sp, #16
     b54:	bd80      	pop	{r7, pc}
	...

00000b58 <adc_start_conversion>:
     b58:	b580      	push	{r7, lr}
     b5a:	b084      	sub	sp, #16
     b5c:	af00      	add	r7, sp, #0
     b5e:	6078      	str	r0, [r7, #4]
     b60:	687b      	ldr	r3, [r7, #4]
     b62:	681b      	ldr	r3, [r3, #0]
     b64:	60fb      	str	r3, [r7, #12]
     b66:	46c0      	nop			; (mov r8, r8)
     b68:	687b      	ldr	r3, [r7, #4]
     b6a:	0018      	movs	r0, r3
     b6c:	4b0b      	ldr	r3, [pc, #44]	; (b9c <adc_start_conversion+0x44>)
     b6e:	4798      	blx	r3
     b70:	1e03      	subs	r3, r0, #0
     b72:	d1f9      	bne.n	b68 <adc_start_conversion+0x10>
     b74:	68fb      	ldr	r3, [r7, #12]
     b76:	7e1b      	ldrb	r3, [r3, #24]
     b78:	b2db      	uxtb	r3, r3
     b7a:	2202      	movs	r2, #2
     b7c:	4313      	orrs	r3, r2
     b7e:	b2da      	uxtb	r2, r3
     b80:	68fb      	ldr	r3, [r7, #12]
     b82:	761a      	strb	r2, [r3, #24]
     b84:	46c0      	nop			; (mov r8, r8)
     b86:	687b      	ldr	r3, [r7, #4]
     b88:	0018      	movs	r0, r3
     b8a:	4b04      	ldr	r3, [pc, #16]	; (b9c <adc_start_conversion+0x44>)
     b8c:	4798      	blx	r3
     b8e:	1e03      	subs	r3, r0, #0
     b90:	d1f9      	bne.n	b86 <adc_start_conversion+0x2e>
     b92:	46c0      	nop			; (mov r8, r8)
     b94:	46bd      	mov	sp, r7
     b96:	b004      	add	sp, #16
     b98:	bd80      	pop	{r7, pc}
     b9a:	46c0      	nop			; (mov r8, r8)
     b9c:	00000b31 	.word	0x00000b31

00000ba0 <adc_disable_interrupt>:
     ba0:	b580      	push	{r7, lr}
     ba2:	b084      	sub	sp, #16
     ba4:	af00      	add	r7, sp, #0
     ba6:	6078      	str	r0, [r7, #4]
     ba8:	000a      	movs	r2, r1
     baa:	1cfb      	adds	r3, r7, #3
     bac:	701a      	strb	r2, [r3, #0]
     bae:	687b      	ldr	r3, [r7, #4]
     bb0:	681b      	ldr	r3, [r3, #0]
     bb2:	60fb      	str	r3, [r7, #12]
     bb4:	68fb      	ldr	r3, [r7, #12]
     bb6:	1cfa      	adds	r2, r7, #3
     bb8:	7812      	ldrb	r2, [r2, #0]
     bba:	711a      	strb	r2, [r3, #4]
     bbc:	46c0      	nop			; (mov r8, r8)
     bbe:	46bd      	mov	sp, r7
     bc0:	b004      	add	sp, #16
     bc2:	bd80      	pop	{r7, pc}

00000bc4 <_adc_interrupt_handler>:
     bc4:	b580      	push	{r7, lr}
     bc6:	b084      	sub	sp, #16
     bc8:	af00      	add	r7, sp, #0
     bca:	0002      	movs	r2, r0
     bcc:	1dfb      	adds	r3, r7, #7
     bce:	701a      	strb	r2, [r3, #0]
     bd0:	1dfb      	adds	r3, r7, #7
     bd2:	781a      	ldrb	r2, [r3, #0]
     bd4:	4b47      	ldr	r3, [pc, #284]	; (cf4 <_adc_interrupt_handler+0x130>)
     bd6:	0092      	lsls	r2, r2, #2
     bd8:	58d3      	ldr	r3, [r2, r3]
     bda:	60fb      	str	r3, [r7, #12]
     bdc:	68fb      	ldr	r3, [r7, #12]
     bde:	681b      	ldr	r3, [r3, #0]
     be0:	799b      	ldrb	r3, [r3, #6]
     be2:	b2da      	uxtb	r2, r3
     be4:	68fb      	ldr	r3, [r7, #12]
     be6:	681b      	ldr	r3, [r3, #0]
     be8:	795b      	ldrb	r3, [r3, #5]
     bea:	b2db      	uxtb	r3, r3
     bec:	4013      	ands	r3, r2
     bee:	b2db      	uxtb	r3, r3
     bf0:	60bb      	str	r3, [r7, #8]
     bf2:	68bb      	ldr	r3, [r7, #8]
     bf4:	2201      	movs	r2, #1
     bf6:	4013      	ands	r3, r2
     bf8:	d045      	beq.n	c86 <_adc_interrupt_handler+0xc2>
     bfa:	68fb      	ldr	r3, [r7, #12]
     bfc:	681b      	ldr	r3, [r3, #0]
     bfe:	2201      	movs	r2, #1
     c00:	719a      	strb	r2, [r3, #6]
     c02:	68fb      	ldr	r3, [r7, #12]
     c04:	695b      	ldr	r3, [r3, #20]
     c06:	1c99      	adds	r1, r3, #2
     c08:	68fa      	ldr	r2, [r7, #12]
     c0a:	6151      	str	r1, [r2, #20]
     c0c:	68fa      	ldr	r2, [r7, #12]
     c0e:	6812      	ldr	r2, [r2, #0]
     c10:	8c92      	ldrh	r2, [r2, #36]	; 0x24
     c12:	b292      	uxth	r2, r2
     c14:	801a      	strh	r2, [r3, #0]
     c16:	68fb      	ldr	r3, [r7, #12]
     c18:	8b1b      	ldrh	r3, [r3, #24]
     c1a:	b29b      	uxth	r3, r3
     c1c:	3b01      	subs	r3, #1
     c1e:	b29b      	uxth	r3, r3
     c20:	68fa      	ldr	r2, [r7, #12]
     c22:	1c19      	adds	r1, r3, #0
     c24:	8311      	strh	r1, [r2, #24]
     c26:	2b00      	cmp	r3, #0
     c28:	d00f      	beq.n	c4a <_adc_interrupt_handler+0x86>
     c2a:	68fb      	ldr	r3, [r7, #12]
     c2c:	7f5b      	ldrb	r3, [r3, #29]
     c2e:	2b00      	cmp	r3, #0
     c30:	d029      	beq.n	c86 <_adc_interrupt_handler+0xc2>
     c32:	68fb      	ldr	r3, [r7, #12]
     c34:	681b      	ldr	r3, [r3, #0]
     c36:	79db      	ldrb	r3, [r3, #7]
     c38:	b2db      	uxtb	r3, r3
     c3a:	b25b      	sxtb	r3, r3
     c3c:	2b00      	cmp	r3, #0
     c3e:	db22      	blt.n	c86 <_adc_interrupt_handler+0xc2>
     c40:	68fb      	ldr	r3, [r7, #12]
     c42:	0018      	movs	r0, r3
     c44:	4b2c      	ldr	r3, [pc, #176]	; (cf8 <_adc_interrupt_handler+0x134>)
     c46:	4798      	blx	r3
     c48:	e01d      	b.n	c86 <_adc_interrupt_handler+0xc2>
     c4a:	68fb      	ldr	r3, [r7, #12]
     c4c:	2101      	movs	r1, #1
     c4e:	0018      	movs	r0, r3
     c50:	4b2a      	ldr	r3, [pc, #168]	; (cfc <_adc_interrupt_handler+0x138>)
     c52:	4798      	blx	r3
     c54:	68fb      	ldr	r3, [r7, #12]
     c56:	7f1b      	ldrb	r3, [r3, #28]
     c58:	b2db      	uxtb	r3, r3
     c5a:	2b05      	cmp	r3, #5
     c5c:	d113      	bne.n	c86 <_adc_interrupt_handler+0xc2>
     c5e:	68fb      	ldr	r3, [r7, #12]
     c60:	2200      	movs	r2, #0
     c62:	771a      	strb	r2, [r3, #28]
     c64:	68fb      	ldr	r3, [r7, #12]
     c66:	7edb      	ldrb	r3, [r3, #27]
     c68:	001a      	movs	r2, r3
     c6a:	2301      	movs	r3, #1
     c6c:	4013      	ands	r3, r2
     c6e:	d00a      	beq.n	c86 <_adc_interrupt_handler+0xc2>
     c70:	68fb      	ldr	r3, [r7, #12]
     c72:	7e9b      	ldrb	r3, [r3, #26]
     c74:	001a      	movs	r2, r3
     c76:	2301      	movs	r3, #1
     c78:	4013      	ands	r3, r2
     c7a:	d004      	beq.n	c86 <_adc_interrupt_handler+0xc2>
     c7c:	68fb      	ldr	r3, [r7, #12]
     c7e:	689b      	ldr	r3, [r3, #8]
     c80:	68fa      	ldr	r2, [r7, #12]
     c82:	0010      	movs	r0, r2
     c84:	4798      	blx	r3
     c86:	68bb      	ldr	r3, [r7, #8]
     c88:	2204      	movs	r2, #4
     c8a:	4013      	ands	r3, r2
     c8c:	d014      	beq.n	cb8 <_adc_interrupt_handler+0xf4>
     c8e:	68fb      	ldr	r3, [r7, #12]
     c90:	681b      	ldr	r3, [r3, #0]
     c92:	2204      	movs	r2, #4
     c94:	719a      	strb	r2, [r3, #6]
     c96:	68fb      	ldr	r3, [r7, #12]
     c98:	7edb      	ldrb	r3, [r3, #27]
     c9a:	001a      	movs	r2, r3
     c9c:	2302      	movs	r3, #2
     c9e:	4013      	ands	r3, r2
     ca0:	d00a      	beq.n	cb8 <_adc_interrupt_handler+0xf4>
     ca2:	68fb      	ldr	r3, [r7, #12]
     ca4:	7e9b      	ldrb	r3, [r3, #26]
     ca6:	001a      	movs	r2, r3
     ca8:	2302      	movs	r3, #2
     caa:	4013      	ands	r3, r2
     cac:	d004      	beq.n	cb8 <_adc_interrupt_handler+0xf4>
     cae:	68fb      	ldr	r3, [r7, #12]
     cb0:	68db      	ldr	r3, [r3, #12]
     cb2:	68fa      	ldr	r2, [r7, #12]
     cb4:	0010      	movs	r0, r2
     cb6:	4798      	blx	r3
     cb8:	68bb      	ldr	r3, [r7, #8]
     cba:	2202      	movs	r2, #2
     cbc:	4013      	ands	r3, r2
     cbe:	d014      	beq.n	cea <_adc_interrupt_handler+0x126>
     cc0:	68fb      	ldr	r3, [r7, #12]
     cc2:	681b      	ldr	r3, [r3, #0]
     cc4:	2202      	movs	r2, #2
     cc6:	719a      	strb	r2, [r3, #6]
     cc8:	68fb      	ldr	r3, [r7, #12]
     cca:	7edb      	ldrb	r3, [r3, #27]
     ccc:	001a      	movs	r2, r3
     cce:	2304      	movs	r3, #4
     cd0:	4013      	ands	r3, r2
     cd2:	d00a      	beq.n	cea <_adc_interrupt_handler+0x126>
     cd4:	68fb      	ldr	r3, [r7, #12]
     cd6:	7e9b      	ldrb	r3, [r3, #26]
     cd8:	001a      	movs	r2, r3
     cda:	2304      	movs	r3, #4
     cdc:	4013      	ands	r3, r2
     cde:	d004      	beq.n	cea <_adc_interrupt_handler+0x126>
     ce0:	68fb      	ldr	r3, [r7, #12]
     ce2:	691b      	ldr	r3, [r3, #16]
     ce4:	68fa      	ldr	r2, [r7, #12]
     ce6:	0010      	movs	r0, r2
     ce8:	4798      	blx	r3
     cea:	46c0      	nop			; (mov r8, r8)
     cec:	46bd      	mov	sp, r7
     cee:	b004      	add	sp, #16
     cf0:	bd80      	pop	{r7, pc}
     cf2:	46c0      	nop			; (mov r8, r8)
     cf4:	20000184 	.word	0x20000184
     cf8:	00000b59 	.word	0x00000b59
     cfc:	00000ba1 	.word	0x00000ba1

00000d00 <ADC_Handler>:
     d00:	b580      	push	{r7, lr}
     d02:	af00      	add	r7, sp, #0
     d04:	2000      	movs	r0, #0
     d06:	4b02      	ldr	r3, [pc, #8]	; (d10 <ADC_Handler+0x10>)
     d08:	4798      	blx	r3
     d0a:	46c0      	nop			; (mov r8, r8)
     d0c:	46bd      	mov	sp, r7
     d0e:	bd80      	pop	{r7, pc}
     d10:	00000bc5 	.word	0x00000bc5

00000d14 <system_apb_clock_set_mask>:
     d14:	b580      	push	{r7, lr}
     d16:	b082      	sub	sp, #8
     d18:	af00      	add	r7, sp, #0
     d1a:	0002      	movs	r2, r0
     d1c:	6039      	str	r1, [r7, #0]
     d1e:	1dfb      	adds	r3, r7, #7
     d20:	701a      	strb	r2, [r3, #0]
     d22:	1dfb      	adds	r3, r7, #7
     d24:	781b      	ldrb	r3, [r3, #0]
     d26:	2b04      	cmp	r3, #4
     d28:	d827      	bhi.n	d7a <system_apb_clock_set_mask+0x66>
     d2a:	009a      	lsls	r2, r3, #2
     d2c:	4b16      	ldr	r3, [pc, #88]	; (d88 <system_apb_clock_set_mask+0x74>)
     d2e:	18d3      	adds	r3, r2, r3
     d30:	681b      	ldr	r3, [r3, #0]
     d32:	469f      	mov	pc, r3
     d34:	4b15      	ldr	r3, [pc, #84]	; (d8c <system_apb_clock_set_mask+0x78>)
     d36:	4a15      	ldr	r2, [pc, #84]	; (d8c <system_apb_clock_set_mask+0x78>)
     d38:	6951      	ldr	r1, [r2, #20]
     d3a:	683a      	ldr	r2, [r7, #0]
     d3c:	430a      	orrs	r2, r1
     d3e:	615a      	str	r2, [r3, #20]
     d40:	e01d      	b.n	d7e <system_apb_clock_set_mask+0x6a>
     d42:	4b12      	ldr	r3, [pc, #72]	; (d8c <system_apb_clock_set_mask+0x78>)
     d44:	4a11      	ldr	r2, [pc, #68]	; (d8c <system_apb_clock_set_mask+0x78>)
     d46:	6991      	ldr	r1, [r2, #24]
     d48:	683a      	ldr	r2, [r7, #0]
     d4a:	430a      	orrs	r2, r1
     d4c:	619a      	str	r2, [r3, #24]
     d4e:	e016      	b.n	d7e <system_apb_clock_set_mask+0x6a>
     d50:	4b0e      	ldr	r3, [pc, #56]	; (d8c <system_apb_clock_set_mask+0x78>)
     d52:	4a0e      	ldr	r2, [pc, #56]	; (d8c <system_apb_clock_set_mask+0x78>)
     d54:	69d1      	ldr	r1, [r2, #28]
     d56:	683a      	ldr	r2, [r7, #0]
     d58:	430a      	orrs	r2, r1
     d5a:	61da      	str	r2, [r3, #28]
     d5c:	e00f      	b.n	d7e <system_apb_clock_set_mask+0x6a>
     d5e:	4b0b      	ldr	r3, [pc, #44]	; (d8c <system_apb_clock_set_mask+0x78>)
     d60:	4a0a      	ldr	r2, [pc, #40]	; (d8c <system_apb_clock_set_mask+0x78>)
     d62:	6a11      	ldr	r1, [r2, #32]
     d64:	683a      	ldr	r2, [r7, #0]
     d66:	430a      	orrs	r2, r1
     d68:	621a      	str	r2, [r3, #32]
     d6a:	e008      	b.n	d7e <system_apb_clock_set_mask+0x6a>
     d6c:	4b07      	ldr	r3, [pc, #28]	; (d8c <system_apb_clock_set_mask+0x78>)
     d6e:	4a07      	ldr	r2, [pc, #28]	; (d8c <system_apb_clock_set_mask+0x78>)
     d70:	6a51      	ldr	r1, [r2, #36]	; 0x24
     d72:	683a      	ldr	r2, [r7, #0]
     d74:	430a      	orrs	r2, r1
     d76:	625a      	str	r2, [r3, #36]	; 0x24
     d78:	e001      	b.n	d7e <system_apb_clock_set_mask+0x6a>
     d7a:	2317      	movs	r3, #23
     d7c:	e000      	b.n	d80 <system_apb_clock_set_mask+0x6c>
     d7e:	2300      	movs	r3, #0
     d80:	0018      	movs	r0, r3
     d82:	46bd      	mov	sp, r7
     d84:	b002      	add	sp, #8
     d86:	bd80      	pop	{r7, pc}
     d88:	00007404 	.word	0x00007404
     d8c:	40000400 	.word	0x40000400

00000d90 <system_interrupt_enable>:
     d90:	b580      	push	{r7, lr}
     d92:	b082      	sub	sp, #8
     d94:	af00      	add	r7, sp, #0
     d96:	0002      	movs	r2, r0
     d98:	1dfb      	adds	r3, r7, #7
     d9a:	701a      	strb	r2, [r3, #0]
     d9c:	4b06      	ldr	r3, [pc, #24]	; (db8 <system_interrupt_enable+0x28>)
     d9e:	1dfa      	adds	r2, r7, #7
     da0:	7812      	ldrb	r2, [r2, #0]
     da2:	0011      	movs	r1, r2
     da4:	221f      	movs	r2, #31
     da6:	400a      	ands	r2, r1
     da8:	2101      	movs	r1, #1
     daa:	4091      	lsls	r1, r2
     dac:	000a      	movs	r2, r1
     dae:	601a      	str	r2, [r3, #0]
     db0:	46c0      	nop			; (mov r8, r8)
     db2:	46bd      	mov	sp, r7
     db4:	b002      	add	sp, #8
     db6:	bd80      	pop	{r7, pc}
     db8:	e000e100 	.word	0xe000e100

00000dbc <system_interrupt_disable>:
     dbc:	b580      	push	{r7, lr}
     dbe:	b082      	sub	sp, #8
     dc0:	af00      	add	r7, sp, #0
     dc2:	0002      	movs	r2, r0
     dc4:	1dfb      	adds	r3, r7, #7
     dc6:	701a      	strb	r2, [r3, #0]
     dc8:	4a07      	ldr	r2, [pc, #28]	; (de8 <system_interrupt_disable+0x2c>)
     dca:	1dfb      	adds	r3, r7, #7
     dcc:	781b      	ldrb	r3, [r3, #0]
     dce:	0019      	movs	r1, r3
     dd0:	231f      	movs	r3, #31
     dd2:	400b      	ands	r3, r1
     dd4:	2101      	movs	r1, #1
     dd6:	4099      	lsls	r1, r3
     dd8:	000b      	movs	r3, r1
     dda:	0019      	movs	r1, r3
     ddc:	2380      	movs	r3, #128	; 0x80
     dde:	50d1      	str	r1, [r2, r3]
     de0:	46c0      	nop			; (mov r8, r8)
     de2:	46bd      	mov	sp, r7
     de4:	b002      	add	sp, #8
     de6:	bd80      	pop	{r7, pc}
     de8:	e000e100 	.word	0xe000e100

00000dec <rtc_count_is_syncing>:
     dec:	b580      	push	{r7, lr}
     dee:	b084      	sub	sp, #16
     df0:	af00      	add	r7, sp, #0
     df2:	6078      	str	r0, [r7, #4]
     df4:	687b      	ldr	r3, [r7, #4]
     df6:	681b      	ldr	r3, [r3, #0]
     df8:	60fb      	str	r3, [r7, #12]
     dfa:	68fb      	ldr	r3, [r7, #12]
     dfc:	691b      	ldr	r3, [r3, #16]
     dfe:	2b00      	cmp	r3, #0
     e00:	d001      	beq.n	e06 <rtc_count_is_syncing+0x1a>
     e02:	2301      	movs	r3, #1
     e04:	e000      	b.n	e08 <rtc_count_is_syncing+0x1c>
     e06:	2300      	movs	r3, #0
     e08:	0018      	movs	r0, r3
     e0a:	46bd      	mov	sp, r7
     e0c:	b004      	add	sp, #16
     e0e:	bd80      	pop	{r7, pc}

00000e10 <rtc_count_enable>:
     e10:	b580      	push	{r7, lr}
     e12:	b084      	sub	sp, #16
     e14:	af00      	add	r7, sp, #0
     e16:	6078      	str	r0, [r7, #4]
     e18:	687b      	ldr	r3, [r7, #4]
     e1a:	681b      	ldr	r3, [r3, #0]
     e1c:	60fb      	str	r3, [r7, #12]
     e1e:	2002      	movs	r0, #2
     e20:	4b0d      	ldr	r3, [pc, #52]	; (e58 <rtc_count_enable+0x48>)
     e22:	4798      	blx	r3
     e24:	46c0      	nop			; (mov r8, r8)
     e26:	687b      	ldr	r3, [r7, #4]
     e28:	0018      	movs	r0, r3
     e2a:	4b0c      	ldr	r3, [pc, #48]	; (e5c <rtc_count_enable+0x4c>)
     e2c:	4798      	blx	r3
     e2e:	1e03      	subs	r3, r0, #0
     e30:	d1f9      	bne.n	e26 <rtc_count_enable+0x16>
     e32:	68fb      	ldr	r3, [r7, #12]
     e34:	881b      	ldrh	r3, [r3, #0]
     e36:	b29b      	uxth	r3, r3
     e38:	2202      	movs	r2, #2
     e3a:	4313      	orrs	r3, r2
     e3c:	b29a      	uxth	r2, r3
     e3e:	68fb      	ldr	r3, [r7, #12]
     e40:	801a      	strh	r2, [r3, #0]
     e42:	46c0      	nop			; (mov r8, r8)
     e44:	687b      	ldr	r3, [r7, #4]
     e46:	0018      	movs	r0, r3
     e48:	4b04      	ldr	r3, [pc, #16]	; (e5c <rtc_count_enable+0x4c>)
     e4a:	4798      	blx	r3
     e4c:	1e03      	subs	r3, r0, #0
     e4e:	d1f9      	bne.n	e44 <rtc_count_enable+0x34>
     e50:	46c0      	nop			; (mov r8, r8)
     e52:	46bd      	mov	sp, r7
     e54:	b004      	add	sp, #16
     e56:	bd80      	pop	{r7, pc}
     e58:	00000d91 	.word	0x00000d91
     e5c:	00000ded 	.word	0x00000ded

00000e60 <rtc_count_disable>:
     e60:	b580      	push	{r7, lr}
     e62:	b084      	sub	sp, #16
     e64:	af00      	add	r7, sp, #0
     e66:	6078      	str	r0, [r7, #4]
     e68:	687b      	ldr	r3, [r7, #4]
     e6a:	681b      	ldr	r3, [r3, #0]
     e6c:	60fb      	str	r3, [r7, #12]
     e6e:	2002      	movs	r0, #2
     e70:	4b10      	ldr	r3, [pc, #64]	; (eb4 <rtc_count_disable+0x54>)
     e72:	4798      	blx	r3
     e74:	46c0      	nop			; (mov r8, r8)
     e76:	687b      	ldr	r3, [r7, #4]
     e78:	0018      	movs	r0, r3
     e7a:	4b0f      	ldr	r3, [pc, #60]	; (eb8 <rtc_count_disable+0x58>)
     e7c:	4798      	blx	r3
     e7e:	1e03      	subs	r3, r0, #0
     e80:	d1f9      	bne.n	e76 <rtc_count_disable+0x16>
     e82:	68fb      	ldr	r3, [r7, #12]
     e84:	4a0d      	ldr	r2, [pc, #52]	; (ebc <rtc_count_disable+0x5c>)
     e86:	811a      	strh	r2, [r3, #8]
     e88:	68fb      	ldr	r3, [r7, #12]
     e8a:	4a0c      	ldr	r2, [pc, #48]	; (ebc <rtc_count_disable+0x5c>)
     e8c:	819a      	strh	r2, [r3, #12]
     e8e:	68fb      	ldr	r3, [r7, #12]
     e90:	881b      	ldrh	r3, [r3, #0]
     e92:	b29b      	uxth	r3, r3
     e94:	2202      	movs	r2, #2
     e96:	4393      	bics	r3, r2
     e98:	b29a      	uxth	r2, r3
     e9a:	68fb      	ldr	r3, [r7, #12]
     e9c:	801a      	strh	r2, [r3, #0]
     e9e:	46c0      	nop			; (mov r8, r8)
     ea0:	687b      	ldr	r3, [r7, #4]
     ea2:	0018      	movs	r0, r3
     ea4:	4b04      	ldr	r3, [pc, #16]	; (eb8 <rtc_count_disable+0x58>)
     ea6:	4798      	blx	r3
     ea8:	1e03      	subs	r3, r0, #0
     eaa:	d1f9      	bne.n	ea0 <rtc_count_disable+0x40>
     eac:	46c0      	nop			; (mov r8, r8)
     eae:	46bd      	mov	sp, r7
     eb0:	b004      	add	sp, #16
     eb2:	bd80      	pop	{r7, pc}
     eb4:	00000dbd 	.word	0x00000dbd
     eb8:	00000ded 	.word	0x00000ded
     ebc:	ffff81ff 	.word	0xffff81ff

00000ec0 <rtc_count_reset>:
     ec0:	b580      	push	{r7, lr}
     ec2:	b084      	sub	sp, #16
     ec4:	af00      	add	r7, sp, #0
     ec6:	6078      	str	r0, [r7, #4]
     ec8:	687b      	ldr	r3, [r7, #4]
     eca:	681b      	ldr	r3, [r3, #0]
     ecc:	60fb      	str	r3, [r7, #12]
     ece:	687b      	ldr	r3, [r7, #4]
     ed0:	0018      	movs	r0, r3
     ed2:	4b11      	ldr	r3, [pc, #68]	; (f18 <rtc_count_reset+0x58>)
     ed4:	4798      	blx	r3
     ed6:	687b      	ldr	r3, [r7, #4]
     ed8:	2200      	movs	r2, #0
     eda:	869a      	strh	r2, [r3, #52]	; 0x34
     edc:	687b      	ldr	r3, [r7, #4]
     ede:	2200      	movs	r2, #0
     ee0:	86da      	strh	r2, [r3, #54]	; 0x36
     ee2:	46c0      	nop			; (mov r8, r8)
     ee4:	687b      	ldr	r3, [r7, #4]
     ee6:	0018      	movs	r0, r3
     ee8:	4b0c      	ldr	r3, [pc, #48]	; (f1c <rtc_count_reset+0x5c>)
     eea:	4798      	blx	r3
     eec:	1e03      	subs	r3, r0, #0
     eee:	d1f9      	bne.n	ee4 <rtc_count_reset+0x24>
     ef0:	68fb      	ldr	r3, [r7, #12]
     ef2:	881b      	ldrh	r3, [r3, #0]
     ef4:	b29b      	uxth	r3, r3
     ef6:	2201      	movs	r2, #1
     ef8:	4313      	orrs	r3, r2
     efa:	b29a      	uxth	r2, r3
     efc:	68fb      	ldr	r3, [r7, #12]
     efe:	801a      	strh	r2, [r3, #0]
     f00:	46c0      	nop			; (mov r8, r8)
     f02:	687b      	ldr	r3, [r7, #4]
     f04:	0018      	movs	r0, r3
     f06:	4b05      	ldr	r3, [pc, #20]	; (f1c <rtc_count_reset+0x5c>)
     f08:	4798      	blx	r3
     f0a:	1e03      	subs	r3, r0, #0
     f0c:	d1f9      	bne.n	f02 <rtc_count_reset+0x42>
     f0e:	46c0      	nop			; (mov r8, r8)
     f10:	46bd      	mov	sp, r7
     f12:	b004      	add	sp, #16
     f14:	bd80      	pop	{r7, pc}
     f16:	46c0      	nop			; (mov r8, r8)
     f18:	00000e61 	.word	0x00000e61
     f1c:	00000ded 	.word	0x00000ded

00000f20 <_rtc_count_set_config>:
     f20:	b580      	push	{r7, lr}
     f22:	b084      	sub	sp, #16
     f24:	af00      	add	r7, sp, #0
     f26:	6078      	str	r0, [r7, #4]
     f28:	6039      	str	r1, [r7, #0]
     f2a:	687b      	ldr	r3, [r7, #4]
     f2c:	681b      	ldr	r3, [r3, #0]
     f2e:	60bb      	str	r3, [r7, #8]
     f30:	683b      	ldr	r3, [r7, #0]
     f32:	791b      	ldrb	r3, [r3, #4]
     f34:	b29b      	uxth	r3, r3
     f36:	03db      	lsls	r3, r3, #15
     f38:	b29a      	uxth	r2, r3
     f3a:	683b      	ldr	r3, [r7, #0]
     f3c:	881b      	ldrh	r3, [r3, #0]
     f3e:	4313      	orrs	r3, r2
     f40:	b29a      	uxth	r2, r3
     f42:	68bb      	ldr	r3, [r7, #8]
     f44:	801a      	strh	r2, [r3, #0]
     f46:	683b      	ldr	r3, [r7, #0]
     f48:	789b      	ldrb	r3, [r3, #2]
     f4a:	2b00      	cmp	r3, #0
     f4c:	d032      	beq.n	fb4 <_rtc_count_set_config+0x94>
     f4e:	2b01      	cmp	r3, #1
     f50:	d15e      	bne.n	1010 <_rtc_count_set_config+0xf0>
     f52:	68bb      	ldr	r3, [r7, #8]
     f54:	881b      	ldrh	r3, [r3, #0]
     f56:	b29a      	uxth	r2, r3
     f58:	68bb      	ldr	r3, [r7, #8]
     f5a:	801a      	strh	r2, [r3, #0]
     f5c:	683b      	ldr	r3, [r7, #0]
     f5e:	78db      	ldrb	r3, [r3, #3]
     f60:	2b00      	cmp	r3, #0
     f62:	d007      	beq.n	f74 <_rtc_count_set_config+0x54>
     f64:	68bb      	ldr	r3, [r7, #8]
     f66:	881b      	ldrh	r3, [r3, #0]
     f68:	b29b      	uxth	r3, r3
     f6a:	2280      	movs	r2, #128	; 0x80
     f6c:	4313      	orrs	r3, r2
     f6e:	b29a      	uxth	r2, r3
     f70:	68bb      	ldr	r3, [r7, #8]
     f72:	801a      	strh	r2, [r3, #0]
     f74:	230f      	movs	r3, #15
     f76:	18fb      	adds	r3, r7, r3
     f78:	2200      	movs	r2, #0
     f7a:	701a      	strb	r2, [r3, #0]
     f7c:	e014      	b.n	fa8 <_rtc_count_set_config+0x88>
     f7e:	230f      	movs	r3, #15
     f80:	18fb      	adds	r3, r7, r3
     f82:	781a      	ldrb	r2, [r3, #0]
     f84:	683b      	ldr	r3, [r7, #0]
     f86:	3202      	adds	r2, #2
     f88:	0092      	lsls	r2, r2, #2
     f8a:	58d1      	ldr	r1, [r2, r3]
     f8c:	230f      	movs	r3, #15
     f8e:	18fb      	adds	r3, r7, r3
     f90:	781a      	ldrb	r2, [r3, #0]
     f92:	687b      	ldr	r3, [r7, #4]
     f94:	0018      	movs	r0, r3
     f96:	4b22      	ldr	r3, [pc, #136]	; (1020 <_rtc_count_set_config+0x100>)
     f98:	4798      	blx	r3
     f9a:	230f      	movs	r3, #15
     f9c:	18fb      	adds	r3, r7, r3
     f9e:	781a      	ldrb	r2, [r3, #0]
     fa0:	230f      	movs	r3, #15
     fa2:	18fb      	adds	r3, r7, r3
     fa4:	3201      	adds	r2, #1
     fa6:	701a      	strb	r2, [r3, #0]
     fa8:	230f      	movs	r3, #15
     faa:	18fb      	adds	r3, r7, r3
     fac:	781b      	ldrb	r3, [r3, #0]
     fae:	2b00      	cmp	r3, #0
     fb0:	d0e5      	beq.n	f7e <_rtc_count_set_config+0x5e>
     fb2:	e02f      	b.n	1014 <_rtc_count_set_config+0xf4>
     fb4:	68bb      	ldr	r3, [r7, #8]
     fb6:	881b      	ldrh	r3, [r3, #0]
     fb8:	b29b      	uxth	r3, r3
     fba:	2204      	movs	r2, #4
     fbc:	4313      	orrs	r3, r2
     fbe:	b29a      	uxth	r2, r3
     fc0:	68bb      	ldr	r3, [r7, #8]
     fc2:	801a      	strh	r2, [r3, #0]
     fc4:	683b      	ldr	r3, [r7, #0]
     fc6:	78db      	ldrb	r3, [r3, #3]
     fc8:	2b00      	cmp	r3, #0
     fca:	d001      	beq.n	fd0 <_rtc_count_set_config+0xb0>
     fcc:	2317      	movs	r3, #23
     fce:	e022      	b.n	1016 <_rtc_count_set_config+0xf6>
     fd0:	230e      	movs	r3, #14
     fd2:	18fb      	adds	r3, r7, r3
     fd4:	2200      	movs	r2, #0
     fd6:	701a      	strb	r2, [r3, #0]
     fd8:	e014      	b.n	1004 <_rtc_count_set_config+0xe4>
     fda:	230e      	movs	r3, #14
     fdc:	18fb      	adds	r3, r7, r3
     fde:	781a      	ldrb	r2, [r3, #0]
     fe0:	683b      	ldr	r3, [r7, #0]
     fe2:	3202      	adds	r2, #2
     fe4:	0092      	lsls	r2, r2, #2
     fe6:	58d1      	ldr	r1, [r2, r3]
     fe8:	230e      	movs	r3, #14
     fea:	18fb      	adds	r3, r7, r3
     fec:	781a      	ldrb	r2, [r3, #0]
     fee:	687b      	ldr	r3, [r7, #4]
     ff0:	0018      	movs	r0, r3
     ff2:	4b0b      	ldr	r3, [pc, #44]	; (1020 <_rtc_count_set_config+0x100>)
     ff4:	4798      	blx	r3
     ff6:	230e      	movs	r3, #14
     ff8:	18fb      	adds	r3, r7, r3
     ffa:	781a      	ldrb	r2, [r3, #0]
     ffc:	230e      	movs	r3, #14
     ffe:	18fb      	adds	r3, r7, r3
    1000:	3201      	adds	r2, #1
    1002:	701a      	strb	r2, [r3, #0]
    1004:	230e      	movs	r3, #14
    1006:	18fb      	adds	r3, r7, r3
    1008:	781b      	ldrb	r3, [r3, #0]
    100a:	2b01      	cmp	r3, #1
    100c:	d9e5      	bls.n	fda <_rtc_count_set_config+0xba>
    100e:	e001      	b.n	1014 <_rtc_count_set_config+0xf4>
    1010:	2317      	movs	r3, #23
    1012:	e000      	b.n	1016 <_rtc_count_set_config+0xf6>
    1014:	2300      	movs	r3, #0
    1016:	0018      	movs	r0, r3
    1018:	46bd      	mov	sp, r7
    101a:	b004      	add	sp, #16
    101c:	bd80      	pop	{r7, pc}
    101e:	46c0      	nop			; (mov r8, r8)
    1020:	00001145 	.word	0x00001145

00001024 <rtc_count_init>:
    1024:	b580      	push	{r7, lr}
    1026:	b084      	sub	sp, #16
    1028:	af00      	add	r7, sp, #0
    102a:	60f8      	str	r0, [r7, #12]
    102c:	60b9      	str	r1, [r7, #8]
    102e:	607a      	str	r2, [r7, #4]
    1030:	68fb      	ldr	r3, [r7, #12]
    1032:	68ba      	ldr	r2, [r7, #8]
    1034:	601a      	str	r2, [r3, #0]
    1036:	2380      	movs	r3, #128	; 0x80
    1038:	005b      	lsls	r3, r3, #1
    103a:	0019      	movs	r1, r3
    103c:	2000      	movs	r0, #0
    103e:	4b0d      	ldr	r3, [pc, #52]	; (1074 <rtc_count_init+0x50>)
    1040:	4798      	blx	r3
    1042:	4b0d      	ldr	r3, [pc, #52]	; (1078 <rtc_count_init+0x54>)
    1044:	2200      	movs	r2, #0
    1046:	611a      	str	r2, [r3, #16]
    1048:	68fb      	ldr	r3, [r7, #12]
    104a:	0018      	movs	r0, r3
    104c:	4b0b      	ldr	r3, [pc, #44]	; (107c <rtc_count_init+0x58>)
    104e:	4798      	blx	r3
    1050:	687b      	ldr	r3, [r7, #4]
    1052:	789a      	ldrb	r2, [r3, #2]
    1054:	68fb      	ldr	r3, [r7, #12]
    1056:	711a      	strb	r2, [r3, #4]
    1058:	4b09      	ldr	r3, [pc, #36]	; (1080 <rtc_count_init+0x5c>)
    105a:	68fa      	ldr	r2, [r7, #12]
    105c:	601a      	str	r2, [r3, #0]
    105e:	687a      	ldr	r2, [r7, #4]
    1060:	68fb      	ldr	r3, [r7, #12]
    1062:	0011      	movs	r1, r2
    1064:	0018      	movs	r0, r3
    1066:	4b07      	ldr	r3, [pc, #28]	; (1084 <rtc_count_init+0x60>)
    1068:	4798      	blx	r3
    106a:	0003      	movs	r3, r0
    106c:	0018      	movs	r0, r3
    106e:	46bd      	mov	sp, r7
    1070:	b004      	add	sp, #16
    1072:	bd80      	pop	{r7, pc}
    1074:	00000d15 	.word	0x00000d15
    1078:	40001000 	.word	0x40001000
    107c:	00000ec1 	.word	0x00000ec1
    1080:	20000188 	.word	0x20000188
    1084:	00000f21 	.word	0x00000f21

00001088 <rtc_count_set_count>:
    1088:	b580      	push	{r7, lr}
    108a:	b084      	sub	sp, #16
    108c:	af00      	add	r7, sp, #0
    108e:	6078      	str	r0, [r7, #4]
    1090:	6039      	str	r1, [r7, #0]
    1092:	687b      	ldr	r3, [r7, #4]
    1094:	681b      	ldr	r3, [r3, #0]
    1096:	60fb      	str	r3, [r7, #12]
    1098:	46c0      	nop			; (mov r8, r8)
    109a:	687b      	ldr	r3, [r7, #4]
    109c:	0018      	movs	r0, r3
    109e:	4b13      	ldr	r3, [pc, #76]	; (10ec <rtc_count_set_count+0x64>)
    10a0:	4798      	blx	r3
    10a2:	1e03      	subs	r3, r0, #0
    10a4:	d1f9      	bne.n	109a <rtc_count_set_count+0x12>
    10a6:	687b      	ldr	r3, [r7, #4]
    10a8:	791b      	ldrb	r3, [r3, #4]
    10aa:	2b00      	cmp	r3, #0
    10ac:	d005      	beq.n	10ba <rtc_count_set_count+0x32>
    10ae:	2b01      	cmp	r3, #1
    10b0:	d10e      	bne.n	10d0 <rtc_count_set_count+0x48>
    10b2:	68fb      	ldr	r3, [r7, #12]
    10b4:	683a      	ldr	r2, [r7, #0]
    10b6:	619a      	str	r2, [r3, #24]
    10b8:	e00c      	b.n	10d4 <rtc_count_set_count+0x4c>
    10ba:	683b      	ldr	r3, [r7, #0]
    10bc:	4a0c      	ldr	r2, [pc, #48]	; (10f0 <rtc_count_set_count+0x68>)
    10be:	4293      	cmp	r3, r2
    10c0:	d901      	bls.n	10c6 <rtc_count_set_count+0x3e>
    10c2:	2317      	movs	r3, #23
    10c4:	e00e      	b.n	10e4 <rtc_count_set_count+0x5c>
    10c6:	683b      	ldr	r3, [r7, #0]
    10c8:	b29a      	uxth	r2, r3
    10ca:	68fb      	ldr	r3, [r7, #12]
    10cc:	831a      	strh	r2, [r3, #24]
    10ce:	e001      	b.n	10d4 <rtc_count_set_count+0x4c>
    10d0:	2317      	movs	r3, #23
    10d2:	e007      	b.n	10e4 <rtc_count_set_count+0x5c>
    10d4:	46c0      	nop			; (mov r8, r8)
    10d6:	687b      	ldr	r3, [r7, #4]
    10d8:	0018      	movs	r0, r3
    10da:	4b04      	ldr	r3, [pc, #16]	; (10ec <rtc_count_set_count+0x64>)
    10dc:	4798      	blx	r3
    10de:	1e03      	subs	r3, r0, #0
    10e0:	d1f9      	bne.n	10d6 <rtc_count_set_count+0x4e>
    10e2:	2300      	movs	r3, #0
    10e4:	0018      	movs	r0, r3
    10e6:	46bd      	mov	sp, r7
    10e8:	b004      	add	sp, #16
    10ea:	bd80      	pop	{r7, pc}
    10ec:	00000ded 	.word	0x00000ded
    10f0:	0000ffff 	.word	0x0000ffff

000010f4 <rtc_count_get_count>:
    10f4:	b580      	push	{r7, lr}
    10f6:	b084      	sub	sp, #16
    10f8:	af00      	add	r7, sp, #0
    10fa:	6078      	str	r0, [r7, #4]
    10fc:	687b      	ldr	r3, [r7, #4]
    10fe:	681b      	ldr	r3, [r3, #0]
    1100:	60bb      	str	r3, [r7, #8]
    1102:	46c0      	nop			; (mov r8, r8)
    1104:	687b      	ldr	r3, [r7, #4]
    1106:	0018      	movs	r0, r3
    1108:	4b0d      	ldr	r3, [pc, #52]	; (1140 <rtc_count_get_count+0x4c>)
    110a:	4798      	blx	r3
    110c:	1e03      	subs	r3, r0, #0
    110e:	d1f9      	bne.n	1104 <rtc_count_get_count+0x10>
    1110:	687b      	ldr	r3, [r7, #4]
    1112:	791b      	ldrb	r3, [r3, #4]
    1114:	2b00      	cmp	r3, #0
    1116:	d005      	beq.n	1124 <rtc_count_get_count+0x30>
    1118:	2b01      	cmp	r3, #1
    111a:	d108      	bne.n	112e <rtc_count_get_count+0x3a>
    111c:	68bb      	ldr	r3, [r7, #8]
    111e:	699b      	ldr	r3, [r3, #24]
    1120:	60fb      	str	r3, [r7, #12]
    1122:	e007      	b.n	1134 <rtc_count_get_count+0x40>
    1124:	68bb      	ldr	r3, [r7, #8]
    1126:	8b1b      	ldrh	r3, [r3, #24]
    1128:	b29b      	uxth	r3, r3
    112a:	60fb      	str	r3, [r7, #12]
    112c:	e002      	b.n	1134 <rtc_count_get_count+0x40>
    112e:	2300      	movs	r3, #0
    1130:	60fb      	str	r3, [r7, #12]
    1132:	46c0      	nop			; (mov r8, r8)
    1134:	68fb      	ldr	r3, [r7, #12]
    1136:	0018      	movs	r0, r3
    1138:	46bd      	mov	sp, r7
    113a:	b004      	add	sp, #16
    113c:	bd80      	pop	{r7, pc}
    113e:	46c0      	nop			; (mov r8, r8)
    1140:	00000ded 	.word	0x00000ded

00001144 <rtc_count_set_compare>:
    1144:	b580      	push	{r7, lr}
    1146:	b086      	sub	sp, #24
    1148:	af00      	add	r7, sp, #0
    114a:	60f8      	str	r0, [r7, #12]
    114c:	60b9      	str	r1, [r7, #8]
    114e:	1dfb      	adds	r3, r7, #7
    1150:	701a      	strb	r2, [r3, #0]
    1152:	68fb      	ldr	r3, [r7, #12]
    1154:	681b      	ldr	r3, [r3, #0]
    1156:	617b      	str	r3, [r7, #20]
    1158:	46c0      	nop			; (mov r8, r8)
    115a:	68fb      	ldr	r3, [r7, #12]
    115c:	0018      	movs	r0, r3
    115e:	4b1d      	ldr	r3, [pc, #116]	; (11d4 <rtc_count_set_compare+0x90>)
    1160:	4798      	blx	r3
    1162:	1e03      	subs	r3, r0, #0
    1164:	d1f9      	bne.n	115a <rtc_count_set_compare+0x16>
    1166:	68fb      	ldr	r3, [r7, #12]
    1168:	791b      	ldrb	r3, [r3, #4]
    116a:	2b00      	cmp	r3, #0
    116c:	d00f      	beq.n	118e <rtc_count_set_compare+0x4a>
    116e:	2b01      	cmp	r3, #1
    1170:	d122      	bne.n	11b8 <rtc_count_set_compare+0x74>
    1172:	1dfb      	adds	r3, r7, #7
    1174:	781b      	ldrb	r3, [r3, #0]
    1176:	2b01      	cmp	r3, #1
    1178:	d901      	bls.n	117e <rtc_count_set_compare+0x3a>
    117a:	2317      	movs	r3, #23
    117c:	e026      	b.n	11cc <rtc_count_set_compare+0x88>
    117e:	1dfb      	adds	r3, r7, #7
    1180:	781a      	ldrb	r2, [r3, #0]
    1182:	697b      	ldr	r3, [r7, #20]
    1184:	3208      	adds	r2, #8
    1186:	0092      	lsls	r2, r2, #2
    1188:	68b9      	ldr	r1, [r7, #8]
    118a:	50d1      	str	r1, [r2, r3]
    118c:	e016      	b.n	11bc <rtc_count_set_compare+0x78>
    118e:	1dfb      	adds	r3, r7, #7
    1190:	781b      	ldrb	r3, [r3, #0]
    1192:	2b02      	cmp	r3, #2
    1194:	d901      	bls.n	119a <rtc_count_set_compare+0x56>
    1196:	2317      	movs	r3, #23
    1198:	e018      	b.n	11cc <rtc_count_set_compare+0x88>
    119a:	68bb      	ldr	r3, [r7, #8]
    119c:	4a0e      	ldr	r2, [pc, #56]	; (11d8 <rtc_count_set_compare+0x94>)
    119e:	4293      	cmp	r3, r2
    11a0:	d901      	bls.n	11a6 <rtc_count_set_compare+0x62>
    11a2:	2317      	movs	r3, #23
    11a4:	e012      	b.n	11cc <rtc_count_set_compare+0x88>
    11a6:	1dfb      	adds	r3, r7, #7
    11a8:	781a      	ldrb	r2, [r3, #0]
    11aa:	68bb      	ldr	r3, [r7, #8]
    11ac:	b299      	uxth	r1, r3
    11ae:	697b      	ldr	r3, [r7, #20]
    11b0:	3210      	adds	r2, #16
    11b2:	0052      	lsls	r2, r2, #1
    11b4:	52d1      	strh	r1, [r2, r3]
    11b6:	e001      	b.n	11bc <rtc_count_set_compare+0x78>
    11b8:	231a      	movs	r3, #26
    11ba:	e007      	b.n	11cc <rtc_count_set_compare+0x88>
    11bc:	46c0      	nop			; (mov r8, r8)
    11be:	68fb      	ldr	r3, [r7, #12]
    11c0:	0018      	movs	r0, r3
    11c2:	4b04      	ldr	r3, [pc, #16]	; (11d4 <rtc_count_set_compare+0x90>)
    11c4:	4798      	blx	r3
    11c6:	1e03      	subs	r3, r0, #0
    11c8:	d1f9      	bne.n	11be <rtc_count_set_compare+0x7a>
    11ca:	2300      	movs	r3, #0
    11cc:	0018      	movs	r0, r3
    11ce:	46bd      	mov	sp, r7
    11d0:	b006      	add	sp, #24
    11d2:	bd80      	pop	{r7, pc}
    11d4:	00000ded 	.word	0x00000ded
    11d8:	0000ffff 	.word	0x0000ffff

000011dc <rtc_count_register_callback>:
    11dc:	b580      	push	{r7, lr}
    11de:	b086      	sub	sp, #24
    11e0:	af00      	add	r7, sp, #0
    11e2:	60f8      	str	r0, [r7, #12]
    11e4:	60b9      	str	r1, [r7, #8]
    11e6:	1dfb      	adds	r3, r7, #7
    11e8:	701a      	strb	r2, [r3, #0]
    11ea:	2317      	movs	r3, #23
    11ec:	18fb      	adds	r3, r7, r3
    11ee:	2200      	movs	r2, #0
    11f0:	701a      	strb	r2, [r3, #0]
    11f2:	1dfb      	adds	r3, r7, #7
    11f4:	781b      	ldrb	r3, [r3, #0]
    11f6:	2b0a      	cmp	r3, #10
    11f8:	d003      	beq.n	1202 <rtc_count_register_callback+0x26>
    11fa:	1dfb      	adds	r3, r7, #7
    11fc:	781b      	ldrb	r3, [r3, #0]
    11fe:	2b07      	cmp	r3, #7
    1200:	d804      	bhi.n	120c <rtc_count_register_callback+0x30>
    1202:	2317      	movs	r3, #23
    1204:	18fb      	adds	r3, r7, r3
    1206:	2200      	movs	r2, #0
    1208:	701a      	strb	r2, [r3, #0]
    120a:	e01f      	b.n	124c <rtc_count_register_callback+0x70>
    120c:	68fb      	ldr	r3, [r7, #12]
    120e:	791b      	ldrb	r3, [r3, #4]
    1210:	2b00      	cmp	r3, #0
    1212:	d00a      	beq.n	122a <rtc_count_register_callback+0x4e>
    1214:	2b01      	cmp	r3, #1
    1216:	d111      	bne.n	123c <rtc_count_register_callback+0x60>
    1218:	1dfb      	adds	r3, r7, #7
    121a:	781b      	ldrb	r3, [r3, #0]
    121c:	2b09      	cmp	r3, #9
    121e:	d912      	bls.n	1246 <rtc_count_register_callback+0x6a>
    1220:	2317      	movs	r3, #23
    1222:	18fb      	adds	r3, r7, r3
    1224:	2217      	movs	r2, #23
    1226:	701a      	strb	r2, [r3, #0]
    1228:	e00d      	b.n	1246 <rtc_count_register_callback+0x6a>
    122a:	1dfb      	adds	r3, r7, #7
    122c:	781b      	ldrb	r3, [r3, #0]
    122e:	2b0a      	cmp	r3, #10
    1230:	d90b      	bls.n	124a <rtc_count_register_callback+0x6e>
    1232:	2317      	movs	r3, #23
    1234:	18fb      	adds	r3, r7, r3
    1236:	2217      	movs	r2, #23
    1238:	701a      	strb	r2, [r3, #0]
    123a:	e006      	b.n	124a <rtc_count_register_callback+0x6e>
    123c:	2317      	movs	r3, #23
    123e:	18fb      	adds	r3, r7, r3
    1240:	2217      	movs	r2, #23
    1242:	701a      	strb	r2, [r3, #0]
    1244:	e002      	b.n	124c <rtc_count_register_callback+0x70>
    1246:	46c0      	nop			; (mov r8, r8)
    1248:	e000      	b.n	124c <rtc_count_register_callback+0x70>
    124a:	46c0      	nop			; (mov r8, r8)
    124c:	2317      	movs	r3, #23
    124e:	18fb      	adds	r3, r7, r3
    1250:	781b      	ldrb	r3, [r3, #0]
    1252:	2b00      	cmp	r3, #0
    1254:	d115      	bne.n	1282 <rtc_count_register_callback+0xa6>
    1256:	1dfb      	adds	r3, r7, #7
    1258:	781a      	ldrb	r2, [r3, #0]
    125a:	68fb      	ldr	r3, [r7, #12]
    125c:	3202      	adds	r2, #2
    125e:	0092      	lsls	r2, r2, #2
    1260:	68b9      	ldr	r1, [r7, #8]
    1262:	50d1      	str	r1, [r2, r3]
    1264:	68fb      	ldr	r3, [r7, #12]
    1266:	8e9b      	ldrh	r3, [r3, #52]	; 0x34
    1268:	b29b      	uxth	r3, r3
    126a:	b21a      	sxth	r2, r3
    126c:	1dfb      	adds	r3, r7, #7
    126e:	781b      	ldrb	r3, [r3, #0]
    1270:	2101      	movs	r1, #1
    1272:	4099      	lsls	r1, r3
    1274:	000b      	movs	r3, r1
    1276:	b21b      	sxth	r3, r3
    1278:	4313      	orrs	r3, r2
    127a:	b21b      	sxth	r3, r3
    127c:	b29a      	uxth	r2, r3
    127e:	68fb      	ldr	r3, [r7, #12]
    1280:	869a      	strh	r2, [r3, #52]	; 0x34
    1282:	2317      	movs	r3, #23
    1284:	18fb      	adds	r3, r7, r3
    1286:	781b      	ldrb	r3, [r3, #0]
    1288:	0018      	movs	r0, r3
    128a:	46bd      	mov	sp, r7
    128c:	b006      	add	sp, #24
    128e:	bd80      	pop	{r7, pc}

00001290 <rtc_count_enable_callback>:
    1290:	b580      	push	{r7, lr}
    1292:	b084      	sub	sp, #16
    1294:	af00      	add	r7, sp, #0
    1296:	6078      	str	r0, [r7, #4]
    1298:	000a      	movs	r2, r1
    129a:	1cfb      	adds	r3, r7, #3
    129c:	701a      	strb	r2, [r3, #0]
    129e:	687b      	ldr	r3, [r7, #4]
    12a0:	681b      	ldr	r3, [r3, #0]
    12a2:	60fb      	str	r3, [r7, #12]
    12a4:	1cfb      	adds	r3, r7, #3
    12a6:	781b      	ldrb	r3, [r3, #0]
    12a8:	2b0a      	cmp	r3, #10
    12aa:	d103      	bne.n	12b4 <rtc_count_enable_callback+0x24>
    12ac:	68fb      	ldr	r3, [r7, #12]
    12ae:	4a1a      	ldr	r2, [pc, #104]	; (1318 <rtc_count_enable_callback+0x88>)
    12b0:	815a      	strh	r2, [r3, #10]
    12b2:	e01e      	b.n	12f2 <rtc_count_enable_callback+0x62>
    12b4:	1cfb      	adds	r3, r7, #3
    12b6:	781b      	ldrb	r3, [r3, #0]
    12b8:	2b07      	cmp	r3, #7
    12ba:	d80b      	bhi.n	12d4 <rtc_count_enable_callback+0x44>
    12bc:	1cfb      	adds	r3, r7, #3
    12be:	781b      	ldrb	r3, [r3, #0]
    12c0:	2201      	movs	r2, #1
    12c2:	409a      	lsls	r2, r3
    12c4:	0013      	movs	r3, r2
    12c6:	b29b      	uxth	r3, r3
    12c8:	22ff      	movs	r2, #255	; 0xff
    12ca:	4013      	ands	r3, r2
    12cc:	b29a      	uxth	r2, r3
    12ce:	68fb      	ldr	r3, [r7, #12]
    12d0:	815a      	strh	r2, [r3, #10]
    12d2:	e00e      	b.n	12f2 <rtc_count_enable_callback+0x62>
    12d4:	1cfb      	adds	r3, r7, #3
    12d6:	781b      	ldrb	r3, [r3, #0]
    12d8:	3b08      	subs	r3, #8
    12da:	2201      	movs	r2, #1
    12dc:	409a      	lsls	r2, r3
    12de:	0013      	movs	r3, r2
    12e0:	b29b      	uxth	r3, r3
    12e2:	021b      	lsls	r3, r3, #8
    12e4:	b29a      	uxth	r2, r3
    12e6:	23c0      	movs	r3, #192	; 0xc0
    12e8:	009b      	lsls	r3, r3, #2
    12ea:	4013      	ands	r3, r2
    12ec:	b29a      	uxth	r2, r3
    12ee:	68fb      	ldr	r3, [r7, #12]
    12f0:	815a      	strh	r2, [r3, #10]
    12f2:	687b      	ldr	r3, [r7, #4]
    12f4:	8edb      	ldrh	r3, [r3, #54]	; 0x36
    12f6:	b29b      	uxth	r3, r3
    12f8:	b21a      	sxth	r2, r3
    12fa:	1cfb      	adds	r3, r7, #3
    12fc:	781b      	ldrb	r3, [r3, #0]
    12fe:	2101      	movs	r1, #1
    1300:	4099      	lsls	r1, r3
    1302:	000b      	movs	r3, r1
    1304:	b21b      	sxth	r3, r3
    1306:	4313      	orrs	r3, r2
    1308:	b21b      	sxth	r3, r3
    130a:	b29a      	uxth	r2, r3
    130c:	687b      	ldr	r3, [r7, #4]
    130e:	86da      	strh	r2, [r3, #54]	; 0x36
    1310:	46c0      	nop			; (mov r8, r8)
    1312:	46bd      	mov	sp, r7
    1314:	b004      	add	sp, #16
    1316:	bd80      	pop	{r7, pc}
    1318:	ffff8000 	.word	0xffff8000

0000131c <rtc_count_disable_callback>:
    131c:	b580      	push	{r7, lr}
    131e:	b084      	sub	sp, #16
    1320:	af00      	add	r7, sp, #0
    1322:	6078      	str	r0, [r7, #4]
    1324:	000a      	movs	r2, r1
    1326:	1cfb      	adds	r3, r7, #3
    1328:	701a      	strb	r2, [r3, #0]
    132a:	687b      	ldr	r3, [r7, #4]
    132c:	681b      	ldr	r3, [r3, #0]
    132e:	60fb      	str	r3, [r7, #12]
    1330:	1cfb      	adds	r3, r7, #3
    1332:	781b      	ldrb	r3, [r3, #0]
    1334:	2b0a      	cmp	r3, #10
    1336:	d103      	bne.n	1340 <rtc_count_disable_callback+0x24>
    1338:	68fb      	ldr	r3, [r7, #12]
    133a:	4a1b      	ldr	r2, [pc, #108]	; (13a8 <rtc_count_disable_callback+0x8c>)
    133c:	811a      	strh	r2, [r3, #8]
    133e:	e01e      	b.n	137e <rtc_count_disable_callback+0x62>
    1340:	1cfb      	adds	r3, r7, #3
    1342:	781b      	ldrb	r3, [r3, #0]
    1344:	2b07      	cmp	r3, #7
    1346:	d80b      	bhi.n	1360 <rtc_count_disable_callback+0x44>
    1348:	1cfb      	adds	r3, r7, #3
    134a:	781b      	ldrb	r3, [r3, #0]
    134c:	2201      	movs	r2, #1
    134e:	409a      	lsls	r2, r3
    1350:	0013      	movs	r3, r2
    1352:	b29b      	uxth	r3, r3
    1354:	22ff      	movs	r2, #255	; 0xff
    1356:	4013      	ands	r3, r2
    1358:	b29a      	uxth	r2, r3
    135a:	68fb      	ldr	r3, [r7, #12]
    135c:	811a      	strh	r2, [r3, #8]
    135e:	e00e      	b.n	137e <rtc_count_disable_callback+0x62>
    1360:	1cfb      	adds	r3, r7, #3
    1362:	781b      	ldrb	r3, [r3, #0]
    1364:	3b08      	subs	r3, #8
    1366:	2201      	movs	r2, #1
    1368:	409a      	lsls	r2, r3
    136a:	0013      	movs	r3, r2
    136c:	b29b      	uxth	r3, r3
    136e:	021b      	lsls	r3, r3, #8
    1370:	b29a      	uxth	r2, r3
    1372:	23c0      	movs	r3, #192	; 0xc0
    1374:	009b      	lsls	r3, r3, #2
    1376:	4013      	ands	r3, r2
    1378:	b29a      	uxth	r2, r3
    137a:	68fb      	ldr	r3, [r7, #12]
    137c:	811a      	strh	r2, [r3, #8]
    137e:	687b      	ldr	r3, [r7, #4]
    1380:	8edb      	ldrh	r3, [r3, #54]	; 0x36
    1382:	b29b      	uxth	r3, r3
    1384:	b21b      	sxth	r3, r3
    1386:	1cfa      	adds	r2, r7, #3
    1388:	7812      	ldrb	r2, [r2, #0]
    138a:	2101      	movs	r1, #1
    138c:	4091      	lsls	r1, r2
    138e:	000a      	movs	r2, r1
    1390:	b212      	sxth	r2, r2
    1392:	43d2      	mvns	r2, r2
    1394:	b212      	sxth	r2, r2
    1396:	4013      	ands	r3, r2
    1398:	b21b      	sxth	r3, r3
    139a:	b29a      	uxth	r2, r3
    139c:	687b      	ldr	r3, [r7, #4]
    139e:	86da      	strh	r2, [r3, #54]	; 0x36
    13a0:	46c0      	nop			; (mov r8, r8)
    13a2:	46bd      	mov	sp, r7
    13a4:	b004      	add	sp, #16
    13a6:	bd80      	pop	{r7, pc}
    13a8:	ffff8000 	.word	0xffff8000

000013ac <_rtc_interrupt_handler>:
    13ac:	b580      	push	{r7, lr}
    13ae:	b086      	sub	sp, #24
    13b0:	af00      	add	r7, sp, #0
    13b2:	6078      	str	r0, [r7, #4]
    13b4:	4b58      	ldr	r3, [pc, #352]	; (1518 <_rtc_interrupt_handler+0x16c>)
    13b6:	687a      	ldr	r2, [r7, #4]
    13b8:	0092      	lsls	r2, r2, #2
    13ba:	58d3      	ldr	r3, [r2, r3]
    13bc:	613b      	str	r3, [r7, #16]
    13be:	693b      	ldr	r3, [r7, #16]
    13c0:	681b      	ldr	r3, [r3, #0]
    13c2:	60fb      	str	r3, [r7, #12]
    13c4:	230a      	movs	r3, #10
    13c6:	18fb      	adds	r3, r7, r3
    13c8:	693a      	ldr	r2, [r7, #16]
    13ca:	8ed2      	ldrh	r2, [r2, #54]	; 0x36
    13cc:	801a      	strh	r2, [r3, #0]
    13ce:	693b      	ldr	r3, [r7, #16]
    13d0:	8e9b      	ldrh	r3, [r3, #52]	; 0x34
    13d2:	b29a      	uxth	r2, r3
    13d4:	230a      	movs	r3, #10
    13d6:	18fb      	adds	r3, r7, r3
    13d8:	210a      	movs	r1, #10
    13da:	1879      	adds	r1, r7, r1
    13dc:	8809      	ldrh	r1, [r1, #0]
    13de:	400a      	ands	r2, r1
    13e0:	801a      	strh	r2, [r3, #0]
    13e2:	2308      	movs	r3, #8
    13e4:	18fb      	adds	r3, r7, r3
    13e6:	68fa      	ldr	r2, [r7, #12]
    13e8:	8992      	ldrh	r2, [r2, #12]
    13ea:	801a      	strh	r2, [r3, #0]
    13ec:	68fb      	ldr	r3, [r7, #12]
    13ee:	895b      	ldrh	r3, [r3, #10]
    13f0:	b29a      	uxth	r2, r3
    13f2:	2308      	movs	r3, #8
    13f4:	18fb      	adds	r3, r7, r3
    13f6:	2108      	movs	r1, #8
    13f8:	1879      	adds	r1, r7, r1
    13fa:	8809      	ldrh	r1, [r1, #0]
    13fc:	400a      	ands	r2, r1
    13fe:	801a      	strh	r2, [r3, #0]
    1400:	2308      	movs	r3, #8
    1402:	18fb      	adds	r3, r7, r3
    1404:	2200      	movs	r2, #0
    1406:	5e9b      	ldrsh	r3, [r3, r2]
    1408:	2b00      	cmp	r3, #0
    140a:	da0d      	bge.n	1428 <_rtc_interrupt_handler+0x7c>
    140c:	230a      	movs	r3, #10
    140e:	18fb      	adds	r3, r7, r3
    1410:	881a      	ldrh	r2, [r3, #0]
    1412:	2380      	movs	r3, #128	; 0x80
    1414:	00db      	lsls	r3, r3, #3
    1416:	4013      	ands	r3, r2
    1418:	d002      	beq.n	1420 <_rtc_interrupt_handler+0x74>
    141a:	693b      	ldr	r3, [r7, #16]
    141c:	6b1b      	ldr	r3, [r3, #48]	; 0x30
    141e:	4798      	blx	r3
    1420:	68fb      	ldr	r3, [r7, #12]
    1422:	4a3e      	ldr	r2, [pc, #248]	; (151c <_rtc_interrupt_handler+0x170>)
    1424:	819a      	strh	r2, [r3, #12]
    1426:	e072      	b.n	150e <_rtc_interrupt_handler+0x162>
    1428:	2308      	movs	r3, #8
    142a:	18fb      	adds	r3, r7, r3
    142c:	881b      	ldrh	r3, [r3, #0]
    142e:	22ff      	movs	r2, #255	; 0xff
    1430:	4013      	ands	r3, r2
    1432:	d041      	beq.n	14b8 <_rtc_interrupt_handler+0x10c>
    1434:	2317      	movs	r3, #23
    1436:	18fb      	adds	r3, r7, r3
    1438:	2200      	movs	r2, #0
    143a:	701a      	strb	r2, [r3, #0]
    143c:	2317      	movs	r3, #23
    143e:	18fb      	adds	r3, r7, r3
    1440:	2200      	movs	r2, #0
    1442:	701a      	strb	r2, [r3, #0]
    1444:	e032      	b.n	14ac <_rtc_interrupt_handler+0x100>
    1446:	2308      	movs	r3, #8
    1448:	18fb      	adds	r3, r7, r3
    144a:	881b      	ldrh	r3, [r3, #0]
    144c:	2217      	movs	r2, #23
    144e:	18ba      	adds	r2, r7, r2
    1450:	7812      	ldrb	r2, [r2, #0]
    1452:	2101      	movs	r1, #1
    1454:	4091      	lsls	r1, r2
    1456:	000a      	movs	r2, r1
    1458:	4013      	ands	r3, r2
    145a:	22ff      	movs	r2, #255	; 0xff
    145c:	4013      	ands	r3, r2
    145e:	d012      	beq.n	1486 <_rtc_interrupt_handler+0xda>
    1460:	230a      	movs	r3, #10
    1462:	18fb      	adds	r3, r7, r3
    1464:	881a      	ldrh	r2, [r3, #0]
    1466:	2317      	movs	r3, #23
    1468:	18fb      	adds	r3, r7, r3
    146a:	781b      	ldrb	r3, [r3, #0]
    146c:	411a      	asrs	r2, r3
    146e:	0013      	movs	r3, r2
    1470:	2201      	movs	r2, #1
    1472:	4013      	ands	r3, r2
    1474:	d007      	beq.n	1486 <_rtc_interrupt_handler+0xda>
    1476:	2317      	movs	r3, #23
    1478:	18fb      	adds	r3, r7, r3
    147a:	781a      	ldrb	r2, [r3, #0]
    147c:	693b      	ldr	r3, [r7, #16]
    147e:	3202      	adds	r2, #2
    1480:	0092      	lsls	r2, r2, #2
    1482:	58d3      	ldr	r3, [r2, r3]
    1484:	4798      	blx	r3
    1486:	2317      	movs	r3, #23
    1488:	18fb      	adds	r3, r7, r3
    148a:	781b      	ldrb	r3, [r3, #0]
    148c:	2201      	movs	r2, #1
    148e:	409a      	lsls	r2, r3
    1490:	0013      	movs	r3, r2
    1492:	b29b      	uxth	r3, r3
    1494:	22ff      	movs	r2, #255	; 0xff
    1496:	4013      	ands	r3, r2
    1498:	b29a      	uxth	r2, r3
    149a:	68fb      	ldr	r3, [r7, #12]
    149c:	819a      	strh	r2, [r3, #12]
    149e:	2317      	movs	r3, #23
    14a0:	18fb      	adds	r3, r7, r3
    14a2:	781a      	ldrb	r2, [r3, #0]
    14a4:	2317      	movs	r3, #23
    14a6:	18fb      	adds	r3, r7, r3
    14a8:	3201      	adds	r2, #1
    14aa:	701a      	strb	r2, [r3, #0]
    14ac:	2317      	movs	r3, #23
    14ae:	18fb      	adds	r3, r7, r3
    14b0:	781b      	ldrb	r3, [r3, #0]
    14b2:	2b07      	cmp	r3, #7
    14b4:	d9c7      	bls.n	1446 <_rtc_interrupt_handler+0x9a>
    14b6:	e02a      	b.n	150e <_rtc_interrupt_handler+0x162>
    14b8:	2308      	movs	r3, #8
    14ba:	18fb      	adds	r3, r7, r3
    14bc:	881a      	ldrh	r2, [r3, #0]
    14be:	2380      	movs	r3, #128	; 0x80
    14c0:	005b      	lsls	r3, r3, #1
    14c2:	4013      	ands	r3, r2
    14c4:	d00e      	beq.n	14e4 <_rtc_interrupt_handler+0x138>
    14c6:	230a      	movs	r3, #10
    14c8:	18fb      	adds	r3, r7, r3
    14ca:	881a      	ldrh	r2, [r3, #0]
    14cc:	2380      	movs	r3, #128	; 0x80
    14ce:	005b      	lsls	r3, r3, #1
    14d0:	4013      	ands	r3, r2
    14d2:	d002      	beq.n	14da <_rtc_interrupt_handler+0x12e>
    14d4:	693b      	ldr	r3, [r7, #16]
    14d6:	6a9b      	ldr	r3, [r3, #40]	; 0x28
    14d8:	4798      	blx	r3
    14da:	68fb      	ldr	r3, [r7, #12]
    14dc:	2280      	movs	r2, #128	; 0x80
    14de:	0052      	lsls	r2, r2, #1
    14e0:	819a      	strh	r2, [r3, #12]
    14e2:	e014      	b.n	150e <_rtc_interrupt_handler+0x162>
    14e4:	2308      	movs	r3, #8
    14e6:	18fb      	adds	r3, r7, r3
    14e8:	881a      	ldrh	r2, [r3, #0]
    14ea:	2380      	movs	r3, #128	; 0x80
    14ec:	009b      	lsls	r3, r3, #2
    14ee:	4013      	ands	r3, r2
    14f0:	d00d      	beq.n	150e <_rtc_interrupt_handler+0x162>
    14f2:	230a      	movs	r3, #10
    14f4:	18fb      	adds	r3, r7, r3
    14f6:	881a      	ldrh	r2, [r3, #0]
    14f8:	2380      	movs	r3, #128	; 0x80
    14fa:	009b      	lsls	r3, r3, #2
    14fc:	4013      	ands	r3, r2
    14fe:	d002      	beq.n	1506 <_rtc_interrupt_handler+0x15a>
    1500:	693b      	ldr	r3, [r7, #16]
    1502:	6adb      	ldr	r3, [r3, #44]	; 0x2c
    1504:	4798      	blx	r3
    1506:	68fb      	ldr	r3, [r7, #12]
    1508:	2280      	movs	r2, #128	; 0x80
    150a:	0092      	lsls	r2, r2, #2
    150c:	819a      	strh	r2, [r3, #12]
    150e:	46c0      	nop			; (mov r8, r8)
    1510:	46bd      	mov	sp, r7
    1512:	b006      	add	sp, #24
    1514:	bd80      	pop	{r7, pc}
    1516:	46c0      	nop			; (mov r8, r8)
    1518:	20000188 	.word	0x20000188
    151c:	ffff8000 	.word	0xffff8000

00001520 <RTC_Handler>:
    1520:	b580      	push	{r7, lr}
    1522:	af00      	add	r7, sp, #0
    1524:	2000      	movs	r0, #0
    1526:	4b02      	ldr	r3, [pc, #8]	; (1530 <RTC_Handler+0x10>)
    1528:	4798      	blx	r3
    152a:	46c0      	nop			; (mov r8, r8)
    152c:	46bd      	mov	sp, r7
    152e:	bd80      	pop	{r7, pc}
    1530:	000013ad 	.word	0x000013ad

00001534 <system_gclk_chan_get_config_defaults>:
    1534:	b580      	push	{r7, lr}
    1536:	b082      	sub	sp, #8
    1538:	af00      	add	r7, sp, #0
    153a:	6078      	str	r0, [r7, #4]
    153c:	687b      	ldr	r3, [r7, #4]
    153e:	2200      	movs	r2, #0
    1540:	701a      	strb	r2, [r3, #0]
    1542:	46c0      	nop			; (mov r8, r8)
    1544:	46bd      	mov	sp, r7
    1546:	b002      	add	sp, #8
    1548:	bd80      	pop	{r7, pc}
	...

0000154c <system_apb_clock_set_mask>:
    154c:	b580      	push	{r7, lr}
    154e:	b082      	sub	sp, #8
    1550:	af00      	add	r7, sp, #0
    1552:	0002      	movs	r2, r0
    1554:	6039      	str	r1, [r7, #0]
    1556:	1dfb      	adds	r3, r7, #7
    1558:	701a      	strb	r2, [r3, #0]
    155a:	1dfb      	adds	r3, r7, #7
    155c:	781b      	ldrb	r3, [r3, #0]
    155e:	2b04      	cmp	r3, #4
    1560:	d827      	bhi.n	15b2 <system_apb_clock_set_mask+0x66>
    1562:	009a      	lsls	r2, r3, #2
    1564:	4b16      	ldr	r3, [pc, #88]	; (15c0 <system_apb_clock_set_mask+0x74>)
    1566:	18d3      	adds	r3, r2, r3
    1568:	681b      	ldr	r3, [r3, #0]
    156a:	469f      	mov	pc, r3
    156c:	4b15      	ldr	r3, [pc, #84]	; (15c4 <system_apb_clock_set_mask+0x78>)
    156e:	4a15      	ldr	r2, [pc, #84]	; (15c4 <system_apb_clock_set_mask+0x78>)
    1570:	6951      	ldr	r1, [r2, #20]
    1572:	683a      	ldr	r2, [r7, #0]
    1574:	430a      	orrs	r2, r1
    1576:	615a      	str	r2, [r3, #20]
    1578:	e01d      	b.n	15b6 <system_apb_clock_set_mask+0x6a>
    157a:	4b12      	ldr	r3, [pc, #72]	; (15c4 <system_apb_clock_set_mask+0x78>)
    157c:	4a11      	ldr	r2, [pc, #68]	; (15c4 <system_apb_clock_set_mask+0x78>)
    157e:	6991      	ldr	r1, [r2, #24]
    1580:	683a      	ldr	r2, [r7, #0]
    1582:	430a      	orrs	r2, r1
    1584:	619a      	str	r2, [r3, #24]
    1586:	e016      	b.n	15b6 <system_apb_clock_set_mask+0x6a>
    1588:	4b0e      	ldr	r3, [pc, #56]	; (15c4 <system_apb_clock_set_mask+0x78>)
    158a:	4a0e      	ldr	r2, [pc, #56]	; (15c4 <system_apb_clock_set_mask+0x78>)
    158c:	69d1      	ldr	r1, [r2, #28]
    158e:	683a      	ldr	r2, [r7, #0]
    1590:	430a      	orrs	r2, r1
    1592:	61da      	str	r2, [r3, #28]
    1594:	e00f      	b.n	15b6 <system_apb_clock_set_mask+0x6a>
    1596:	4b0b      	ldr	r3, [pc, #44]	; (15c4 <system_apb_clock_set_mask+0x78>)
    1598:	4a0a      	ldr	r2, [pc, #40]	; (15c4 <system_apb_clock_set_mask+0x78>)
    159a:	6a11      	ldr	r1, [r2, #32]
    159c:	683a      	ldr	r2, [r7, #0]
    159e:	430a      	orrs	r2, r1
    15a0:	621a      	str	r2, [r3, #32]
    15a2:	e008      	b.n	15b6 <system_apb_clock_set_mask+0x6a>
    15a4:	4b07      	ldr	r3, [pc, #28]	; (15c4 <system_apb_clock_set_mask+0x78>)
    15a6:	4a07      	ldr	r2, [pc, #28]	; (15c4 <system_apb_clock_set_mask+0x78>)
    15a8:	6a51      	ldr	r1, [r2, #36]	; 0x24
    15aa:	683a      	ldr	r2, [r7, #0]
    15ac:	430a      	orrs	r2, r1
    15ae:	625a      	str	r2, [r3, #36]	; 0x24
    15b0:	e001      	b.n	15b6 <system_apb_clock_set_mask+0x6a>
    15b2:	2317      	movs	r3, #23
    15b4:	e000      	b.n	15b8 <system_apb_clock_set_mask+0x6c>
    15b6:	2300      	movs	r3, #0
    15b8:	0018      	movs	r0, r3
    15ba:	46bd      	mov	sp, r7
    15bc:	b002      	add	sp, #8
    15be:	bd80      	pop	{r7, pc}
    15c0:	00007418 	.word	0x00007418
    15c4:	40000400 	.word	0x40000400

000015c8 <system_pinmux_get_config_defaults>:
    15c8:	b580      	push	{r7, lr}
    15ca:	b082      	sub	sp, #8
    15cc:	af00      	add	r7, sp, #0
    15ce:	6078      	str	r0, [r7, #4]
    15d0:	687b      	ldr	r3, [r7, #4]
    15d2:	2280      	movs	r2, #128	; 0x80
    15d4:	701a      	strb	r2, [r3, #0]
    15d6:	687b      	ldr	r3, [r7, #4]
    15d8:	2200      	movs	r2, #0
    15da:	705a      	strb	r2, [r3, #1]
    15dc:	687b      	ldr	r3, [r7, #4]
    15de:	2201      	movs	r2, #1
    15e0:	709a      	strb	r2, [r3, #2]
    15e2:	687b      	ldr	r3, [r7, #4]
    15e4:	2200      	movs	r2, #0
    15e6:	70da      	strb	r2, [r3, #3]
    15e8:	46c0      	nop			; (mov r8, r8)
    15ea:	46bd      	mov	sp, r7
    15ec:	b002      	add	sp, #8
    15ee:	bd80      	pop	{r7, pc}

000015f0 <system_is_debugger_present>:
    15f0:	b580      	push	{r7, lr}
    15f2:	af00      	add	r7, sp, #0
    15f4:	4b05      	ldr	r3, [pc, #20]	; (160c <system_is_debugger_present+0x1c>)
    15f6:	789b      	ldrb	r3, [r3, #2]
    15f8:	b2db      	uxtb	r3, r3
    15fa:	001a      	movs	r2, r3
    15fc:	2302      	movs	r3, #2
    15fe:	4013      	ands	r3, r2
    1600:	1e5a      	subs	r2, r3, #1
    1602:	4193      	sbcs	r3, r2
    1604:	b2db      	uxtb	r3, r3
    1606:	0018      	movs	r0, r3
    1608:	46bd      	mov	sp, r7
    160a:	bd80      	pop	{r7, pc}
    160c:	41002000 	.word	0x41002000

00001610 <i2c_master_is_syncing>:
    1610:	b580      	push	{r7, lr}
    1612:	b084      	sub	sp, #16
    1614:	af00      	add	r7, sp, #0
    1616:	6078      	str	r0, [r7, #4]
    1618:	687b      	ldr	r3, [r7, #4]
    161a:	681b      	ldr	r3, [r3, #0]
    161c:	60fb      	str	r3, [r7, #12]
    161e:	68fb      	ldr	r3, [r7, #12]
    1620:	69db      	ldr	r3, [r3, #28]
    1622:	2207      	movs	r2, #7
    1624:	4013      	ands	r3, r2
    1626:	1e5a      	subs	r2, r3, #1
    1628:	4193      	sbcs	r3, r2
    162a:	b2db      	uxtb	r3, r3
    162c:	0018      	movs	r0, r3
    162e:	46bd      	mov	sp, r7
    1630:	b004      	add	sp, #16
    1632:	bd80      	pop	{r7, pc}

00001634 <_i2c_master_wait_for_sync>:
    1634:	b580      	push	{r7, lr}
    1636:	b082      	sub	sp, #8
    1638:	af00      	add	r7, sp, #0
    163a:	6078      	str	r0, [r7, #4]
    163c:	46c0      	nop			; (mov r8, r8)
    163e:	687b      	ldr	r3, [r7, #4]
    1640:	0018      	movs	r0, r3
    1642:	4b04      	ldr	r3, [pc, #16]	; (1654 <_i2c_master_wait_for_sync+0x20>)
    1644:	4798      	blx	r3
    1646:	1e03      	subs	r3, r0, #0
    1648:	d1f9      	bne.n	163e <_i2c_master_wait_for_sync+0xa>
    164a:	46c0      	nop			; (mov r8, r8)
    164c:	46bd      	mov	sp, r7
    164e:	b002      	add	sp, #8
    1650:	bd80      	pop	{r7, pc}
    1652:	46c0      	nop			; (mov r8, r8)
    1654:	00001611 	.word	0x00001611

00001658 <_i2c_master_set_config>:
    1658:	b5f0      	push	{r4, r5, r6, r7, lr}
    165a:	b097      	sub	sp, #92	; 0x5c
    165c:	af00      	add	r7, sp, #0
    165e:	6178      	str	r0, [r7, #20]
    1660:	6139      	str	r1, [r7, #16]
    1662:	2300      	movs	r3, #0
    1664:	63fb      	str	r3, [r7, #60]	; 0x3c
    1666:	2300      	movs	r3, #0
    1668:	653b      	str	r3, [r7, #80]	; 0x50
    166a:	2300      	movs	r3, #0
    166c:	64fb      	str	r3, [r7, #76]	; 0x4c
    166e:	233b      	movs	r3, #59	; 0x3b
    1670:	2210      	movs	r2, #16
    1672:	4694      	mov	ip, r2
    1674:	44bc      	add	ip, r7
    1676:	4463      	add	r3, ip
    1678:	2200      	movs	r2, #0
    167a:	701a      	strb	r2, [r3, #0]
    167c:	697b      	ldr	r3, [r7, #20]
    167e:	681b      	ldr	r3, [r3, #0]
    1680:	63bb      	str	r3, [r7, #56]	; 0x38
    1682:	697b      	ldr	r3, [r7, #20]
    1684:	681b      	ldr	r3, [r3, #0]
    1686:	637b      	str	r3, [r7, #52]	; 0x34
    1688:	2323      	movs	r3, #35	; 0x23
    168a:	2210      	movs	r2, #16
    168c:	18ba      	adds	r2, r7, r2
    168e:	18d4      	adds	r4, r2, r3
    1690:	6b7b      	ldr	r3, [r7, #52]	; 0x34
    1692:	0018      	movs	r0, r3
    1694:	4bc0      	ldr	r3, [pc, #768]	; (1998 <_i2c_master_set_config+0x340>)
    1696:	4798      	blx	r3
    1698:	0003      	movs	r3, r0
    169a:	7023      	strb	r3, [r4, #0]
    169c:	230c      	movs	r3, #12
    169e:	2210      	movs	r2, #16
    16a0:	4694      	mov	ip, r2
    16a2:	44bc      	add	ip, r7
    16a4:	4463      	add	r3, ip
    16a6:	0018      	movs	r0, r3
    16a8:	4bbc      	ldr	r3, [pc, #752]	; (199c <_i2c_master_set_config+0x344>)
    16aa:	4798      	blx	r3
    16ac:	693b      	ldr	r3, [r7, #16]
    16ae:	69db      	ldr	r3, [r3, #28]
    16b0:	647b      	str	r3, [r7, #68]	; 0x44
    16b2:	693b      	ldr	r3, [r7, #16]
    16b4:	6a1b      	ldr	r3, [r3, #32]
    16b6:	643b      	str	r3, [r7, #64]	; 0x40
    16b8:	6c7b      	ldr	r3, [r7, #68]	; 0x44
    16ba:	2b00      	cmp	r3, #0
    16bc:	d106      	bne.n	16cc <_i2c_master_set_config+0x74>
    16be:	6b7b      	ldr	r3, [r7, #52]	; 0x34
    16c0:	2100      	movs	r1, #0
    16c2:	0018      	movs	r0, r3
    16c4:	4bb6      	ldr	r3, [pc, #728]	; (19a0 <_i2c_master_set_config+0x348>)
    16c6:	4798      	blx	r3
    16c8:	0003      	movs	r3, r0
    16ca:	647b      	str	r3, [r7, #68]	; 0x44
    16cc:	6c7b      	ldr	r3, [r7, #68]	; 0x44
    16ce:	b2da      	uxtb	r2, r3
    16d0:	230c      	movs	r3, #12
    16d2:	2110      	movs	r1, #16
    16d4:	468c      	mov	ip, r1
    16d6:	44bc      	add	ip, r7
    16d8:	4463      	add	r3, ip
    16da:	701a      	strb	r2, [r3, #0]
    16dc:	230c      	movs	r3, #12
    16de:	2210      	movs	r2, #16
    16e0:	4694      	mov	ip, r2
    16e2:	44bc      	add	ip, r7
    16e4:	4463      	add	r3, ip
    16e6:	2202      	movs	r2, #2
    16e8:	705a      	strb	r2, [r3, #1]
    16ea:	6c7b      	ldr	r3, [r7, #68]	; 0x44
    16ec:	0c1b      	lsrs	r3, r3, #16
    16ee:	b2db      	uxtb	r3, r3
    16f0:	220c      	movs	r2, #12
    16f2:	2110      	movs	r1, #16
    16f4:	468c      	mov	ip, r1
    16f6:	44bc      	add	ip, r7
    16f8:	4462      	add	r2, ip
    16fa:	0011      	movs	r1, r2
    16fc:	0018      	movs	r0, r3
    16fe:	4ba9      	ldr	r3, [pc, #676]	; (19a4 <_i2c_master_set_config+0x34c>)
    1700:	4798      	blx	r3
    1702:	6c3b      	ldr	r3, [r7, #64]	; 0x40
    1704:	2b00      	cmp	r3, #0
    1706:	d106      	bne.n	1716 <_i2c_master_set_config+0xbe>
    1708:	6b7b      	ldr	r3, [r7, #52]	; 0x34
    170a:	2101      	movs	r1, #1
    170c:	0018      	movs	r0, r3
    170e:	4ba4      	ldr	r3, [pc, #656]	; (19a0 <_i2c_master_set_config+0x348>)
    1710:	4798      	blx	r3
    1712:	0003      	movs	r3, r0
    1714:	643b      	str	r3, [r7, #64]	; 0x40
    1716:	6c3b      	ldr	r3, [r7, #64]	; 0x40
    1718:	b2da      	uxtb	r2, r3
    171a:	230c      	movs	r3, #12
    171c:	2110      	movs	r1, #16
    171e:	468c      	mov	ip, r1
    1720:	44bc      	add	ip, r7
    1722:	4463      	add	r3, ip
    1724:	701a      	strb	r2, [r3, #0]
    1726:	230c      	movs	r3, #12
    1728:	2210      	movs	r2, #16
    172a:	4694      	mov	ip, r2
    172c:	44bc      	add	ip, r7
    172e:	4463      	add	r3, ip
    1730:	2202      	movs	r2, #2
    1732:	705a      	strb	r2, [r3, #1]
    1734:	6c3b      	ldr	r3, [r7, #64]	; 0x40
    1736:	0c1b      	lsrs	r3, r3, #16
    1738:	b2db      	uxtb	r3, r3
    173a:	220c      	movs	r2, #12
    173c:	2110      	movs	r1, #16
    173e:	468c      	mov	ip, r1
    1740:	44bc      	add	ip, r7
    1742:	4462      	add	r2, ip
    1744:	0011      	movs	r1, r2
    1746:	0018      	movs	r0, r3
    1748:	4b96      	ldr	r3, [pc, #600]	; (19a4 <_i2c_master_set_config+0x34c>)
    174a:	4798      	blx	r3
    174c:	693b      	ldr	r3, [r7, #16]
    174e:	8a9a      	ldrh	r2, [r3, #20]
    1750:	697b      	ldr	r3, [r7, #20]
    1752:	80da      	strh	r2, [r3, #6]
    1754:	693b      	ldr	r3, [r7, #16]
    1756:	8ada      	ldrh	r2, [r3, #22]
    1758:	697b      	ldr	r3, [r7, #20]
    175a:	811a      	strh	r2, [r3, #8]
    175c:	693b      	ldr	r3, [r7, #16]
    175e:	7e1b      	ldrb	r3, [r3, #24]
    1760:	2b00      	cmp	r3, #0
    1762:	d103      	bne.n	176c <_i2c_master_set_config+0x114>
    1764:	4b90      	ldr	r3, [pc, #576]	; (19a8 <_i2c_master_set_config+0x350>)
    1766:	4798      	blx	r3
    1768:	1e03      	subs	r3, r0, #0
    176a:	d002      	beq.n	1772 <_i2c_master_set_config+0x11a>
    176c:	2380      	movs	r3, #128	; 0x80
    176e:	657b      	str	r3, [r7, #84]	; 0x54
    1770:	e001      	b.n	1776 <_i2c_master_set_config+0x11e>
    1772:	2300      	movs	r3, #0
    1774:	657b      	str	r3, [r7, #84]	; 0x54
    1776:	693b      	ldr	r3, [r7, #16]
    1778:	691b      	ldr	r3, [r3, #16]
    177a:	2b00      	cmp	r3, #0
    177c:	d004      	beq.n	1788 <_i2c_master_set_config+0x130>
    177e:	693b      	ldr	r3, [r7, #16]
    1780:	691b      	ldr	r3, [r3, #16]
    1782:	6d7a      	ldr	r2, [r7, #84]	; 0x54
    1784:	4313      	orrs	r3, r2
    1786:	657b      	str	r3, [r7, #84]	; 0x54
    1788:	693b      	ldr	r3, [r7, #16]
    178a:	689b      	ldr	r3, [r3, #8]
    178c:	6d7a      	ldr	r2, [r7, #84]	; 0x54
    178e:	4313      	orrs	r3, r2
    1790:	657b      	str	r3, [r7, #84]	; 0x54
    1792:	693b      	ldr	r3, [r7, #16]
    1794:	2224      	movs	r2, #36	; 0x24
    1796:	5c9b      	ldrb	r3, [r3, r2]
    1798:	2b00      	cmp	r3, #0
    179a:	d004      	beq.n	17a6 <_i2c_master_set_config+0x14e>
    179c:	6d7b      	ldr	r3, [r7, #84]	; 0x54
    179e:	2280      	movs	r2, #128	; 0x80
    17a0:	05d2      	lsls	r2, r2, #23
    17a2:	4313      	orrs	r3, r2
    17a4:	657b      	str	r3, [r7, #84]	; 0x54
    17a6:	693b      	ldr	r3, [r7, #16]
    17a8:	6a9b      	ldr	r3, [r3, #40]	; 0x28
    17aa:	2b00      	cmp	r3, #0
    17ac:	d004      	beq.n	17b8 <_i2c_master_set_config+0x160>
    17ae:	693b      	ldr	r3, [r7, #16]
    17b0:	6a9b      	ldr	r3, [r3, #40]	; 0x28
    17b2:	6d7a      	ldr	r2, [r7, #84]	; 0x54
    17b4:	4313      	orrs	r3, r2
    17b6:	657b      	str	r3, [r7, #84]	; 0x54
    17b8:	693b      	ldr	r3, [r7, #16]
    17ba:	222c      	movs	r2, #44	; 0x2c
    17bc:	5c9b      	ldrb	r3, [r3, r2]
    17be:	2b00      	cmp	r3, #0
    17c0:	d105      	bne.n	17ce <_i2c_master_set_config+0x176>
    17c2:	693b      	ldr	r3, [r7, #16]
    17c4:	689a      	ldr	r2, [r3, #8]
    17c6:	2380      	movs	r3, #128	; 0x80
    17c8:	049b      	lsls	r3, r3, #18
    17ca:	429a      	cmp	r2, r3
    17cc:	d104      	bne.n	17d8 <_i2c_master_set_config+0x180>
    17ce:	6d7b      	ldr	r3, [r7, #84]	; 0x54
    17d0:	2280      	movs	r2, #128	; 0x80
    17d2:	0512      	lsls	r2, r2, #20
    17d4:	4313      	orrs	r3, r2
    17d6:	657b      	str	r3, [r7, #84]	; 0x54
    17d8:	693b      	ldr	r3, [r7, #16]
    17da:	222d      	movs	r2, #45	; 0x2d
    17dc:	5c9b      	ldrb	r3, [r3, r2]
    17de:	2b00      	cmp	r3, #0
    17e0:	d004      	beq.n	17ec <_i2c_master_set_config+0x194>
    17e2:	6d7b      	ldr	r3, [r7, #84]	; 0x54
    17e4:	2280      	movs	r2, #128	; 0x80
    17e6:	0412      	lsls	r2, r2, #16
    17e8:	4313      	orrs	r3, r2
    17ea:	657b      	str	r3, [r7, #84]	; 0x54
    17ec:	693b      	ldr	r3, [r7, #16]
    17ee:	222e      	movs	r2, #46	; 0x2e
    17f0:	5c9b      	ldrb	r3, [r3, r2]
    17f2:	2b00      	cmp	r3, #0
    17f4:	d004      	beq.n	1800 <_i2c_master_set_config+0x1a8>
    17f6:	6d7b      	ldr	r3, [r7, #84]	; 0x54
    17f8:	2280      	movs	r2, #128	; 0x80
    17fa:	03d2      	lsls	r2, r2, #15
    17fc:	4313      	orrs	r3, r2
    17fe:	657b      	str	r3, [r7, #84]	; 0x54
    1800:	6bbb      	ldr	r3, [r7, #56]	; 0x38
    1802:	681a      	ldr	r2, [r3, #0]
    1804:	6d7b      	ldr	r3, [r7, #84]	; 0x54
    1806:	431a      	orrs	r2, r3
    1808:	6bbb      	ldr	r3, [r7, #56]	; 0x38
    180a:	601a      	str	r2, [r3, #0]
    180c:	6bbb      	ldr	r3, [r7, #56]	; 0x38
    180e:	2280      	movs	r2, #128	; 0x80
    1810:	0052      	lsls	r2, r2, #1
    1812:	605a      	str	r2, [r3, #4]
    1814:	2323      	movs	r3, #35	; 0x23
    1816:	2210      	movs	r2, #16
    1818:	4694      	mov	ip, r2
    181a:	44bc      	add	ip, r7
    181c:	4463      	add	r3, ip
    181e:	781b      	ldrb	r3, [r3, #0]
    1820:	3312      	adds	r3, #18
    1822:	b2db      	uxtb	r3, r3
    1824:	0018      	movs	r0, r3
    1826:	4b61      	ldr	r3, [pc, #388]	; (19ac <_i2c_master_set_config+0x354>)
    1828:	4798      	blx	r3
    182a:	0003      	movs	r3, r0
    182c:	62fb      	str	r3, [r7, #44]	; 0x2c
    182e:	693b      	ldr	r3, [r7, #16]
    1830:	681b      	ldr	r3, [r3, #0]
    1832:	22fa      	movs	r2, #250	; 0xfa
    1834:	0092      	lsls	r2, r2, #2
    1836:	4353      	muls	r3, r2
    1838:	62bb      	str	r3, [r7, #40]	; 0x28
    183a:	693b      	ldr	r3, [r7, #16]
    183c:	685b      	ldr	r3, [r3, #4]
    183e:	22fa      	movs	r2, #250	; 0xfa
    1840:	0092      	lsls	r2, r2, #2
    1842:	4353      	muls	r3, r2
    1844:	627b      	str	r3, [r7, #36]	; 0x24
    1846:	693b      	ldr	r3, [r7, #16]
    1848:	8e1b      	ldrh	r3, [r3, #48]	; 0x30
    184a:	623b      	str	r3, [r7, #32]
    184c:	4b58      	ldr	r3, [pc, #352]	; (19b0 <_i2c_master_set_config+0x358>)
    184e:	6af8      	ldr	r0, [r7, #44]	; 0x2c
    1850:	4798      	blx	r3
    1852:	0005      	movs	r5, r0
    1854:	000e      	movs	r6, r1
    1856:	4b56      	ldr	r3, [pc, #344]	; (19b0 <_i2c_master_set_config+0x358>)
    1858:	6ab8      	ldr	r0, [r7, #40]	; 0x28
    185a:	4798      	blx	r3
    185c:	60b8      	str	r0, [r7, #8]
    185e:	60f9      	str	r1, [r7, #12]
    1860:	4b53      	ldr	r3, [pc, #332]	; (19b0 <_i2c_master_set_config+0x358>)
    1862:	6af8      	ldr	r0, [r7, #44]	; 0x2c
    1864:	4798      	blx	r3
    1866:	4c53      	ldr	r4, [pc, #332]	; (19b4 <_i2c_master_set_config+0x35c>)
    1868:	4a53      	ldr	r2, [pc, #332]	; (19b8 <_i2c_master_set_config+0x360>)
    186a:	4b54      	ldr	r3, [pc, #336]	; (19bc <_i2c_master_set_config+0x364>)
    186c:	47a0      	blx	r4
    186e:	0003      	movs	r3, r0
    1870:	000c      	movs	r4, r1
    1872:	603b      	str	r3, [r7, #0]
    1874:	607c      	str	r4, [r7, #4]
    1876:	4b4e      	ldr	r3, [pc, #312]	; (19b0 <_i2c_master_set_config+0x358>)
    1878:	6a38      	ldr	r0, [r7, #32]
    187a:	4798      	blx	r3
    187c:	0002      	movs	r2, r0
    187e:	000b      	movs	r3, r1
    1880:	4c4c      	ldr	r4, [pc, #304]	; (19b4 <_i2c_master_set_config+0x35c>)
    1882:	6838      	ldr	r0, [r7, #0]
    1884:	6879      	ldr	r1, [r7, #4]
    1886:	47a0      	blx	r4
    1888:	0003      	movs	r3, r0
    188a:	000c      	movs	r4, r1
    188c:	0018      	movs	r0, r3
    188e:	0021      	movs	r1, r4
    1890:	4c4b      	ldr	r4, [pc, #300]	; (19c0 <_i2c_master_set_config+0x368>)
    1892:	2200      	movs	r2, #0
    1894:	4b4b      	ldr	r3, [pc, #300]	; (19c4 <_i2c_master_set_config+0x36c>)
    1896:	47a0      	blx	r4
    1898:	0003      	movs	r3, r0
    189a:	000c      	movs	r4, r1
    189c:	001a      	movs	r2, r3
    189e:	0023      	movs	r3, r4
    18a0:	4c44      	ldr	r4, [pc, #272]	; (19b4 <_i2c_master_set_config+0x35c>)
    18a2:	68b8      	ldr	r0, [r7, #8]
    18a4:	68f9      	ldr	r1, [r7, #12]
    18a6:	47a0      	blx	r4
    18a8:	0003      	movs	r3, r0
    18aa:	000c      	movs	r4, r1
    18ac:	001a      	movs	r2, r3
    18ae:	0023      	movs	r3, r4
    18b0:	4c45      	ldr	r4, [pc, #276]	; (19c8 <_i2c_master_set_config+0x370>)
    18b2:	0028      	movs	r0, r5
    18b4:	0031      	movs	r1, r6
    18b6:	47a0      	blx	r4
    18b8:	0003      	movs	r3, r0
    18ba:	000c      	movs	r4, r1
    18bc:	001d      	movs	r5, r3
    18be:	0026      	movs	r6, r4
    18c0:	6abb      	ldr	r3, [r7, #40]	; 0x28
    18c2:	005a      	lsls	r2, r3, #1
    18c4:	4b3a      	ldr	r3, [pc, #232]	; (19b0 <_i2c_master_set_config+0x358>)
    18c6:	0010      	movs	r0, r2
    18c8:	4798      	blx	r3
    18ca:	0002      	movs	r2, r0
    18cc:	000b      	movs	r3, r1
    18ce:	4c3c      	ldr	r4, [pc, #240]	; (19c0 <_i2c_master_set_config+0x368>)
    18d0:	0028      	movs	r0, r5
    18d2:	0031      	movs	r1, r6
    18d4:	47a0      	blx	r4
    18d6:	0003      	movs	r3, r0
    18d8:	000c      	movs	r4, r1
    18da:	0018      	movs	r0, r3
    18dc:	0021      	movs	r1, r4
    18de:	4c3a      	ldr	r4, [pc, #232]	; (19c8 <_i2c_master_set_config+0x370>)
    18e0:	2200      	movs	r2, #0
    18e2:	4b3a      	ldr	r3, [pc, #232]	; (19cc <_i2c_master_set_config+0x374>)
    18e4:	47a0      	blx	r4
    18e6:	0003      	movs	r3, r0
    18e8:	000c      	movs	r4, r1
    18ea:	001d      	movs	r5, r3
    18ec:	0026      	movs	r6, r4
    18ee:	6abb      	ldr	r3, [r7, #40]	; 0x28
    18f0:	005a      	lsls	r2, r3, #1
    18f2:	4b2f      	ldr	r3, [pc, #188]	; (19b0 <_i2c_master_set_config+0x358>)
    18f4:	0010      	movs	r0, r2
    18f6:	4798      	blx	r3
    18f8:	0002      	movs	r2, r0
    18fa:	000b      	movs	r3, r1
    18fc:	4c34      	ldr	r4, [pc, #208]	; (19d0 <_i2c_master_set_config+0x378>)
    18fe:	0028      	movs	r0, r5
    1900:	0031      	movs	r1, r6
    1902:	47a0      	blx	r4
    1904:	0003      	movs	r3, r0
    1906:	000c      	movs	r4, r1
    1908:	0019      	movs	r1, r3
    190a:	0022      	movs	r2, r4
    190c:	4b31      	ldr	r3, [pc, #196]	; (19d4 <_i2c_master_set_config+0x37c>)
    190e:	0008      	movs	r0, r1
    1910:	0011      	movs	r1, r2
    1912:	4798      	blx	r3
    1914:	0003      	movs	r3, r0
    1916:	63fb      	str	r3, [r7, #60]	; 0x3c
    1918:	693b      	ldr	r3, [r7, #16]
    191a:	689a      	ldr	r2, [r3, #8]
    191c:	2380      	movs	r3, #128	; 0x80
    191e:	049b      	lsls	r3, r3, #18
    1920:	429a      	cmp	r2, r3
    1922:	d16a      	bne.n	19fa <_i2c_master_set_config+0x3a2>
    1924:	4b22      	ldr	r3, [pc, #136]	; (19b0 <_i2c_master_set_config+0x358>)
    1926:	6af8      	ldr	r0, [r7, #44]	; 0x2c
    1928:	4798      	blx	r3
    192a:	4c25      	ldr	r4, [pc, #148]	; (19c0 <_i2c_master_set_config+0x368>)
    192c:	0002      	movs	r2, r0
    192e:	000b      	movs	r3, r1
    1930:	47a0      	blx	r4
    1932:	0003      	movs	r3, r0
    1934:	000c      	movs	r4, r1
    1936:	001d      	movs	r5, r3
    1938:	0026      	movs	r6, r4
    193a:	4b1d      	ldr	r3, [pc, #116]	; (19b0 <_i2c_master_set_config+0x358>)
    193c:	6a78      	ldr	r0, [r7, #36]	; 0x24
    193e:	4798      	blx	r3
    1940:	4c1c      	ldr	r4, [pc, #112]	; (19b4 <_i2c_master_set_config+0x35c>)
    1942:	2200      	movs	r2, #0
    1944:	4b24      	ldr	r3, [pc, #144]	; (19d8 <_i2c_master_set_config+0x380>)
    1946:	47a0      	blx	r4
    1948:	0003      	movs	r3, r0
    194a:	000c      	movs	r4, r1
    194c:	001a      	movs	r2, r3
    194e:	0023      	movs	r3, r4
    1950:	4c1f      	ldr	r4, [pc, #124]	; (19d0 <_i2c_master_set_config+0x378>)
    1952:	0028      	movs	r0, r5
    1954:	0031      	movs	r1, r6
    1956:	47a0      	blx	r4
    1958:	0003      	movs	r3, r0
    195a:	000c      	movs	r4, r1
    195c:	0018      	movs	r0, r3
    195e:	0021      	movs	r1, r4
    1960:	4c19      	ldr	r4, [pc, #100]	; (19c8 <_i2c_master_set_config+0x370>)
    1962:	2200      	movs	r2, #0
    1964:	4b19      	ldr	r3, [pc, #100]	; (19cc <_i2c_master_set_config+0x374>)
    1966:	47a0      	blx	r4
    1968:	0003      	movs	r3, r0
    196a:	000c      	movs	r4, r1
    196c:	0019      	movs	r1, r3
    196e:	0022      	movs	r2, r4
    1970:	4b18      	ldr	r3, [pc, #96]	; (19d4 <_i2c_master_set_config+0x37c>)
    1972:	0008      	movs	r0, r1
    1974:	0011      	movs	r1, r2
    1976:	4798      	blx	r3
    1978:	0003      	movs	r3, r0
    197a:	64fb      	str	r3, [r7, #76]	; 0x4c
    197c:	6cfb      	ldr	r3, [r7, #76]	; 0x4c
    197e:	2b00      	cmp	r3, #0
    1980:	d02e      	beq.n	19e0 <_i2c_master_set_config+0x388>
    1982:	4b16      	ldr	r3, [pc, #88]	; (19dc <_i2c_master_set_config+0x384>)
    1984:	6a79      	ldr	r1, [r7, #36]	; 0x24
    1986:	6af8      	ldr	r0, [r7, #44]	; 0x2c
    1988:	4798      	blx	r3
    198a:	0003      	movs	r3, r0
    198c:	1e9a      	subs	r2, r3, #2
    198e:	6cfb      	ldr	r3, [r7, #76]	; 0x4c
    1990:	1ad3      	subs	r3, r2, r3
    1992:	653b      	str	r3, [r7, #80]	; 0x50
    1994:	e031      	b.n	19fa <_i2c_master_set_config+0x3a2>
    1996:	46c0      	nop			; (mov r8, r8)
    1998:	00003f25 	.word	0x00003f25
    199c:	000015c9 	.word	0x000015c9
    19a0:	00003d69 	.word	0x00003d69
    19a4:	00004b01 	.word	0x00004b01
    19a8:	000015f1 	.word	0x000015f1
    19ac:	0000493d 	.word	0x0000493d
    19b0:	00006ec1 	.word	0x00006ec1
    19b4:	000062a9 	.word	0x000062a9
    19b8:	e826d695 	.word	0xe826d695
    19bc:	3e112e0b 	.word	0x3e112e0b
    19c0:	00005621 	.word	0x00005621
    19c4:	40240000 	.word	0x40240000
    19c8:	000067a9 	.word	0x000067a9
    19cc:	3ff00000 	.word	0x3ff00000
    19d0:	00005c41 	.word	0x00005c41
    19d4:	00006dd5 	.word	0x00006dd5
    19d8:	40080000 	.word	0x40080000
    19dc:	000050a1 	.word	0x000050a1
    19e0:	6a7b      	ldr	r3, [r7, #36]	; 0x24
    19e2:	005a      	lsls	r2, r3, #1
    19e4:	6afb      	ldr	r3, [r7, #44]	; 0x2c
    19e6:	18d3      	adds	r3, r2, r3
    19e8:	1e5a      	subs	r2, r3, #1
    19ea:	6a7b      	ldr	r3, [r7, #36]	; 0x24
    19ec:	0059      	lsls	r1, r3, #1
    19ee:	4b1d      	ldr	r3, [pc, #116]	; (1a64 <_i2c_master_set_config+0x40c>)
    19f0:	0010      	movs	r0, r2
    19f2:	4798      	blx	r3
    19f4:	0003      	movs	r3, r0
    19f6:	3b01      	subs	r3, #1
    19f8:	653b      	str	r3, [r7, #80]	; 0x50
    19fa:	6bfb      	ldr	r3, [r7, #60]	; 0x3c
    19fc:	2bff      	cmp	r3, #255	; 0xff
    19fe:	dc08      	bgt.n	1a12 <_i2c_master_set_config+0x3ba>
    1a00:	6bfb      	ldr	r3, [r7, #60]	; 0x3c
    1a02:	2b00      	cmp	r3, #0
    1a04:	db05      	blt.n	1a12 <_i2c_master_set_config+0x3ba>
    1a06:	6d3b      	ldr	r3, [r7, #80]	; 0x50
    1a08:	2bff      	cmp	r3, #255	; 0xff
    1a0a:	dc02      	bgt.n	1a12 <_i2c_master_set_config+0x3ba>
    1a0c:	6d3b      	ldr	r3, [r7, #80]	; 0x50
    1a0e:	2b00      	cmp	r3, #0
    1a10:	da06      	bge.n	1a20 <_i2c_master_set_config+0x3c8>
    1a12:	233b      	movs	r3, #59	; 0x3b
    1a14:	2210      	movs	r2, #16
    1a16:	4694      	mov	ip, r2
    1a18:	44bc      	add	ip, r7
    1a1a:	4463      	add	r3, ip
    1a1c:	2240      	movs	r2, #64	; 0x40
    1a1e:	701a      	strb	r2, [r3, #0]
    1a20:	233b      	movs	r3, #59	; 0x3b
    1a22:	2210      	movs	r2, #16
    1a24:	4694      	mov	ip, r2
    1a26:	44bc      	add	ip, r7
    1a28:	4463      	add	r3, ip
    1a2a:	781b      	ldrb	r3, [r3, #0]
    1a2c:	2b40      	cmp	r3, #64	; 0x40
    1a2e:	d00e      	beq.n	1a4e <_i2c_master_set_config+0x3f6>
    1a30:	6bfb      	ldr	r3, [r7, #60]	; 0x3c
    1a32:	22ff      	movs	r2, #255	; 0xff
    1a34:	401a      	ands	r2, r3
    1a36:	6d3b      	ldr	r3, [r7, #80]	; 0x50
    1a38:	041b      	lsls	r3, r3, #16
    1a3a:	0019      	movs	r1, r3
    1a3c:	23ff      	movs	r3, #255	; 0xff
    1a3e:	041b      	lsls	r3, r3, #16
    1a40:	400b      	ands	r3, r1
    1a42:	4313      	orrs	r3, r2
    1a44:	6cfa      	ldr	r2, [r7, #76]	; 0x4c
    1a46:	0612      	lsls	r2, r2, #24
    1a48:	431a      	orrs	r2, r3
    1a4a:	6bbb      	ldr	r3, [r7, #56]	; 0x38
    1a4c:	60da      	str	r2, [r3, #12]
    1a4e:	233b      	movs	r3, #59	; 0x3b
    1a50:	2210      	movs	r2, #16
    1a52:	4694      	mov	ip, r2
    1a54:	44bc      	add	ip, r7
    1a56:	4463      	add	r3, ip
    1a58:	781b      	ldrb	r3, [r3, #0]
    1a5a:	0018      	movs	r0, r3
    1a5c:	46bd      	mov	sp, r7
    1a5e:	b017      	add	sp, #92	; 0x5c
    1a60:	bdf0      	pop	{r4, r5, r6, r7, pc}
    1a62:	46c0      	nop			; (mov r8, r8)
    1a64:	000050a1 	.word	0x000050a1

00001a68 <i2c_master_init>:
    1a68:	b580      	push	{r7, lr}
    1a6a:	b08a      	sub	sp, #40	; 0x28
    1a6c:	af00      	add	r7, sp, #0
    1a6e:	60f8      	str	r0, [r7, #12]
    1a70:	60b9      	str	r1, [r7, #8]
    1a72:	607a      	str	r2, [r7, #4]
    1a74:	68fb      	ldr	r3, [r7, #12]
    1a76:	68ba      	ldr	r2, [r7, #8]
    1a78:	601a      	str	r2, [r3, #0]
    1a7a:	68fb      	ldr	r3, [r7, #12]
    1a7c:	681b      	ldr	r3, [r3, #0]
    1a7e:	61fb      	str	r3, [r7, #28]
    1a80:	68fb      	ldr	r3, [r7, #12]
    1a82:	681b      	ldr	r3, [r3, #0]
    1a84:	0018      	movs	r0, r3
    1a86:	4b2f      	ldr	r3, [pc, #188]	; (1b44 <i2c_master_init+0xdc>)
    1a88:	4798      	blx	r3
    1a8a:	0003      	movs	r3, r0
    1a8c:	61bb      	str	r3, [r7, #24]
    1a8e:	69bb      	ldr	r3, [r7, #24]
    1a90:	2b05      	cmp	r3, #5
    1a92:	d104      	bne.n	1a9e <i2c_master_init+0x36>
    1a94:	2301      	movs	r3, #1
    1a96:	627b      	str	r3, [r7, #36]	; 0x24
    1a98:	2318      	movs	r3, #24
    1a9a:	623b      	str	r3, [r7, #32]
    1a9c:	e004      	b.n	1aa8 <i2c_master_init+0x40>
    1a9e:	69bb      	ldr	r3, [r7, #24]
    1aa0:	627b      	str	r3, [r7, #36]	; 0x24
    1aa2:	69bb      	ldr	r3, [r7, #24]
    1aa4:	3312      	adds	r3, #18
    1aa6:	623b      	str	r3, [r7, #32]
    1aa8:	69bb      	ldr	r3, [r7, #24]
    1aaa:	2b05      	cmp	r3, #5
    1aac:	d108      	bne.n	1ac0 <i2c_master_init+0x58>
    1aae:	2201      	movs	r2, #1
    1ab0:	6a7b      	ldr	r3, [r7, #36]	; 0x24
    1ab2:	409a      	lsls	r2, r3
    1ab4:	0013      	movs	r3, r2
    1ab6:	0019      	movs	r1, r3
    1ab8:	2003      	movs	r0, #3
    1aba:	4b23      	ldr	r3, [pc, #140]	; (1b48 <i2c_master_init+0xe0>)
    1abc:	4798      	blx	r3
    1abe:	e007      	b.n	1ad0 <i2c_master_init+0x68>
    1ac0:	2201      	movs	r2, #1
    1ac2:	6a7b      	ldr	r3, [r7, #36]	; 0x24
    1ac4:	409a      	lsls	r2, r3
    1ac6:	0013      	movs	r3, r2
    1ac8:	0019      	movs	r1, r3
    1aca:	2002      	movs	r0, #2
    1acc:	4b1e      	ldr	r3, [pc, #120]	; (1b48 <i2c_master_init+0xe0>)
    1ace:	4798      	blx	r3
    1ad0:	2314      	movs	r3, #20
    1ad2:	18fb      	adds	r3, r7, r3
    1ad4:	0018      	movs	r0, r3
    1ad6:	4b1d      	ldr	r3, [pc, #116]	; (1b4c <i2c_master_init+0xe4>)
    1ad8:	4798      	blx	r3
    1ada:	687b      	ldr	r3, [r7, #4]
    1adc:	7b1a      	ldrb	r2, [r3, #12]
    1ade:	2314      	movs	r3, #20
    1ae0:	18fb      	adds	r3, r7, r3
    1ae2:	701a      	strb	r2, [r3, #0]
    1ae4:	6a3b      	ldr	r3, [r7, #32]
    1ae6:	b2db      	uxtb	r3, r3
    1ae8:	2214      	movs	r2, #20
    1aea:	18ba      	adds	r2, r7, r2
    1aec:	0011      	movs	r1, r2
    1aee:	0018      	movs	r0, r3
    1af0:	4b17      	ldr	r3, [pc, #92]	; (1b50 <i2c_master_init+0xe8>)
    1af2:	4798      	blx	r3
    1af4:	6a3b      	ldr	r3, [r7, #32]
    1af6:	b2db      	uxtb	r3, r3
    1af8:	0018      	movs	r0, r3
    1afa:	4b16      	ldr	r3, [pc, #88]	; (1b54 <i2c_master_init+0xec>)
    1afc:	4798      	blx	r3
    1afe:	687b      	ldr	r3, [r7, #4]
    1b00:	7b1b      	ldrb	r3, [r3, #12]
    1b02:	2100      	movs	r1, #0
    1b04:	0018      	movs	r0, r3
    1b06:	4b14      	ldr	r3, [pc, #80]	; (1b58 <i2c_master_init+0xf0>)
    1b08:	4798      	blx	r3
    1b0a:	69fb      	ldr	r3, [r7, #28]
    1b0c:	681b      	ldr	r3, [r3, #0]
    1b0e:	2202      	movs	r2, #2
    1b10:	4013      	ands	r3, r2
    1b12:	d001      	beq.n	1b18 <i2c_master_init+0xb0>
    1b14:	231c      	movs	r3, #28
    1b16:	e010      	b.n	1b3a <i2c_master_init+0xd2>
    1b18:	69fb      	ldr	r3, [r7, #28]
    1b1a:	681b      	ldr	r3, [r3, #0]
    1b1c:	2201      	movs	r2, #1
    1b1e:	4013      	ands	r3, r2
    1b20:	d001      	beq.n	1b26 <i2c_master_init+0xbe>
    1b22:	2305      	movs	r3, #5
    1b24:	e009      	b.n	1b3a <i2c_master_init+0xd2>
    1b26:	69fb      	ldr	r3, [r7, #28]
    1b28:	2214      	movs	r2, #20
    1b2a:	601a      	str	r2, [r3, #0]
    1b2c:	687a      	ldr	r2, [r7, #4]
    1b2e:	68fb      	ldr	r3, [r7, #12]
    1b30:	0011      	movs	r1, r2
    1b32:	0018      	movs	r0, r3
    1b34:	4b09      	ldr	r3, [pc, #36]	; (1b5c <i2c_master_init+0xf4>)
    1b36:	4798      	blx	r3
    1b38:	0003      	movs	r3, r0
    1b3a:	0018      	movs	r0, r3
    1b3c:	46bd      	mov	sp, r7
    1b3e:	b00a      	add	sp, #40	; 0x28
    1b40:	bd80      	pop	{r7, pc}
    1b42:	46c0      	nop			; (mov r8, r8)
    1b44:	00003f25 	.word	0x00003f25
    1b48:	0000154d 	.word	0x0000154d
    1b4c:	00001535 	.word	0x00001535
    1b50:	0000484d 	.word	0x0000484d
    1b54:	0000488d 	.word	0x0000488d
    1b58:	00003cdd 	.word	0x00003cdd
    1b5c:	00001659 	.word	0x00001659

00001b60 <_i2c_master_address_response>:
    1b60:	b580      	push	{r7, lr}
    1b62:	b084      	sub	sp, #16
    1b64:	af00      	add	r7, sp, #0
    1b66:	6078      	str	r0, [r7, #4]
    1b68:	687b      	ldr	r3, [r7, #4]
    1b6a:	681b      	ldr	r3, [r3, #0]
    1b6c:	60fb      	str	r3, [r7, #12]
    1b6e:	68fb      	ldr	r3, [r7, #12]
    1b70:	7e1b      	ldrb	r3, [r3, #24]
    1b72:	b2db      	uxtb	r3, r3
    1b74:	001a      	movs	r2, r3
    1b76:	2302      	movs	r3, #2
    1b78:	4013      	ands	r3, r2
    1b7a:	d00b      	beq.n	1b94 <_i2c_master_address_response+0x34>
    1b7c:	68fb      	ldr	r3, [r7, #12]
    1b7e:	2202      	movs	r2, #2
    1b80:	761a      	strb	r2, [r3, #24]
    1b82:	68fb      	ldr	r3, [r7, #12]
    1b84:	8b5b      	ldrh	r3, [r3, #26]
    1b86:	b29b      	uxth	r3, r3
    1b88:	001a      	movs	r2, r3
    1b8a:	2302      	movs	r3, #2
    1b8c:	4013      	ands	r3, r2
    1b8e:	d011      	beq.n	1bb4 <_i2c_master_address_response+0x54>
    1b90:	2341      	movs	r3, #65	; 0x41
    1b92:	e010      	b.n	1bb6 <_i2c_master_address_response+0x56>
    1b94:	68fb      	ldr	r3, [r7, #12]
    1b96:	8b5b      	ldrh	r3, [r3, #26]
    1b98:	b29b      	uxth	r3, r3
    1b9a:	001a      	movs	r2, r3
    1b9c:	2304      	movs	r3, #4
    1b9e:	4013      	ands	r3, r2
    1ba0:	d008      	beq.n	1bb4 <_i2c_master_address_response+0x54>
    1ba2:	68fb      	ldr	r3, [r7, #12]
    1ba4:	685b      	ldr	r3, [r3, #4]
    1ba6:	22c0      	movs	r2, #192	; 0xc0
    1ba8:	0292      	lsls	r2, r2, #10
    1baa:	431a      	orrs	r2, r3
    1bac:	68fb      	ldr	r3, [r7, #12]
    1bae:	605a      	str	r2, [r3, #4]
    1bb0:	2318      	movs	r3, #24
    1bb2:	e000      	b.n	1bb6 <_i2c_master_address_response+0x56>
    1bb4:	2300      	movs	r3, #0
    1bb6:	0018      	movs	r0, r3
    1bb8:	46bd      	mov	sp, r7
    1bba:	b004      	add	sp, #16
    1bbc:	bd80      	pop	{r7, pc}

00001bbe <_i2c_master_wait_for_bus>:
    1bbe:	b580      	push	{r7, lr}
    1bc0:	b084      	sub	sp, #16
    1bc2:	af00      	add	r7, sp, #0
    1bc4:	6078      	str	r0, [r7, #4]
    1bc6:	687b      	ldr	r3, [r7, #4]
    1bc8:	681b      	ldr	r3, [r3, #0]
    1bca:	60bb      	str	r3, [r7, #8]
    1bcc:	230e      	movs	r3, #14
    1bce:	18fb      	adds	r3, r7, r3
    1bd0:	2200      	movs	r2, #0
    1bd2:	801a      	strh	r2, [r3, #0]
    1bd4:	e00f      	b.n	1bf6 <_i2c_master_wait_for_bus+0x38>
    1bd6:	230e      	movs	r3, #14
    1bd8:	18fb      	adds	r3, r7, r3
    1bda:	220e      	movs	r2, #14
    1bdc:	18ba      	adds	r2, r7, r2
    1bde:	8812      	ldrh	r2, [r2, #0]
    1be0:	3201      	adds	r2, #1
    1be2:	801a      	strh	r2, [r3, #0]
    1be4:	687b      	ldr	r3, [r7, #4]
    1be6:	891b      	ldrh	r3, [r3, #8]
    1be8:	220e      	movs	r2, #14
    1bea:	18ba      	adds	r2, r7, r2
    1bec:	8812      	ldrh	r2, [r2, #0]
    1bee:	429a      	cmp	r2, r3
    1bf0:	d301      	bcc.n	1bf6 <_i2c_master_wait_for_bus+0x38>
    1bf2:	2312      	movs	r3, #18
    1bf4:	e00e      	b.n	1c14 <_i2c_master_wait_for_bus+0x56>
    1bf6:	68bb      	ldr	r3, [r7, #8]
    1bf8:	7e1b      	ldrb	r3, [r3, #24]
    1bfa:	b2db      	uxtb	r3, r3
    1bfc:	001a      	movs	r2, r3
    1bfe:	2301      	movs	r3, #1
    1c00:	4013      	ands	r3, r2
    1c02:	d106      	bne.n	1c12 <_i2c_master_wait_for_bus+0x54>
    1c04:	68bb      	ldr	r3, [r7, #8]
    1c06:	7e1b      	ldrb	r3, [r3, #24]
    1c08:	b2db      	uxtb	r3, r3
    1c0a:	001a      	movs	r2, r3
    1c0c:	2302      	movs	r3, #2
    1c0e:	4013      	ands	r3, r2
    1c10:	d0e1      	beq.n	1bd6 <_i2c_master_wait_for_bus+0x18>
    1c12:	2300      	movs	r3, #0
    1c14:	0018      	movs	r0, r3
    1c16:	46bd      	mov	sp, r7
    1c18:	b004      	add	sp, #16
    1c1a:	bd80      	pop	{r7, pc}

00001c1c <_i2c_master_send_hs_master_code>:
    1c1c:	b590      	push	{r4, r7, lr}
    1c1e:	b085      	sub	sp, #20
    1c20:	af00      	add	r7, sp, #0
    1c22:	6078      	str	r0, [r7, #4]
    1c24:	000a      	movs	r2, r1
    1c26:	1cfb      	adds	r3, r7, #3
    1c28:	701a      	strb	r2, [r3, #0]
    1c2a:	687b      	ldr	r3, [r7, #4]
    1c2c:	681b      	ldr	r3, [r3, #0]
    1c2e:	60fb      	str	r3, [r7, #12]
    1c30:	68fb      	ldr	r3, [r7, #12]
    1c32:	685b      	ldr	r3, [r3, #4]
    1c34:	2280      	movs	r2, #128	; 0x80
    1c36:	02d2      	lsls	r2, r2, #11
    1c38:	431a      	orrs	r2, r3
    1c3a:	68fb      	ldr	r3, [r7, #12]
    1c3c:	605a      	str	r2, [r3, #4]
    1c3e:	1cfb      	adds	r3, r7, #3
    1c40:	781a      	ldrb	r2, [r3, #0]
    1c42:	68fb      	ldr	r3, [r7, #12]
    1c44:	625a      	str	r2, [r3, #36]	; 0x24
    1c46:	230b      	movs	r3, #11
    1c48:	18fc      	adds	r4, r7, r3
    1c4a:	687b      	ldr	r3, [r7, #4]
    1c4c:	0018      	movs	r0, r3
    1c4e:	4b07      	ldr	r3, [pc, #28]	; (1c6c <_i2c_master_send_hs_master_code+0x50>)
    1c50:	4798      	blx	r3
    1c52:	0003      	movs	r3, r0
    1c54:	7023      	strb	r3, [r4, #0]
    1c56:	68fb      	ldr	r3, [r7, #12]
    1c58:	2201      	movs	r2, #1
    1c5a:	761a      	strb	r2, [r3, #24]
    1c5c:	230b      	movs	r3, #11
    1c5e:	18fb      	adds	r3, r7, r3
    1c60:	781b      	ldrb	r3, [r3, #0]
    1c62:	0018      	movs	r0, r3
    1c64:	46bd      	mov	sp, r7
    1c66:	b005      	add	sp, #20
    1c68:	bd90      	pop	{r4, r7, pc}
    1c6a:	46c0      	nop			; (mov r8, r8)
    1c6c:	00001bbf 	.word	0x00001bbf

00001c70 <_i2c_master_read_packet>:
    1c70:	b590      	push	{r4, r7, lr}
    1c72:	b087      	sub	sp, #28
    1c74:	af00      	add	r7, sp, #0
    1c76:	6078      	str	r0, [r7, #4]
    1c78:	6039      	str	r1, [r7, #0]
    1c7a:	687b      	ldr	r3, [r7, #4]
    1c7c:	681b      	ldr	r3, [r3, #0]
    1c7e:	60fb      	str	r3, [r7, #12]
    1c80:	2314      	movs	r3, #20
    1c82:	18fb      	adds	r3, r7, r3
    1c84:	683a      	ldr	r2, [r7, #0]
    1c86:	8852      	ldrh	r2, [r2, #2]
    1c88:	801a      	strh	r2, [r3, #0]
    1c8a:	2312      	movs	r3, #18
    1c8c:	18fb      	adds	r3, r7, r3
    1c8e:	2200      	movs	r2, #0
    1c90:	801a      	strh	r2, [r3, #0]
    1c92:	68fb      	ldr	r3, [r7, #12]
    1c94:	681b      	ldr	r3, [r3, #0]
    1c96:	011b      	lsls	r3, r3, #4
    1c98:	0fdb      	lsrs	r3, r3, #31
    1c9a:	b2db      	uxtb	r3, r3
    1c9c:	001a      	movs	r2, r3
    1c9e:	230b      	movs	r3, #11
    1ca0:	18fb      	adds	r3, r7, r3
    1ca2:	1e51      	subs	r1, r2, #1
    1ca4:	418a      	sbcs	r2, r1
    1ca6:	701a      	strb	r2, [r3, #0]
    1ca8:	683b      	ldr	r3, [r7, #0]
    1caa:	7a5b      	ldrb	r3, [r3, #9]
    1cac:	2b00      	cmp	r3, #0
    1cae:	d006      	beq.n	1cbe <_i2c_master_read_packet+0x4e>
    1cb0:	683b      	ldr	r3, [r7, #0]
    1cb2:	7a9a      	ldrb	r2, [r3, #10]
    1cb4:	687b      	ldr	r3, [r7, #4]
    1cb6:	0011      	movs	r1, r2
    1cb8:	0018      	movs	r0, r3
    1cba:	4b85      	ldr	r3, [pc, #532]	; (1ed0 <_i2c_master_read_packet+0x260>)
    1cbc:	4798      	blx	r3
    1cbe:	68fb      	ldr	r3, [r7, #12]
    1cc0:	685b      	ldr	r3, [r3, #4]
    1cc2:	4a84      	ldr	r2, [pc, #528]	; (1ed4 <_i2c_master_read_packet+0x264>)
    1cc4:	401a      	ands	r2, r3
    1cc6:	68fb      	ldr	r3, [r7, #12]
    1cc8:	605a      	str	r2, [r3, #4]
    1cca:	683b      	ldr	r3, [r7, #0]
    1ccc:	7a1b      	ldrb	r3, [r3, #8]
    1cce:	2b00      	cmp	r3, #0
    1cd0:	d042      	beq.n	1d58 <_i2c_master_read_packet+0xe8>
    1cd2:	683b      	ldr	r3, [r7, #0]
    1cd4:	881b      	ldrh	r3, [r3, #0]
    1cd6:	005a      	lsls	r2, r3, #1
    1cd8:	683b      	ldr	r3, [r7, #0]
    1cda:	7a5b      	ldrb	r3, [r3, #9]
    1cdc:	039b      	lsls	r3, r3, #14
    1cde:	4313      	orrs	r3, r2
    1ce0:	001a      	movs	r2, r3
    1ce2:	2380      	movs	r3, #128	; 0x80
    1ce4:	021b      	lsls	r3, r3, #8
    1ce6:	431a      	orrs	r2, r3
    1ce8:	68fb      	ldr	r3, [r7, #12]
    1cea:	625a      	str	r2, [r3, #36]	; 0x24
    1cec:	2317      	movs	r3, #23
    1cee:	18fc      	adds	r4, r7, r3
    1cf0:	687b      	ldr	r3, [r7, #4]
    1cf2:	0018      	movs	r0, r3
    1cf4:	4b78      	ldr	r3, [pc, #480]	; (1ed8 <_i2c_master_read_packet+0x268>)
    1cf6:	4798      	blx	r3
    1cf8:	0003      	movs	r3, r0
    1cfa:	7023      	strb	r3, [r4, #0]
    1cfc:	68fb      	ldr	r3, [r7, #12]
    1cfe:	685b      	ldr	r3, [r3, #4]
    1d00:	4a74      	ldr	r2, [pc, #464]	; (1ed4 <_i2c_master_read_packet+0x264>)
    1d02:	401a      	ands	r2, r3
    1d04:	68fb      	ldr	r3, [r7, #12]
    1d06:	605a      	str	r2, [r3, #4]
    1d08:	2317      	movs	r3, #23
    1d0a:	18fb      	adds	r3, r7, r3
    1d0c:	781b      	ldrb	r3, [r3, #0]
    1d0e:	2b00      	cmp	r3, #0
    1d10:	d107      	bne.n	1d22 <_i2c_master_read_packet+0xb2>
    1d12:	2317      	movs	r3, #23
    1d14:	18fc      	adds	r4, r7, r3
    1d16:	687b      	ldr	r3, [r7, #4]
    1d18:	0018      	movs	r0, r3
    1d1a:	4b70      	ldr	r3, [pc, #448]	; (1edc <_i2c_master_read_packet+0x26c>)
    1d1c:	4798      	blx	r3
    1d1e:	0003      	movs	r3, r0
    1d20:	7023      	strb	r3, [r4, #0]
    1d22:	2317      	movs	r3, #23
    1d24:	18fb      	adds	r3, r7, r3
    1d26:	781b      	ldrb	r3, [r3, #0]
    1d28:	2b00      	cmp	r3, #0
    1d2a:	d111      	bne.n	1d50 <_i2c_master_read_packet+0xe0>
    1d2c:	683b      	ldr	r3, [r7, #0]
    1d2e:	881b      	ldrh	r3, [r3, #0]
    1d30:	0a1b      	lsrs	r3, r3, #8
    1d32:	b29b      	uxth	r3, r3
    1d34:	2278      	movs	r2, #120	; 0x78
    1d36:	4313      	orrs	r3, r2
    1d38:	b29b      	uxth	r3, r3
    1d3a:	005a      	lsls	r2, r3, #1
    1d3c:	683b      	ldr	r3, [r7, #0]
    1d3e:	7a5b      	ldrb	r3, [r3, #9]
    1d40:	039b      	lsls	r3, r3, #14
    1d42:	4313      	orrs	r3, r2
    1d44:	2201      	movs	r2, #1
    1d46:	4313      	orrs	r3, r2
    1d48:	001a      	movs	r2, r3
    1d4a:	68fb      	ldr	r3, [r7, #12]
    1d4c:	625a      	str	r2, [r3, #36]	; 0x24
    1d4e:	e00f      	b.n	1d70 <_i2c_master_read_packet+0x100>
    1d50:	2317      	movs	r3, #23
    1d52:	18fb      	adds	r3, r7, r3
    1d54:	781b      	ldrb	r3, [r3, #0]
    1d56:	e0b6      	b.n	1ec6 <_i2c_master_read_packet+0x256>
    1d58:	683b      	ldr	r3, [r7, #0]
    1d5a:	881b      	ldrh	r3, [r3, #0]
    1d5c:	005b      	lsls	r3, r3, #1
    1d5e:	2201      	movs	r2, #1
    1d60:	431a      	orrs	r2, r3
    1d62:	683b      	ldr	r3, [r7, #0]
    1d64:	7a5b      	ldrb	r3, [r3, #9]
    1d66:	039b      	lsls	r3, r3, #14
    1d68:	4313      	orrs	r3, r2
    1d6a:	001a      	movs	r2, r3
    1d6c:	68fb      	ldr	r3, [r7, #12]
    1d6e:	625a      	str	r2, [r3, #36]	; 0x24
    1d70:	2317      	movs	r3, #23
    1d72:	18fc      	adds	r4, r7, r3
    1d74:	687b      	ldr	r3, [r7, #4]
    1d76:	0018      	movs	r0, r3
    1d78:	4b57      	ldr	r3, [pc, #348]	; (1ed8 <_i2c_master_read_packet+0x268>)
    1d7a:	4798      	blx	r3
    1d7c:	0003      	movs	r3, r0
    1d7e:	7023      	strb	r3, [r4, #0]
    1d80:	230b      	movs	r3, #11
    1d82:	18fb      	adds	r3, r7, r3
    1d84:	781b      	ldrb	r3, [r3, #0]
    1d86:	2b00      	cmp	r3, #0
    1d88:	d00b      	beq.n	1da2 <_i2c_master_read_packet+0x132>
    1d8a:	683b      	ldr	r3, [r7, #0]
    1d8c:	885b      	ldrh	r3, [r3, #2]
    1d8e:	2b01      	cmp	r3, #1
    1d90:	d107      	bne.n	1da2 <_i2c_master_read_packet+0x132>
    1d92:	68fb      	ldr	r3, [r7, #12]
    1d94:	685b      	ldr	r3, [r3, #4]
    1d96:	2280      	movs	r2, #128	; 0x80
    1d98:	02d2      	lsls	r2, r2, #11
    1d9a:	431a      	orrs	r2, r3
    1d9c:	68fb      	ldr	r3, [r7, #12]
    1d9e:	605a      	str	r2, [r3, #4]
    1da0:	e005      	b.n	1dae <_i2c_master_read_packet+0x13e>
    1da2:	68fb      	ldr	r3, [r7, #12]
    1da4:	685b      	ldr	r3, [r3, #4]
    1da6:	4a4b      	ldr	r2, [pc, #300]	; (1ed4 <_i2c_master_read_packet+0x264>)
    1da8:	401a      	ands	r2, r3
    1daa:	68fb      	ldr	r3, [r7, #12]
    1dac:	605a      	str	r2, [r3, #4]
    1dae:	2317      	movs	r3, #23
    1db0:	18fb      	adds	r3, r7, r3
    1db2:	781b      	ldrb	r3, [r3, #0]
    1db4:	2b00      	cmp	r3, #0
    1db6:	d107      	bne.n	1dc8 <_i2c_master_read_packet+0x158>
    1db8:	2317      	movs	r3, #23
    1dba:	18fc      	adds	r4, r7, r3
    1dbc:	687b      	ldr	r3, [r7, #4]
    1dbe:	0018      	movs	r0, r3
    1dc0:	4b46      	ldr	r3, [pc, #280]	; (1edc <_i2c_master_read_packet+0x26c>)
    1dc2:	4798      	blx	r3
    1dc4:	0003      	movs	r3, r0
    1dc6:	7023      	strb	r3, [r4, #0]
    1dc8:	2317      	movs	r3, #23
    1dca:	18fb      	adds	r3, r7, r3
    1dcc:	781b      	ldrb	r3, [r3, #0]
    1dce:	2b00      	cmp	r3, #0
    1dd0:	d000      	beq.n	1dd4 <_i2c_master_read_packet+0x164>
    1dd2:	e075      	b.n	1ec0 <_i2c_master_read_packet+0x250>
    1dd4:	e04b      	b.n	1e6e <_i2c_master_read_packet+0x1fe>
    1dd6:	68fb      	ldr	r3, [r7, #12]
    1dd8:	8b5b      	ldrh	r3, [r3, #26]
    1dda:	b29b      	uxth	r3, r3
    1ddc:	001a      	movs	r2, r3
    1dde:	2320      	movs	r3, #32
    1de0:	4013      	ands	r3, r2
    1de2:	d101      	bne.n	1de8 <_i2c_master_read_packet+0x178>
    1de4:	2341      	movs	r3, #65	; 0x41
    1de6:	e06e      	b.n	1ec6 <_i2c_master_read_packet+0x256>
    1de8:	687b      	ldr	r3, [r7, #4]
    1dea:	7adb      	ldrb	r3, [r3, #11]
    1dec:	2b00      	cmp	r3, #0
    1dee:	d01e      	beq.n	1e2e <_i2c_master_read_packet+0x1be>
    1df0:	230b      	movs	r3, #11
    1df2:	18fb      	adds	r3, r7, r3
    1df4:	781b      	ldrb	r3, [r3, #0]
    1df6:	2201      	movs	r2, #1
    1df8:	4053      	eors	r3, r2
    1dfa:	b2db      	uxtb	r3, r3
    1dfc:	2b00      	cmp	r3, #0
    1dfe:	d004      	beq.n	1e0a <_i2c_master_read_packet+0x19a>
    1e00:	2314      	movs	r3, #20
    1e02:	18fb      	adds	r3, r7, r3
    1e04:	881b      	ldrh	r3, [r3, #0]
    1e06:	2b00      	cmp	r3, #0
    1e08:	d009      	beq.n	1e1e <_i2c_master_read_packet+0x1ae>
    1e0a:	230b      	movs	r3, #11
    1e0c:	18fb      	adds	r3, r7, r3
    1e0e:	781b      	ldrb	r3, [r3, #0]
    1e10:	2b00      	cmp	r3, #0
    1e12:	d00c      	beq.n	1e2e <_i2c_master_read_packet+0x1be>
    1e14:	2314      	movs	r3, #20
    1e16:	18fb      	adds	r3, r7, r3
    1e18:	881b      	ldrh	r3, [r3, #0]
    1e1a:	2b01      	cmp	r3, #1
    1e1c:	d107      	bne.n	1e2e <_i2c_master_read_packet+0x1be>
    1e1e:	68fb      	ldr	r3, [r7, #12]
    1e20:	685b      	ldr	r3, [r3, #4]
    1e22:	2280      	movs	r2, #128	; 0x80
    1e24:	02d2      	lsls	r2, r2, #11
    1e26:	431a      	orrs	r2, r3
    1e28:	68fb      	ldr	r3, [r7, #12]
    1e2a:	605a      	str	r2, [r3, #4]
    1e2c:	e01a      	b.n	1e64 <_i2c_master_read_packet+0x1f4>
    1e2e:	687b      	ldr	r3, [r7, #4]
    1e30:	0018      	movs	r0, r3
    1e32:	4b2b      	ldr	r3, [pc, #172]	; (1ee0 <_i2c_master_read_packet+0x270>)
    1e34:	4798      	blx	r3
    1e36:	683b      	ldr	r3, [r7, #0]
    1e38:	685a      	ldr	r2, [r3, #4]
    1e3a:	2312      	movs	r3, #18
    1e3c:	18fb      	adds	r3, r7, r3
    1e3e:	881b      	ldrh	r3, [r3, #0]
    1e40:	2112      	movs	r1, #18
    1e42:	1879      	adds	r1, r7, r1
    1e44:	1c58      	adds	r0, r3, #1
    1e46:	8008      	strh	r0, [r1, #0]
    1e48:	18d3      	adds	r3, r2, r3
    1e4a:	68fa      	ldr	r2, [r7, #12]
    1e4c:	2128      	movs	r1, #40	; 0x28
    1e4e:	5c52      	ldrb	r2, [r2, r1]
    1e50:	b2d2      	uxtb	r2, r2
    1e52:	701a      	strb	r2, [r3, #0]
    1e54:	2317      	movs	r3, #23
    1e56:	18fc      	adds	r4, r7, r3
    1e58:	687b      	ldr	r3, [r7, #4]
    1e5a:	0018      	movs	r0, r3
    1e5c:	4b1e      	ldr	r3, [pc, #120]	; (1ed8 <_i2c_master_read_packet+0x268>)
    1e5e:	4798      	blx	r3
    1e60:	0003      	movs	r3, r0
    1e62:	7023      	strb	r3, [r4, #0]
    1e64:	2317      	movs	r3, #23
    1e66:	18fb      	adds	r3, r7, r3
    1e68:	781b      	ldrb	r3, [r3, #0]
    1e6a:	2b00      	cmp	r3, #0
    1e6c:	d109      	bne.n	1e82 <_i2c_master_read_packet+0x212>
    1e6e:	2314      	movs	r3, #20
    1e70:	18fb      	adds	r3, r7, r3
    1e72:	881b      	ldrh	r3, [r3, #0]
    1e74:	2214      	movs	r2, #20
    1e76:	18ba      	adds	r2, r7, r2
    1e78:	1e59      	subs	r1, r3, #1
    1e7a:	8011      	strh	r1, [r2, #0]
    1e7c:	2b00      	cmp	r3, #0
    1e7e:	d1aa      	bne.n	1dd6 <_i2c_master_read_packet+0x166>
    1e80:	e000      	b.n	1e84 <_i2c_master_read_packet+0x214>
    1e82:	46c0      	nop			; (mov r8, r8)
    1e84:	687b      	ldr	r3, [r7, #4]
    1e86:	7a9b      	ldrb	r3, [r3, #10]
    1e88:	2b00      	cmp	r3, #0
    1e8a:	d00a      	beq.n	1ea2 <_i2c_master_read_packet+0x232>
    1e8c:	687b      	ldr	r3, [r7, #4]
    1e8e:	0018      	movs	r0, r3
    1e90:	4b13      	ldr	r3, [pc, #76]	; (1ee0 <_i2c_master_read_packet+0x270>)
    1e92:	4798      	blx	r3
    1e94:	68fb      	ldr	r3, [r7, #12]
    1e96:	685b      	ldr	r3, [r3, #4]
    1e98:	22c0      	movs	r2, #192	; 0xc0
    1e9a:	0292      	lsls	r2, r2, #10
    1e9c:	431a      	orrs	r2, r3
    1e9e:	68fb      	ldr	r3, [r7, #12]
    1ea0:	605a      	str	r2, [r3, #4]
    1ea2:	687b      	ldr	r3, [r7, #4]
    1ea4:	0018      	movs	r0, r3
    1ea6:	4b0e      	ldr	r3, [pc, #56]	; (1ee0 <_i2c_master_read_packet+0x270>)
    1ea8:	4798      	blx	r3
    1eaa:	683b      	ldr	r3, [r7, #0]
    1eac:	685a      	ldr	r2, [r3, #4]
    1eae:	2312      	movs	r3, #18
    1eb0:	18fb      	adds	r3, r7, r3
    1eb2:	881b      	ldrh	r3, [r3, #0]
    1eb4:	18d3      	adds	r3, r2, r3
    1eb6:	68fa      	ldr	r2, [r7, #12]
    1eb8:	2128      	movs	r1, #40	; 0x28
    1eba:	5c52      	ldrb	r2, [r2, r1]
    1ebc:	b2d2      	uxtb	r2, r2
    1ebe:	701a      	strb	r2, [r3, #0]
    1ec0:	2317      	movs	r3, #23
    1ec2:	18fb      	adds	r3, r7, r3
    1ec4:	781b      	ldrb	r3, [r3, #0]
    1ec6:	0018      	movs	r0, r3
    1ec8:	46bd      	mov	sp, r7
    1eca:	b007      	add	sp, #28
    1ecc:	bd90      	pop	{r4, r7, pc}
    1ece:	46c0      	nop			; (mov r8, r8)
    1ed0:	00001c1d 	.word	0x00001c1d
    1ed4:	fffbffff 	.word	0xfffbffff
    1ed8:	00001bbf 	.word	0x00001bbf
    1edc:	00001b61 	.word	0x00001b61
    1ee0:	00001635 	.word	0x00001635

00001ee4 <i2c_master_read_packet_wait>:
    1ee4:	b580      	push	{r7, lr}
    1ee6:	b082      	sub	sp, #8
    1ee8:	af00      	add	r7, sp, #0
    1eea:	6078      	str	r0, [r7, #4]
    1eec:	6039      	str	r1, [r7, #0]
    1eee:	687b      	ldr	r3, [r7, #4]
    1ef0:	2201      	movs	r2, #1
    1ef2:	729a      	strb	r2, [r3, #10]
    1ef4:	687b      	ldr	r3, [r7, #4]
    1ef6:	2201      	movs	r2, #1
    1ef8:	72da      	strb	r2, [r3, #11]
    1efa:	683a      	ldr	r2, [r7, #0]
    1efc:	687b      	ldr	r3, [r7, #4]
    1efe:	0011      	movs	r1, r2
    1f00:	0018      	movs	r0, r3
    1f02:	4b03      	ldr	r3, [pc, #12]	; (1f10 <i2c_master_read_packet_wait+0x2c>)
    1f04:	4798      	blx	r3
    1f06:	0003      	movs	r3, r0
    1f08:	0018      	movs	r0, r3
    1f0a:	46bd      	mov	sp, r7
    1f0c:	b002      	add	sp, #8
    1f0e:	bd80      	pop	{r7, pc}
    1f10:	00001c71 	.word	0x00001c71

00001f14 <_i2c_master_write_packet>:
    1f14:	b590      	push	{r4, r7, lr}
    1f16:	b087      	sub	sp, #28
    1f18:	af00      	add	r7, sp, #0
    1f1a:	6078      	str	r0, [r7, #4]
    1f1c:	6039      	str	r1, [r7, #0]
    1f1e:	687b      	ldr	r3, [r7, #4]
    1f20:	681b      	ldr	r3, [r3, #0]
    1f22:	60fb      	str	r3, [r7, #12]
    1f24:	2314      	movs	r3, #20
    1f26:	18fb      	adds	r3, r7, r3
    1f28:	683a      	ldr	r2, [r7, #0]
    1f2a:	8852      	ldrh	r2, [r2, #2]
    1f2c:	801a      	strh	r2, [r3, #0]
    1f2e:	687b      	ldr	r3, [r7, #4]
    1f30:	0018      	movs	r0, r3
    1f32:	4b51      	ldr	r3, [pc, #324]	; (2078 <STACK_SIZE+0x78>)
    1f34:	4798      	blx	r3
    1f36:	683b      	ldr	r3, [r7, #0]
    1f38:	7a5b      	ldrb	r3, [r3, #9]
    1f3a:	2b00      	cmp	r3, #0
    1f3c:	d006      	beq.n	1f4c <_i2c_master_write_packet+0x38>
    1f3e:	683b      	ldr	r3, [r7, #0]
    1f40:	7a9a      	ldrb	r2, [r3, #10]
    1f42:	687b      	ldr	r3, [r7, #4]
    1f44:	0011      	movs	r1, r2
    1f46:	0018      	movs	r0, r3
    1f48:	4b4c      	ldr	r3, [pc, #304]	; (207c <STACK_SIZE+0x7c>)
    1f4a:	4798      	blx	r3
    1f4c:	68fb      	ldr	r3, [r7, #12]
    1f4e:	685b      	ldr	r3, [r3, #4]
    1f50:	4a4b      	ldr	r2, [pc, #300]	; (2080 <STACK_SIZE+0x80>)
    1f52:	401a      	ands	r2, r3
    1f54:	68fb      	ldr	r3, [r7, #12]
    1f56:	605a      	str	r2, [r3, #4]
    1f58:	683b      	ldr	r3, [r7, #0]
    1f5a:	7a1b      	ldrb	r3, [r3, #8]
    1f5c:	2b00      	cmp	r3, #0
    1f5e:	d00d      	beq.n	1f7c <_i2c_master_write_packet+0x68>
    1f60:	683b      	ldr	r3, [r7, #0]
    1f62:	881b      	ldrh	r3, [r3, #0]
    1f64:	005a      	lsls	r2, r3, #1
    1f66:	683b      	ldr	r3, [r7, #0]
    1f68:	7a5b      	ldrb	r3, [r3, #9]
    1f6a:	039b      	lsls	r3, r3, #14
    1f6c:	4313      	orrs	r3, r2
    1f6e:	001a      	movs	r2, r3
    1f70:	2380      	movs	r3, #128	; 0x80
    1f72:	021b      	lsls	r3, r3, #8
    1f74:	431a      	orrs	r2, r3
    1f76:	68fb      	ldr	r3, [r7, #12]
    1f78:	625a      	str	r2, [r3, #36]	; 0x24
    1f7a:	e009      	b.n	1f90 <_i2c_master_write_packet+0x7c>
    1f7c:	683b      	ldr	r3, [r7, #0]
    1f7e:	881b      	ldrh	r3, [r3, #0]
    1f80:	005a      	lsls	r2, r3, #1
    1f82:	683b      	ldr	r3, [r7, #0]
    1f84:	7a5b      	ldrb	r3, [r3, #9]
    1f86:	039b      	lsls	r3, r3, #14
    1f88:	4313      	orrs	r3, r2
    1f8a:	001a      	movs	r2, r3
    1f8c:	68fb      	ldr	r3, [r7, #12]
    1f8e:	625a      	str	r2, [r3, #36]	; 0x24
    1f90:	2317      	movs	r3, #23
    1f92:	18fc      	adds	r4, r7, r3
    1f94:	687b      	ldr	r3, [r7, #4]
    1f96:	0018      	movs	r0, r3
    1f98:	4b3a      	ldr	r3, [pc, #232]	; (2084 <STACK_SIZE+0x84>)
    1f9a:	4798      	blx	r3
    1f9c:	0003      	movs	r3, r0
    1f9e:	7023      	strb	r3, [r4, #0]
    1fa0:	2317      	movs	r3, #23
    1fa2:	18fb      	adds	r3, r7, r3
    1fa4:	781b      	ldrb	r3, [r3, #0]
    1fa6:	2b00      	cmp	r3, #0
    1fa8:	d107      	bne.n	1fba <_i2c_master_write_packet+0xa6>
    1faa:	2317      	movs	r3, #23
    1fac:	18fc      	adds	r4, r7, r3
    1fae:	687b      	ldr	r3, [r7, #4]
    1fb0:	0018      	movs	r0, r3
    1fb2:	4b35      	ldr	r3, [pc, #212]	; (2088 <STACK_SIZE+0x88>)
    1fb4:	4798      	blx	r3
    1fb6:	0003      	movs	r3, r0
    1fb8:	7023      	strb	r3, [r4, #0]
    1fba:	2317      	movs	r3, #23
    1fbc:	18fb      	adds	r3, r7, r3
    1fbe:	781b      	ldrb	r3, [r3, #0]
    1fc0:	2b00      	cmp	r3, #0
    1fc2:	d152      	bne.n	206a <STACK_SIZE+0x6a>
    1fc4:	2312      	movs	r3, #18
    1fc6:	18fb      	adds	r3, r7, r3
    1fc8:	2200      	movs	r2, #0
    1fca:	801a      	strh	r2, [r3, #0]
    1fcc:	e033      	b.n	2036 <STACK_SIZE+0x36>
    1fce:	68fb      	ldr	r3, [r7, #12]
    1fd0:	8b5b      	ldrh	r3, [r3, #26]
    1fd2:	b29b      	uxth	r3, r3
    1fd4:	001a      	movs	r2, r3
    1fd6:	2320      	movs	r3, #32
    1fd8:	4013      	ands	r3, r2
    1fda:	d101      	bne.n	1fe0 <_i2c_master_write_packet+0xcc>
    1fdc:	2341      	movs	r3, #65	; 0x41
    1fde:	e047      	b.n	2070 <STACK_SIZE+0x70>
    1fe0:	687b      	ldr	r3, [r7, #4]
    1fe2:	0018      	movs	r0, r3
    1fe4:	4b24      	ldr	r3, [pc, #144]	; (2078 <STACK_SIZE+0x78>)
    1fe6:	4798      	blx	r3
    1fe8:	683b      	ldr	r3, [r7, #0]
    1fea:	685a      	ldr	r2, [r3, #4]
    1fec:	2312      	movs	r3, #18
    1fee:	18fb      	adds	r3, r7, r3
    1ff0:	881b      	ldrh	r3, [r3, #0]
    1ff2:	2112      	movs	r1, #18
    1ff4:	1879      	adds	r1, r7, r1
    1ff6:	1c58      	adds	r0, r3, #1
    1ff8:	8008      	strh	r0, [r1, #0]
    1ffa:	18d3      	adds	r3, r2, r3
    1ffc:	7819      	ldrb	r1, [r3, #0]
    1ffe:	68fb      	ldr	r3, [r7, #12]
    2000:	2228      	movs	r2, #40	; 0x28
    2002:	5499      	strb	r1, [r3, r2]
    2004:	2317      	movs	r3, #23
    2006:	18fc      	adds	r4, r7, r3
    2008:	687b      	ldr	r3, [r7, #4]
    200a:	0018      	movs	r0, r3
    200c:	4b1d      	ldr	r3, [pc, #116]	; (2084 <STACK_SIZE+0x84>)
    200e:	4798      	blx	r3
    2010:	0003      	movs	r3, r0
    2012:	7023      	strb	r3, [r4, #0]
    2014:	2317      	movs	r3, #23
    2016:	18fb      	adds	r3, r7, r3
    2018:	781b      	ldrb	r3, [r3, #0]
    201a:	2b00      	cmp	r3, #0
    201c:	d115      	bne.n	204a <STACK_SIZE+0x4a>
    201e:	68fb      	ldr	r3, [r7, #12]
    2020:	8b5b      	ldrh	r3, [r3, #26]
    2022:	b29b      	uxth	r3, r3
    2024:	001a      	movs	r2, r3
    2026:	2304      	movs	r3, #4
    2028:	4013      	ands	r3, r2
    202a:	d004      	beq.n	2036 <STACK_SIZE+0x36>
    202c:	2317      	movs	r3, #23
    202e:	18fb      	adds	r3, r7, r3
    2030:	221e      	movs	r2, #30
    2032:	701a      	strb	r2, [r3, #0]
    2034:	e00a      	b.n	204c <STACK_SIZE+0x4c>
    2036:	2314      	movs	r3, #20
    2038:	18fb      	adds	r3, r7, r3
    203a:	881b      	ldrh	r3, [r3, #0]
    203c:	2214      	movs	r2, #20
    203e:	18ba      	adds	r2, r7, r2
    2040:	1e59      	subs	r1, r3, #1
    2042:	8011      	strh	r1, [r2, #0]
    2044:	2b00      	cmp	r3, #0
    2046:	d1c2      	bne.n	1fce <_i2c_master_write_packet+0xba>
    2048:	e000      	b.n	204c <STACK_SIZE+0x4c>
    204a:	46c0      	nop			; (mov r8, r8)
    204c:	687b      	ldr	r3, [r7, #4]
    204e:	7a9b      	ldrb	r3, [r3, #10]
    2050:	2b00      	cmp	r3, #0
    2052:	d00a      	beq.n	206a <STACK_SIZE+0x6a>
    2054:	687b      	ldr	r3, [r7, #4]
    2056:	0018      	movs	r0, r3
    2058:	4b07      	ldr	r3, [pc, #28]	; (2078 <STACK_SIZE+0x78>)
    205a:	4798      	blx	r3
    205c:	68fb      	ldr	r3, [r7, #12]
    205e:	685b      	ldr	r3, [r3, #4]
    2060:	22c0      	movs	r2, #192	; 0xc0
    2062:	0292      	lsls	r2, r2, #10
    2064:	431a      	orrs	r2, r3
    2066:	68fb      	ldr	r3, [r7, #12]
    2068:	605a      	str	r2, [r3, #4]
    206a:	2317      	movs	r3, #23
    206c:	18fb      	adds	r3, r7, r3
    206e:	781b      	ldrb	r3, [r3, #0]
    2070:	0018      	movs	r0, r3
    2072:	46bd      	mov	sp, r7
    2074:	b007      	add	sp, #28
    2076:	bd90      	pop	{r4, r7, pc}
    2078:	00001635 	.word	0x00001635
    207c:	00001c1d 	.word	0x00001c1d
    2080:	fffbffff 	.word	0xfffbffff
    2084:	00001bbf 	.word	0x00001bbf
    2088:	00001b61 	.word	0x00001b61

0000208c <i2c_master_write_packet_wait>:
    208c:	b580      	push	{r7, lr}
    208e:	b082      	sub	sp, #8
    2090:	af00      	add	r7, sp, #0
    2092:	6078      	str	r0, [r7, #4]
    2094:	6039      	str	r1, [r7, #0]
    2096:	687b      	ldr	r3, [r7, #4]
    2098:	2201      	movs	r2, #1
    209a:	729a      	strb	r2, [r3, #10]
    209c:	687b      	ldr	r3, [r7, #4]
    209e:	2201      	movs	r2, #1
    20a0:	72da      	strb	r2, [r3, #11]
    20a2:	683a      	ldr	r2, [r7, #0]
    20a4:	687b      	ldr	r3, [r7, #4]
    20a6:	0011      	movs	r1, r2
    20a8:	0018      	movs	r0, r3
    20aa:	4b03      	ldr	r3, [pc, #12]	; (20b8 <i2c_master_write_packet_wait+0x2c>)
    20ac:	4798      	blx	r3
    20ae:	0003      	movs	r3, r0
    20b0:	0018      	movs	r0, r3
    20b2:	46bd      	mov	sp, r7
    20b4:	b002      	add	sp, #8
    20b6:	bd80      	pop	{r7, pc}
    20b8:	00001f15 	.word	0x00001f15

000020bc <TC0_Handler>:
    20bc:	b580      	push	{r7, lr}
    20be:	af00      	add	r7, sp, #0
    20c0:	2000      	movs	r0, #0
    20c2:	4b02      	ldr	r3, [pc, #8]	; (20cc <TC0_Handler+0x10>)
    20c4:	4798      	blx	r3
    20c6:	46c0      	nop			; (mov r8, r8)
    20c8:	46bd      	mov	sp, r7
    20ca:	bd80      	pop	{r7, pc}
    20cc:	00002121 	.word	0x00002121

000020d0 <TC1_Handler>:
    20d0:	b580      	push	{r7, lr}
    20d2:	af00      	add	r7, sp, #0
    20d4:	2001      	movs	r0, #1
    20d6:	4b02      	ldr	r3, [pc, #8]	; (20e0 <TC1_Handler+0x10>)
    20d8:	4798      	blx	r3
    20da:	46c0      	nop			; (mov r8, r8)
    20dc:	46bd      	mov	sp, r7
    20de:	bd80      	pop	{r7, pc}
    20e0:	00002121 	.word	0x00002121

000020e4 <TC2_Handler>:
    20e4:	b580      	push	{r7, lr}
    20e6:	af00      	add	r7, sp, #0
    20e8:	2002      	movs	r0, #2
    20ea:	4b02      	ldr	r3, [pc, #8]	; (20f4 <TC2_Handler+0x10>)
    20ec:	4798      	blx	r3
    20ee:	46c0      	nop			; (mov r8, r8)
    20f0:	46bd      	mov	sp, r7
    20f2:	bd80      	pop	{r7, pc}
    20f4:	00002121 	.word	0x00002121

000020f8 <TC3_Handler>:
    20f8:	b580      	push	{r7, lr}
    20fa:	af00      	add	r7, sp, #0
    20fc:	2003      	movs	r0, #3
    20fe:	4b02      	ldr	r3, [pc, #8]	; (2108 <TC3_Handler+0x10>)
    2100:	4798      	blx	r3
    2102:	46c0      	nop			; (mov r8, r8)
    2104:	46bd      	mov	sp, r7
    2106:	bd80      	pop	{r7, pc}
    2108:	00002121 	.word	0x00002121

0000210c <TC4_Handler>:
    210c:	b580      	push	{r7, lr}
    210e:	af00      	add	r7, sp, #0
    2110:	2004      	movs	r0, #4
    2112:	4b02      	ldr	r3, [pc, #8]	; (211c <TC4_Handler+0x10>)
    2114:	4798      	blx	r3
    2116:	46c0      	nop			; (mov r8, r8)
    2118:	46bd      	mov	sp, r7
    211a:	bd80      	pop	{r7, pc}
    211c:	00002121 	.word	0x00002121

00002120 <_tc_interrupt_handler>:
    2120:	b580      	push	{r7, lr}
    2122:	b084      	sub	sp, #16
    2124:	af00      	add	r7, sp, #0
    2126:	0002      	movs	r2, r0
    2128:	1dfb      	adds	r3, r7, #7
    212a:	701a      	strb	r2, [r3, #0]
    212c:	1dfb      	adds	r3, r7, #7
    212e:	781a      	ldrb	r2, [r3, #0]
    2130:	4b28      	ldr	r3, [pc, #160]	; (21d4 <_tc_interrupt_handler+0xb4>)
    2132:	0092      	lsls	r2, r2, #2
    2134:	58d3      	ldr	r3, [r2, r3]
    2136:	60fb      	str	r3, [r7, #12]
    2138:	68fb      	ldr	r3, [r7, #12]
    213a:	681b      	ldr	r3, [r3, #0]
    213c:	7a9b      	ldrb	r3, [r3, #10]
    213e:	b2db      	uxtb	r3, r3
    2140:	68fa      	ldr	r2, [r7, #12]
    2142:	7e12      	ldrb	r2, [r2, #24]
    2144:	4013      	ands	r3, r2
    2146:	b2da      	uxtb	r2, r3
    2148:	68fb      	ldr	r3, [r7, #12]
    214a:	7e59      	ldrb	r1, [r3, #25]
    214c:	230b      	movs	r3, #11
    214e:	18fb      	adds	r3, r7, r3
    2150:	400a      	ands	r2, r1
    2152:	701a      	strb	r2, [r3, #0]
    2154:	230b      	movs	r3, #11
    2156:	18fb      	adds	r3, r7, r3
    2158:	781b      	ldrb	r3, [r3, #0]
    215a:	2201      	movs	r2, #1
    215c:	4013      	ands	r3, r2
    215e:	d008      	beq.n	2172 <_tc_interrupt_handler+0x52>
    2160:	68fb      	ldr	r3, [r7, #12]
    2162:	689b      	ldr	r3, [r3, #8]
    2164:	68fa      	ldr	r2, [r7, #12]
    2166:	0010      	movs	r0, r2
    2168:	4798      	blx	r3
    216a:	68fb      	ldr	r3, [r7, #12]
    216c:	681b      	ldr	r3, [r3, #0]
    216e:	2201      	movs	r2, #1
    2170:	729a      	strb	r2, [r3, #10]
    2172:	230b      	movs	r3, #11
    2174:	18fb      	adds	r3, r7, r3
    2176:	781b      	ldrb	r3, [r3, #0]
    2178:	2202      	movs	r2, #2
    217a:	4013      	ands	r3, r2
    217c:	d008      	beq.n	2190 <_tc_interrupt_handler+0x70>
    217e:	68fb      	ldr	r3, [r7, #12]
    2180:	68db      	ldr	r3, [r3, #12]
    2182:	68fa      	ldr	r2, [r7, #12]
    2184:	0010      	movs	r0, r2
    2186:	4798      	blx	r3
    2188:	68fb      	ldr	r3, [r7, #12]
    218a:	681b      	ldr	r3, [r3, #0]
    218c:	2202      	movs	r2, #2
    218e:	729a      	strb	r2, [r3, #10]
    2190:	230b      	movs	r3, #11
    2192:	18fb      	adds	r3, r7, r3
    2194:	781b      	ldrb	r3, [r3, #0]
    2196:	2210      	movs	r2, #16
    2198:	4013      	ands	r3, r2
    219a:	d008      	beq.n	21ae <_tc_interrupt_handler+0x8e>
    219c:	68fb      	ldr	r3, [r7, #12]
    219e:	691b      	ldr	r3, [r3, #16]
    21a0:	68fa      	ldr	r2, [r7, #12]
    21a2:	0010      	movs	r0, r2
    21a4:	4798      	blx	r3
    21a6:	68fb      	ldr	r3, [r7, #12]
    21a8:	681b      	ldr	r3, [r3, #0]
    21aa:	2210      	movs	r2, #16
    21ac:	729a      	strb	r2, [r3, #10]
    21ae:	230b      	movs	r3, #11
    21b0:	18fb      	adds	r3, r7, r3
    21b2:	781b      	ldrb	r3, [r3, #0]
    21b4:	2220      	movs	r2, #32
    21b6:	4013      	ands	r3, r2
    21b8:	d008      	beq.n	21cc <_tc_interrupt_handler+0xac>
    21ba:	68fb      	ldr	r3, [r7, #12]
    21bc:	695b      	ldr	r3, [r3, #20]
    21be:	68fa      	ldr	r2, [r7, #12]
    21c0:	0010      	movs	r0, r2
    21c2:	4798      	blx	r3
    21c4:	68fb      	ldr	r3, [r7, #12]
    21c6:	681b      	ldr	r3, [r3, #0]
    21c8:	2220      	movs	r2, #32
    21ca:	729a      	strb	r2, [r3, #10]
    21cc:	46c0      	nop			; (mov r8, r8)
    21ce:	46bd      	mov	sp, r7
    21d0:	b004      	add	sp, #16
    21d2:	bd80      	pop	{r7, pc}
    21d4:	2000018c 	.word	0x2000018c

000021d8 <system_gclk_chan_get_config_defaults>:
    21d8:	b580      	push	{r7, lr}
    21da:	b082      	sub	sp, #8
    21dc:	af00      	add	r7, sp, #0
    21de:	6078      	str	r0, [r7, #4]
    21e0:	687b      	ldr	r3, [r7, #4]
    21e2:	2200      	movs	r2, #0
    21e4:	701a      	strb	r2, [r3, #0]
    21e6:	46c0      	nop			; (mov r8, r8)
    21e8:	46bd      	mov	sp, r7
    21ea:	b002      	add	sp, #8
    21ec:	bd80      	pop	{r7, pc}
	...

000021f0 <system_apb_clock_set_mask>:
    21f0:	b580      	push	{r7, lr}
    21f2:	b082      	sub	sp, #8
    21f4:	af00      	add	r7, sp, #0
    21f6:	0002      	movs	r2, r0
    21f8:	6039      	str	r1, [r7, #0]
    21fa:	1dfb      	adds	r3, r7, #7
    21fc:	701a      	strb	r2, [r3, #0]
    21fe:	1dfb      	adds	r3, r7, #7
    2200:	781b      	ldrb	r3, [r3, #0]
    2202:	2b04      	cmp	r3, #4
    2204:	d827      	bhi.n	2256 <system_apb_clock_set_mask+0x66>
    2206:	009a      	lsls	r2, r3, #2
    2208:	4b16      	ldr	r3, [pc, #88]	; (2264 <system_apb_clock_set_mask+0x74>)
    220a:	18d3      	adds	r3, r2, r3
    220c:	681b      	ldr	r3, [r3, #0]
    220e:	469f      	mov	pc, r3
    2210:	4b15      	ldr	r3, [pc, #84]	; (2268 <system_apb_clock_set_mask+0x78>)
    2212:	4a15      	ldr	r2, [pc, #84]	; (2268 <system_apb_clock_set_mask+0x78>)
    2214:	6951      	ldr	r1, [r2, #20]
    2216:	683a      	ldr	r2, [r7, #0]
    2218:	430a      	orrs	r2, r1
    221a:	615a      	str	r2, [r3, #20]
    221c:	e01d      	b.n	225a <system_apb_clock_set_mask+0x6a>
    221e:	4b12      	ldr	r3, [pc, #72]	; (2268 <system_apb_clock_set_mask+0x78>)
    2220:	4a11      	ldr	r2, [pc, #68]	; (2268 <system_apb_clock_set_mask+0x78>)
    2222:	6991      	ldr	r1, [r2, #24]
    2224:	683a      	ldr	r2, [r7, #0]
    2226:	430a      	orrs	r2, r1
    2228:	619a      	str	r2, [r3, #24]
    222a:	e016      	b.n	225a <system_apb_clock_set_mask+0x6a>
    222c:	4b0e      	ldr	r3, [pc, #56]	; (2268 <system_apb_clock_set_mask+0x78>)
    222e:	4a0e      	ldr	r2, [pc, #56]	; (2268 <system_apb_clock_set_mask+0x78>)
    2230:	69d1      	ldr	r1, [r2, #28]
    2232:	683a      	ldr	r2, [r7, #0]
    2234:	430a      	orrs	r2, r1
    2236:	61da      	str	r2, [r3, #28]
    2238:	e00f      	b.n	225a <system_apb_clock_set_mask+0x6a>
    223a:	4b0b      	ldr	r3, [pc, #44]	; (2268 <system_apb_clock_set_mask+0x78>)
    223c:	4a0a      	ldr	r2, [pc, #40]	; (2268 <system_apb_clock_set_mask+0x78>)
    223e:	6a11      	ldr	r1, [r2, #32]
    2240:	683a      	ldr	r2, [r7, #0]
    2242:	430a      	orrs	r2, r1
    2244:	621a      	str	r2, [r3, #32]
    2246:	e008      	b.n	225a <system_apb_clock_set_mask+0x6a>
    2248:	4b07      	ldr	r3, [pc, #28]	; (2268 <system_apb_clock_set_mask+0x78>)
    224a:	4a07      	ldr	r2, [pc, #28]	; (2268 <system_apb_clock_set_mask+0x78>)
    224c:	6a51      	ldr	r1, [r2, #36]	; 0x24
    224e:	683a      	ldr	r2, [r7, #0]
    2250:	430a      	orrs	r2, r1
    2252:	625a      	str	r2, [r3, #36]	; 0x24
    2254:	e001      	b.n	225a <system_apb_clock_set_mask+0x6a>
    2256:	2317      	movs	r3, #23
    2258:	e000      	b.n	225c <system_apb_clock_set_mask+0x6c>
    225a:	2300      	movs	r3, #0
    225c:	0018      	movs	r0, r3
    225e:	46bd      	mov	sp, r7
    2260:	b002      	add	sp, #8
    2262:	bd80      	pop	{r7, pc}
    2264:	0000742c 	.word	0x0000742c
    2268:	40000400 	.word	0x40000400

0000226c <system_pinmux_get_config_defaults>:
    226c:	b580      	push	{r7, lr}
    226e:	b082      	sub	sp, #8
    2270:	af00      	add	r7, sp, #0
    2272:	6078      	str	r0, [r7, #4]
    2274:	687b      	ldr	r3, [r7, #4]
    2276:	2280      	movs	r2, #128	; 0x80
    2278:	701a      	strb	r2, [r3, #0]
    227a:	687b      	ldr	r3, [r7, #4]
    227c:	2200      	movs	r2, #0
    227e:	705a      	strb	r2, [r3, #1]
    2280:	687b      	ldr	r3, [r7, #4]
    2282:	2201      	movs	r2, #1
    2284:	709a      	strb	r2, [r3, #2]
    2286:	687b      	ldr	r3, [r7, #4]
    2288:	2200      	movs	r2, #0
    228a:	70da      	strb	r2, [r3, #3]
    228c:	46c0      	nop			; (mov r8, r8)
    228e:	46bd      	mov	sp, r7
    2290:	b002      	add	sp, #8
    2292:	bd80      	pop	{r7, pc}

00002294 <tc_is_syncing>:
    2294:	b580      	push	{r7, lr}
    2296:	b084      	sub	sp, #16
    2298:	af00      	add	r7, sp, #0
    229a:	6078      	str	r0, [r7, #4]
    229c:	687b      	ldr	r3, [r7, #4]
    229e:	681b      	ldr	r3, [r3, #0]
    22a0:	60fb      	str	r3, [r7, #12]
    22a2:	68fb      	ldr	r3, [r7, #12]
    22a4:	691b      	ldr	r3, [r3, #16]
    22a6:	1e5a      	subs	r2, r3, #1
    22a8:	4193      	sbcs	r3, r2
    22aa:	b2db      	uxtb	r3, r3
    22ac:	0018      	movs	r0, r3
    22ae:	46bd      	mov	sp, r7
    22b0:	b004      	add	sp, #16
    22b2:	bd80      	pop	{r7, pc}

000022b4 <_tc_get_inst_index>:
    22b4:	b590      	push	{r4, r7, lr}
    22b6:	b089      	sub	sp, #36	; 0x24
    22b8:	af00      	add	r7, sp, #0
    22ba:	6078      	str	r0, [r7, #4]
    22bc:	2308      	movs	r3, #8
    22be:	18fb      	adds	r3, r7, r3
    22c0:	4a0e      	ldr	r2, [pc, #56]	; (22fc <_tc_get_inst_index+0x48>)
    22c2:	ca13      	ldmia	r2!, {r0, r1, r4}
    22c4:	c313      	stmia	r3!, {r0, r1, r4}
    22c6:	ca03      	ldmia	r2!, {r0, r1}
    22c8:	c303      	stmia	r3!, {r0, r1}
    22ca:	2300      	movs	r3, #0
    22cc:	61fb      	str	r3, [r7, #28]
    22ce:	e00d      	b.n	22ec <_tc_get_inst_index+0x38>
    22d0:	2308      	movs	r3, #8
    22d2:	18fb      	adds	r3, r7, r3
    22d4:	69fa      	ldr	r2, [r7, #28]
    22d6:	0092      	lsls	r2, r2, #2
    22d8:	58d2      	ldr	r2, [r2, r3]
    22da:	687b      	ldr	r3, [r7, #4]
    22dc:	429a      	cmp	r2, r3
    22de:	d102      	bne.n	22e6 <_tc_get_inst_index+0x32>
    22e0:	69fb      	ldr	r3, [r7, #28]
    22e2:	b2db      	uxtb	r3, r3
    22e4:	e006      	b.n	22f4 <_tc_get_inst_index+0x40>
    22e6:	69fb      	ldr	r3, [r7, #28]
    22e8:	3301      	adds	r3, #1
    22ea:	61fb      	str	r3, [r7, #28]
    22ec:	69fb      	ldr	r3, [r7, #28]
    22ee:	2b04      	cmp	r3, #4
    22f0:	d9ee      	bls.n	22d0 <_tc_get_inst_index+0x1c>
    22f2:	2300      	movs	r3, #0
    22f4:	0018      	movs	r0, r3
    22f6:	46bd      	mov	sp, r7
    22f8:	b009      	add	sp, #36	; 0x24
    22fa:	bd90      	pop	{r4, r7, pc}
    22fc:	00007440 	.word	0x00007440

00002300 <tc_init>:
    2300:	b590      	push	{r4, r7, lr}
    2302:	b095      	sub	sp, #84	; 0x54
    2304:	af00      	add	r7, sp, #0
    2306:	60f8      	str	r0, [r7, #12]
    2308:	60b9      	str	r1, [r7, #8]
    230a:	607a      	str	r2, [r7, #4]
    230c:	2300      	movs	r3, #0
    230e:	64fb      	str	r3, [r7, #76]	; 0x4c
    2310:	234b      	movs	r3, #75	; 0x4b
    2312:	18fb      	adds	r3, r7, r3
    2314:	2200      	movs	r2, #0
    2316:	701a      	strb	r2, [r3, #0]
    2318:	2347      	movs	r3, #71	; 0x47
    231a:	18fc      	adds	r4, r7, r3
    231c:	68bb      	ldr	r3, [r7, #8]
    231e:	0018      	movs	r0, r3
    2320:	4bd6      	ldr	r3, [pc, #856]	; (267c <tc_init+0x37c>)
    2322:	4798      	blx	r3
    2324:	0003      	movs	r3, r0
    2326:	7023      	strb	r3, [r4, #0]
    2328:	2340      	movs	r3, #64	; 0x40
    232a:	18fb      	adds	r3, r7, r3
    232c:	4ad4      	ldr	r2, [pc, #848]	; (2680 <tc_init+0x380>)
    232e:	6811      	ldr	r1, [r2, #0]
    2330:	6019      	str	r1, [r3, #0]
    2332:	7912      	ldrb	r2, [r2, #4]
    2334:	711a      	strb	r2, [r3, #4]
    2336:	2318      	movs	r3, #24
    2338:	18fb      	adds	r3, r7, r3
    233a:	4ad2      	ldr	r2, [pc, #840]	; (2684 <tc_init+0x384>)
    233c:	ca13      	ldmia	r2!, {r0, r1, r4}
    233e:	c313      	stmia	r3!, {r0, r1, r4}
    2340:	ca13      	ldmia	r2!, {r0, r1, r4}
    2342:	c313      	stmia	r3!, {r0, r1, r4}
    2344:	ca13      	ldmia	r2!, {r0, r1, r4}
    2346:	c313      	stmia	r3!, {r0, r1, r4}
    2348:	6812      	ldr	r2, [r2, #0]
    234a:	601a      	str	r2, [r3, #0]
    234c:	234a      	movs	r3, #74	; 0x4a
    234e:	18fb      	adds	r3, r7, r3
    2350:	2200      	movs	r2, #0
    2352:	701a      	strb	r2, [r3, #0]
    2354:	e00e      	b.n	2374 <tc_init+0x74>
    2356:	234a      	movs	r3, #74	; 0x4a
    2358:	18fb      	adds	r3, r7, r3
    235a:	781a      	ldrb	r2, [r3, #0]
    235c:	68fb      	ldr	r3, [r7, #12]
    235e:	3202      	adds	r2, #2
    2360:	0092      	lsls	r2, r2, #2
    2362:	2100      	movs	r1, #0
    2364:	50d1      	str	r1, [r2, r3]
    2366:	234a      	movs	r3, #74	; 0x4a
    2368:	18fb      	adds	r3, r7, r3
    236a:	781a      	ldrb	r2, [r3, #0]
    236c:	234a      	movs	r3, #74	; 0x4a
    236e:	18fb      	adds	r3, r7, r3
    2370:	3201      	adds	r2, #1
    2372:	701a      	strb	r2, [r3, #0]
    2374:	234a      	movs	r3, #74	; 0x4a
    2376:	18fb      	adds	r3, r7, r3
    2378:	781b      	ldrb	r3, [r3, #0]
    237a:	2b03      	cmp	r3, #3
    237c:	d9eb      	bls.n	2356 <tc_init+0x56>
    237e:	68fb      	ldr	r3, [r7, #12]
    2380:	2200      	movs	r2, #0
    2382:	761a      	strb	r2, [r3, #24]
    2384:	68fb      	ldr	r3, [r7, #12]
    2386:	2200      	movs	r2, #0
    2388:	765a      	strb	r2, [r3, #25]
    238a:	2347      	movs	r3, #71	; 0x47
    238c:	18fb      	adds	r3, r7, r3
    238e:	781a      	ldrb	r2, [r3, #0]
    2390:	4bbd      	ldr	r3, [pc, #756]	; (2688 <tc_init+0x388>)
    2392:	0092      	lsls	r2, r2, #2
    2394:	68f9      	ldr	r1, [r7, #12]
    2396:	50d1      	str	r1, [r2, r3]
    2398:	68fb      	ldr	r3, [r7, #12]
    239a:	68ba      	ldr	r2, [r7, #8]
    239c:	601a      	str	r2, [r3, #0]
    239e:	687b      	ldr	r3, [r7, #4]
    23a0:	2234      	movs	r2, #52	; 0x34
    23a2:	5c9a      	ldrb	r2, [r3, r2]
    23a4:	68fb      	ldr	r3, [r7, #12]
    23a6:	769a      	strb	r2, [r3, #26]
    23a8:	687b      	ldr	r3, [r7, #4]
    23aa:	78db      	ldrb	r3, [r3, #3]
    23ac:	2b08      	cmp	r3, #8
    23ae:	d107      	bne.n	23c0 <tc_init+0xc0>
    23b0:	2347      	movs	r3, #71	; 0x47
    23b2:	18fb      	adds	r3, r7, r3
    23b4:	781b      	ldrb	r3, [r3, #0]
    23b6:	2201      	movs	r2, #1
    23b8:	4013      	ands	r3, r2
    23ba:	d001      	beq.n	23c0 <tc_init+0xc0>
    23bc:	2317      	movs	r3, #23
    23be:	e1ec      	b.n	279a <tc_init+0x49a>
    23c0:	687b      	ldr	r3, [r7, #4]
    23c2:	78da      	ldrb	r2, [r3, #3]
    23c4:	68fb      	ldr	r3, [r7, #12]
    23c6:	711a      	strb	r2, [r3, #4]
    23c8:	68bb      	ldr	r3, [r7, #8]
    23ca:	681b      	ldr	r3, [r3, #0]
    23cc:	2201      	movs	r2, #1
    23ce:	4013      	ands	r3, r2
    23d0:	d001      	beq.n	23d6 <tc_init+0xd6>
    23d2:	2305      	movs	r3, #5
    23d4:	e1e1      	b.n	279a <tc_init+0x49a>
    23d6:	68bb      	ldr	r3, [r7, #8]
    23d8:	7adb      	ldrb	r3, [r3, #11]
    23da:	b2db      	uxtb	r3, r3
    23dc:	001a      	movs	r2, r3
    23de:	2302      	movs	r3, #2
    23e0:	4013      	ands	r3, r2
    23e2:	d001      	beq.n	23e8 <tc_init+0xe8>
    23e4:	231c      	movs	r3, #28
    23e6:	e1d8      	b.n	279a <tc_init+0x49a>
    23e8:	68bb      	ldr	r3, [r7, #8]
    23ea:	681b      	ldr	r3, [r3, #0]
    23ec:	2202      	movs	r2, #2
    23ee:	4013      	ands	r3, r2
    23f0:	d001      	beq.n	23f6 <tc_init+0xf6>
    23f2:	231c      	movs	r3, #28
    23f4:	e1d1      	b.n	279a <tc_init+0x49a>
    23f6:	687b      	ldr	r3, [r7, #4]
    23f8:	7c1b      	ldrb	r3, [r3, #16]
    23fa:	2b00      	cmp	r3, #0
    23fc:	d017      	beq.n	242e <tc_init+0x12e>
    23fe:	2314      	movs	r3, #20
    2400:	18fb      	adds	r3, r7, r3
    2402:	0018      	movs	r0, r3
    2404:	4ba1      	ldr	r3, [pc, #644]	; (268c <tc_init+0x38c>)
    2406:	4798      	blx	r3
    2408:	687b      	ldr	r3, [r7, #4]
    240a:	699b      	ldr	r3, [r3, #24]
    240c:	b2da      	uxtb	r2, r3
    240e:	2314      	movs	r3, #20
    2410:	18fb      	adds	r3, r7, r3
    2412:	701a      	strb	r2, [r3, #0]
    2414:	2314      	movs	r3, #20
    2416:	18fb      	adds	r3, r7, r3
    2418:	2201      	movs	r2, #1
    241a:	705a      	strb	r2, [r3, #1]
    241c:	687b      	ldr	r3, [r7, #4]
    241e:	695b      	ldr	r3, [r3, #20]
    2420:	b2db      	uxtb	r3, r3
    2422:	2214      	movs	r2, #20
    2424:	18ba      	adds	r2, r7, r2
    2426:	0011      	movs	r1, r2
    2428:	0018      	movs	r0, r3
    242a:	4b99      	ldr	r3, [pc, #612]	; (2690 <tc_init+0x390>)
    242c:	4798      	blx	r3
    242e:	687b      	ldr	r3, [r7, #4]
    2430:	7f1b      	ldrb	r3, [r3, #28]
    2432:	2b00      	cmp	r3, #0
    2434:	d017      	beq.n	2466 <tc_init+0x166>
    2436:	2314      	movs	r3, #20
    2438:	18fb      	adds	r3, r7, r3
    243a:	0018      	movs	r0, r3
    243c:	4b93      	ldr	r3, [pc, #588]	; (268c <tc_init+0x38c>)
    243e:	4798      	blx	r3
    2440:	687b      	ldr	r3, [r7, #4]
    2442:	6a5b      	ldr	r3, [r3, #36]	; 0x24
    2444:	b2da      	uxtb	r2, r3
    2446:	2314      	movs	r3, #20
    2448:	18fb      	adds	r3, r7, r3
    244a:	701a      	strb	r2, [r3, #0]
    244c:	2314      	movs	r3, #20
    244e:	18fb      	adds	r3, r7, r3
    2450:	2201      	movs	r2, #1
    2452:	705a      	strb	r2, [r3, #1]
    2454:	687b      	ldr	r3, [r7, #4]
    2456:	6a1b      	ldr	r3, [r3, #32]
    2458:	b2db      	uxtb	r3, r3
    245a:	2214      	movs	r2, #20
    245c:	18ba      	adds	r2, r7, r2
    245e:	0011      	movs	r1, r2
    2460:	0018      	movs	r0, r3
    2462:	4b8b      	ldr	r3, [pc, #556]	; (2690 <tc_init+0x390>)
    2464:	4798      	blx	r3
    2466:	2347      	movs	r3, #71	; 0x47
    2468:	18fb      	adds	r3, r7, r3
    246a:	781b      	ldrb	r3, [r3, #0]
    246c:	005a      	lsls	r2, r3, #1
    246e:	2318      	movs	r3, #24
    2470:	18fb      	adds	r3, r7, r3
    2472:	0092      	lsls	r2, r2, #2
    2474:	58d3      	ldr	r3, [r2, r3]
    2476:	b2d8      	uxtb	r0, r3
    2478:	2347      	movs	r3, #71	; 0x47
    247a:	18fb      	adds	r3, r7, r3
    247c:	781b      	ldrb	r3, [r3, #0]
    247e:	005b      	lsls	r3, r3, #1
    2480:	1c5a      	adds	r2, r3, #1
    2482:	2318      	movs	r3, #24
    2484:	18fb      	adds	r3, r7, r3
    2486:	0092      	lsls	r2, r2, #2
    2488:	58d3      	ldr	r3, [r2, r3]
    248a:	0019      	movs	r1, r3
    248c:	4b81      	ldr	r3, [pc, #516]	; (2694 <tc_init+0x394>)
    248e:	4798      	blx	r3
    2490:	687b      	ldr	r3, [r7, #4]
    2492:	78db      	ldrb	r3, [r3, #3]
    2494:	2b08      	cmp	r3, #8
    2496:	d11c      	bne.n	24d2 <tc_init+0x1d2>
    2498:	2347      	movs	r3, #71	; 0x47
    249a:	18fb      	adds	r3, r7, r3
    249c:	781b      	ldrb	r3, [r3, #0]
    249e:	3301      	adds	r3, #1
    24a0:	2b04      	cmp	r3, #4
    24a2:	dc16      	bgt.n	24d2 <tc_init+0x1d2>
    24a4:	2347      	movs	r3, #71	; 0x47
    24a6:	18fb      	adds	r3, r7, r3
    24a8:	781b      	ldrb	r3, [r3, #0]
    24aa:	3301      	adds	r3, #1
    24ac:	005a      	lsls	r2, r3, #1
    24ae:	2318      	movs	r3, #24
    24b0:	18fb      	adds	r3, r7, r3
    24b2:	0092      	lsls	r2, r2, #2
    24b4:	58d3      	ldr	r3, [r2, r3]
    24b6:	b2d8      	uxtb	r0, r3
    24b8:	2347      	movs	r3, #71	; 0x47
    24ba:	18fb      	adds	r3, r7, r3
    24bc:	781b      	ldrb	r3, [r3, #0]
    24be:	3301      	adds	r3, #1
    24c0:	005b      	lsls	r3, r3, #1
    24c2:	1c5a      	adds	r2, r3, #1
    24c4:	2318      	movs	r3, #24
    24c6:	18fb      	adds	r3, r7, r3
    24c8:	0092      	lsls	r2, r2, #2
    24ca:	58d3      	ldr	r3, [r2, r3]
    24cc:	0019      	movs	r1, r3
    24ce:	4b71      	ldr	r3, [pc, #452]	; (2694 <tc_init+0x394>)
    24d0:	4798      	blx	r3
    24d2:	2310      	movs	r3, #16
    24d4:	18fb      	adds	r3, r7, r3
    24d6:	0018      	movs	r0, r3
    24d8:	4b6f      	ldr	r3, [pc, #444]	; (2698 <tc_init+0x398>)
    24da:	4798      	blx	r3
    24dc:	687b      	ldr	r3, [r7, #4]
    24de:	781a      	ldrb	r2, [r3, #0]
    24e0:	2310      	movs	r3, #16
    24e2:	18fb      	adds	r3, r7, r3
    24e4:	701a      	strb	r2, [r3, #0]
    24e6:	2347      	movs	r3, #71	; 0x47
    24e8:	18fb      	adds	r3, r7, r3
    24ea:	781b      	ldrb	r3, [r3, #0]
    24ec:	2240      	movs	r2, #64	; 0x40
    24ee:	18ba      	adds	r2, r7, r2
    24f0:	5cd3      	ldrb	r3, [r2, r3]
    24f2:	2210      	movs	r2, #16
    24f4:	18ba      	adds	r2, r7, r2
    24f6:	0011      	movs	r1, r2
    24f8:	0018      	movs	r0, r3
    24fa:	4b68      	ldr	r3, [pc, #416]	; (269c <tc_init+0x39c>)
    24fc:	4798      	blx	r3
    24fe:	2347      	movs	r3, #71	; 0x47
    2500:	18fb      	adds	r3, r7, r3
    2502:	781b      	ldrb	r3, [r3, #0]
    2504:	2240      	movs	r2, #64	; 0x40
    2506:	18ba      	adds	r2, r7, r2
    2508:	5cd3      	ldrb	r3, [r2, r3]
    250a:	0018      	movs	r0, r3
    250c:	4b64      	ldr	r3, [pc, #400]	; (26a0 <tc_init+0x3a0>)
    250e:	4798      	blx	r3
    2510:	687b      	ldr	r3, [r7, #4]
    2512:	78da      	ldrb	r2, [r3, #3]
    2514:	687b      	ldr	r3, [r7, #4]
    2516:	79db      	ldrb	r3, [r3, #7]
    2518:	4313      	orrs	r3, r2
    251a:	b2db      	uxtb	r3, r3
    251c:	001a      	movs	r2, r3
    251e:	687b      	ldr	r3, [r7, #4]
    2520:	889b      	ldrh	r3, [r3, #4]
    2522:	4313      	orrs	r3, r2
    2524:	64fb      	str	r3, [r7, #76]	; 0x4c
    2526:	2349      	movs	r3, #73	; 0x49
    2528:	18fb      	adds	r3, r7, r3
    252a:	2200      	movs	r2, #0
    252c:	701a      	strb	r2, [r3, #0]
    252e:	e018      	b.n	2562 <tc_init+0x262>
    2530:	2349      	movs	r3, #73	; 0x49
    2532:	18fb      	adds	r3, r7, r3
    2534:	781b      	ldrb	r3, [r3, #0]
    2536:	687a      	ldr	r2, [r7, #4]
    2538:	18d3      	adds	r3, r2, r3
    253a:	7a5b      	ldrb	r3, [r3, #9]
    253c:	2b00      	cmp	r3, #0
    253e:	d009      	beq.n	2554 <tc_init+0x254>
    2540:	2349      	movs	r3, #73	; 0x49
    2542:	18fb      	adds	r3, r7, r3
    2544:	781b      	ldrb	r3, [r3, #0]
    2546:	2280      	movs	r2, #128	; 0x80
    2548:	0252      	lsls	r2, r2, #9
    254a:	409a      	lsls	r2, r3
    254c:	0013      	movs	r3, r2
    254e:	6cfa      	ldr	r2, [r7, #76]	; 0x4c
    2550:	4313      	orrs	r3, r2
    2552:	64fb      	str	r3, [r7, #76]	; 0x4c
    2554:	2349      	movs	r3, #73	; 0x49
    2556:	18fb      	adds	r3, r7, r3
    2558:	781a      	ldrb	r2, [r3, #0]
    255a:	2349      	movs	r3, #73	; 0x49
    255c:	18fb      	adds	r3, r7, r3
    255e:	3201      	adds	r2, #1
    2560:	701a      	strb	r2, [r3, #0]
    2562:	2349      	movs	r3, #73	; 0x49
    2564:	18fb      	adds	r3, r7, r3
    2566:	781b      	ldrb	r3, [r3, #0]
    2568:	2b01      	cmp	r3, #1
    256a:	d9e1      	bls.n	2530 <tc_init+0x230>
    256c:	2348      	movs	r3, #72	; 0x48
    256e:	18fb      	adds	r3, r7, r3
    2570:	2200      	movs	r2, #0
    2572:	701a      	strb	r2, [r3, #0]
    2574:	e018      	b.n	25a8 <tc_init+0x2a8>
    2576:	2348      	movs	r3, #72	; 0x48
    2578:	18fb      	adds	r3, r7, r3
    257a:	781b      	ldrb	r3, [r3, #0]
    257c:	687a      	ldr	r2, [r7, #4]
    257e:	18d3      	adds	r3, r2, r3
    2580:	7adb      	ldrb	r3, [r3, #11]
    2582:	2b00      	cmp	r3, #0
    2584:	d009      	beq.n	259a <tc_init+0x29a>
    2586:	2348      	movs	r3, #72	; 0x48
    2588:	18fb      	adds	r3, r7, r3
    258a:	781b      	ldrb	r3, [r3, #0]
    258c:	2280      	movs	r2, #128	; 0x80
    258e:	0352      	lsls	r2, r2, #13
    2590:	409a      	lsls	r2, r3
    2592:	0013      	movs	r3, r2
    2594:	6cfa      	ldr	r2, [r7, #76]	; 0x4c
    2596:	4313      	orrs	r3, r2
    2598:	64fb      	str	r3, [r7, #76]	; 0x4c
    259a:	2348      	movs	r3, #72	; 0x48
    259c:	18fb      	adds	r3, r7, r3
    259e:	781a      	ldrb	r2, [r3, #0]
    25a0:	2348      	movs	r3, #72	; 0x48
    25a2:	18fb      	adds	r3, r7, r3
    25a4:	3201      	adds	r2, #1
    25a6:	701a      	strb	r2, [r3, #0]
    25a8:	2348      	movs	r3, #72	; 0x48
    25aa:	18fb      	adds	r3, r7, r3
    25ac:	781b      	ldrb	r3, [r3, #0]
    25ae:	2b01      	cmp	r3, #1
    25b0:	d9e1      	bls.n	2576 <tc_init+0x276>
    25b2:	687b      	ldr	r3, [r7, #4]
    25b4:	785b      	ldrb	r3, [r3, #1]
    25b6:	019a      	lsls	r2, r3, #6
    25b8:	687b      	ldr	r3, [r7, #4]
    25ba:	789b      	ldrb	r3, [r3, #2]
    25bc:	01db      	lsls	r3, r3, #7
    25be:	4313      	orrs	r3, r2
    25c0:	001a      	movs	r2, r3
    25c2:	6cfb      	ldr	r3, [r7, #76]	; 0x4c
    25c4:	4313      	orrs	r3, r2
    25c6:	64fb      	str	r3, [r7, #76]	; 0x4c
    25c8:	46c0      	nop			; (mov r8, r8)
    25ca:	68fb      	ldr	r3, [r7, #12]
    25cc:	0018      	movs	r0, r3
    25ce:	4b35      	ldr	r3, [pc, #212]	; (26a4 <tc_init+0x3a4>)
    25d0:	4798      	blx	r3
    25d2:	1e03      	subs	r3, r0, #0
    25d4:	d1f9      	bne.n	25ca <tc_init+0x2ca>
    25d6:	68bb      	ldr	r3, [r7, #8]
    25d8:	6cfa      	ldr	r2, [r7, #76]	; 0x4c
    25da:	601a      	str	r2, [r3, #0]
    25dc:	46c0      	nop			; (mov r8, r8)
    25de:	68fb      	ldr	r3, [r7, #12]
    25e0:	0018      	movs	r0, r3
    25e2:	4b30      	ldr	r3, [pc, #192]	; (26a4 <tc_init+0x3a4>)
    25e4:	4798      	blx	r3
    25e6:	1e03      	subs	r3, r0, #0
    25e8:	d1f9      	bne.n	25de <tc_init+0x2de>
    25ea:	687b      	ldr	r3, [r7, #4]
    25ec:	799a      	ldrb	r2, [r3, #6]
    25ee:	68bb      	ldr	r3, [r7, #8]
    25f0:	731a      	strb	r2, [r3, #12]
    25f2:	687b      	ldr	r3, [r7, #4]
    25f4:	7b5b      	ldrb	r3, [r3, #13]
    25f6:	2b00      	cmp	r3, #0
    25f8:	d003      	beq.n	2602 <tc_init+0x302>
    25fa:	234b      	movs	r3, #75	; 0x4b
    25fc:	18fb      	adds	r3, r7, r3
    25fe:	2204      	movs	r2, #4
    2600:	701a      	strb	r2, [r3, #0]
    2602:	687b      	ldr	r3, [r7, #4]
    2604:	7b9b      	ldrb	r3, [r3, #14]
    2606:	2b00      	cmp	r3, #0
    2608:	d007      	beq.n	261a <tc_init+0x31a>
    260a:	234b      	movs	r3, #75	; 0x4b
    260c:	18fb      	adds	r3, r7, r3
    260e:	224b      	movs	r2, #75	; 0x4b
    2610:	18ba      	adds	r2, r7, r2
    2612:	7812      	ldrb	r2, [r2, #0]
    2614:	2101      	movs	r1, #1
    2616:	430a      	orrs	r2, r1
    2618:	701a      	strb	r2, [r3, #0]
    261a:	46c0      	nop			; (mov r8, r8)
    261c:	68fb      	ldr	r3, [r7, #12]
    261e:	0018      	movs	r0, r3
    2620:	4b20      	ldr	r3, [pc, #128]	; (26a4 <tc_init+0x3a4>)
    2622:	4798      	blx	r3
    2624:	1e03      	subs	r3, r0, #0
    2626:	d1f9      	bne.n	261c <tc_init+0x31c>
    2628:	68bb      	ldr	r3, [r7, #8]
    262a:	22ff      	movs	r2, #255	; 0xff
    262c:	711a      	strb	r2, [r3, #4]
    262e:	234b      	movs	r3, #75	; 0x4b
    2630:	18fb      	adds	r3, r7, r3
    2632:	781b      	ldrb	r3, [r3, #0]
    2634:	2b00      	cmp	r3, #0
    2636:	d00b      	beq.n	2650 <tc_init+0x350>
    2638:	46c0      	nop			; (mov r8, r8)
    263a:	68fb      	ldr	r3, [r7, #12]
    263c:	0018      	movs	r0, r3
    263e:	4b19      	ldr	r3, [pc, #100]	; (26a4 <tc_init+0x3a4>)
    2640:	4798      	blx	r3
    2642:	1e03      	subs	r3, r0, #0
    2644:	d1f9      	bne.n	263a <tc_init+0x33a>
    2646:	68bb      	ldr	r3, [r7, #8]
    2648:	224b      	movs	r2, #75	; 0x4b
    264a:	18ba      	adds	r2, r7, r2
    264c:	7812      	ldrb	r2, [r2, #0]
    264e:	715a      	strb	r2, [r3, #5]
    2650:	687b      	ldr	r3, [r7, #4]
    2652:	7a1a      	ldrb	r2, [r3, #8]
    2654:	68bb      	ldr	r3, [r7, #8]
    2656:	735a      	strb	r2, [r3, #13]
    2658:	46c0      	nop			; (mov r8, r8)
    265a:	68fb      	ldr	r3, [r7, #12]
    265c:	0018      	movs	r0, r3
    265e:	4b11      	ldr	r3, [pc, #68]	; (26a4 <tc_init+0x3a4>)
    2660:	4798      	blx	r3
    2662:	1e03      	subs	r3, r0, #0
    2664:	d1f9      	bne.n	265a <tc_init+0x35a>
    2666:	68fb      	ldr	r3, [r7, #12]
    2668:	791b      	ldrb	r3, [r3, #4]
    266a:	2b04      	cmp	r3, #4
    266c:	d01c      	beq.n	26a8 <tc_init+0x3a8>
    266e:	2b08      	cmp	r3, #8
    2670:	d100      	bne.n	2674 <tc_init+0x374>
    2672:	e06e      	b.n	2752 <tc_init+0x452>
    2674:	2b00      	cmp	r3, #0
    2676:	d049      	beq.n	270c <tc_init+0x40c>
    2678:	e08e      	b.n	2798 <tc_init+0x498>
    267a:	46c0      	nop			; (mov r8, r8)
    267c:	000022b5 	.word	0x000022b5
    2680:	00007454 	.word	0x00007454
    2684:	0000745c 	.word	0x0000745c
    2688:	2000018c 	.word	0x2000018c
    268c:	0000226d 	.word	0x0000226d
    2690:	00004b01 	.word	0x00004b01
    2694:	000021f1 	.word	0x000021f1
    2698:	000021d9 	.word	0x000021d9
    269c:	0000484d 	.word	0x0000484d
    26a0:	0000488d 	.word	0x0000488d
    26a4:	00002295 	.word	0x00002295
    26a8:	46c0      	nop			; (mov r8, r8)
    26aa:	68fb      	ldr	r3, [r7, #12]
    26ac:	0018      	movs	r0, r3
    26ae:	4b3d      	ldr	r3, [pc, #244]	; (27a4 <tc_init+0x4a4>)
    26b0:	4798      	blx	r3
    26b2:	1e03      	subs	r3, r0, #0
    26b4:	d1f9      	bne.n	26aa <tc_init+0x3aa>
    26b6:	687b      	ldr	r3, [r7, #4]
    26b8:	2228      	movs	r2, #40	; 0x28
    26ba:	5c9a      	ldrb	r2, [r3, r2]
    26bc:	68bb      	ldr	r3, [r7, #8]
    26be:	751a      	strb	r2, [r3, #20]
    26c0:	46c0      	nop			; (mov r8, r8)
    26c2:	68fb      	ldr	r3, [r7, #12]
    26c4:	0018      	movs	r0, r3
    26c6:	4b37      	ldr	r3, [pc, #220]	; (27a4 <tc_init+0x4a4>)
    26c8:	4798      	blx	r3
    26ca:	1e03      	subs	r3, r0, #0
    26cc:	d1f9      	bne.n	26c2 <tc_init+0x3c2>
    26ce:	687b      	ldr	r3, [r7, #4]
    26d0:	2229      	movs	r2, #41	; 0x29
    26d2:	5c9a      	ldrb	r2, [r3, r2]
    26d4:	68bb      	ldr	r3, [r7, #8]
    26d6:	76da      	strb	r2, [r3, #27]
    26d8:	46c0      	nop			; (mov r8, r8)
    26da:	68fb      	ldr	r3, [r7, #12]
    26dc:	0018      	movs	r0, r3
    26de:	4b31      	ldr	r3, [pc, #196]	; (27a4 <tc_init+0x4a4>)
    26e0:	4798      	blx	r3
    26e2:	1e03      	subs	r3, r0, #0
    26e4:	d1f9      	bne.n	26da <tc_init+0x3da>
    26e6:	687b      	ldr	r3, [r7, #4]
    26e8:	222a      	movs	r2, #42	; 0x2a
    26ea:	5c9a      	ldrb	r2, [r3, r2]
    26ec:	68bb      	ldr	r3, [r7, #8]
    26ee:	771a      	strb	r2, [r3, #28]
    26f0:	46c0      	nop			; (mov r8, r8)
    26f2:	68fb      	ldr	r3, [r7, #12]
    26f4:	0018      	movs	r0, r3
    26f6:	4b2b      	ldr	r3, [pc, #172]	; (27a4 <tc_init+0x4a4>)
    26f8:	4798      	blx	r3
    26fa:	1e03      	subs	r3, r0, #0
    26fc:	d1f9      	bne.n	26f2 <tc_init+0x3f2>
    26fe:	687b      	ldr	r3, [r7, #4]
    2700:	222b      	movs	r2, #43	; 0x2b
    2702:	5c9a      	ldrb	r2, [r3, r2]
    2704:	68bb      	ldr	r3, [r7, #8]
    2706:	775a      	strb	r2, [r3, #29]
    2708:	2300      	movs	r3, #0
    270a:	e046      	b.n	279a <tc_init+0x49a>
    270c:	46c0      	nop			; (mov r8, r8)
    270e:	68fb      	ldr	r3, [r7, #12]
    2710:	0018      	movs	r0, r3
    2712:	4b24      	ldr	r3, [pc, #144]	; (27a4 <tc_init+0x4a4>)
    2714:	4798      	blx	r3
    2716:	1e03      	subs	r3, r0, #0
    2718:	d1f9      	bne.n	270e <tc_init+0x40e>
    271a:	687b      	ldr	r3, [r7, #4]
    271c:	8d1a      	ldrh	r2, [r3, #40]	; 0x28
    271e:	68bb      	ldr	r3, [r7, #8]
    2720:	829a      	strh	r2, [r3, #20]
    2722:	46c0      	nop			; (mov r8, r8)
    2724:	68fb      	ldr	r3, [r7, #12]
    2726:	0018      	movs	r0, r3
    2728:	4b1e      	ldr	r3, [pc, #120]	; (27a4 <tc_init+0x4a4>)
    272a:	4798      	blx	r3
    272c:	1e03      	subs	r3, r0, #0
    272e:	d1f9      	bne.n	2724 <tc_init+0x424>
    2730:	687b      	ldr	r3, [r7, #4]
    2732:	8d5a      	ldrh	r2, [r3, #42]	; 0x2a
    2734:	68bb      	ldr	r3, [r7, #8]
    2736:	839a      	strh	r2, [r3, #28]
    2738:	46c0      	nop			; (mov r8, r8)
    273a:	68fb      	ldr	r3, [r7, #12]
    273c:	0018      	movs	r0, r3
    273e:	4b19      	ldr	r3, [pc, #100]	; (27a4 <tc_init+0x4a4>)
    2740:	4798      	blx	r3
    2742:	1e03      	subs	r3, r0, #0
    2744:	d1f9      	bne.n	273a <tc_init+0x43a>
    2746:	687b      	ldr	r3, [r7, #4]
    2748:	8d9a      	ldrh	r2, [r3, #44]	; 0x2c
    274a:	68bb      	ldr	r3, [r7, #8]
    274c:	83da      	strh	r2, [r3, #30]
    274e:	2300      	movs	r3, #0
    2750:	e023      	b.n	279a <tc_init+0x49a>
    2752:	46c0      	nop			; (mov r8, r8)
    2754:	68fb      	ldr	r3, [r7, #12]
    2756:	0018      	movs	r0, r3
    2758:	4b12      	ldr	r3, [pc, #72]	; (27a4 <tc_init+0x4a4>)
    275a:	4798      	blx	r3
    275c:	1e03      	subs	r3, r0, #0
    275e:	d1f9      	bne.n	2754 <tc_init+0x454>
    2760:	687b      	ldr	r3, [r7, #4]
    2762:	6a9a      	ldr	r2, [r3, #40]	; 0x28
    2764:	68bb      	ldr	r3, [r7, #8]
    2766:	615a      	str	r2, [r3, #20]
    2768:	46c0      	nop			; (mov r8, r8)
    276a:	68fb      	ldr	r3, [r7, #12]
    276c:	0018      	movs	r0, r3
    276e:	4b0d      	ldr	r3, [pc, #52]	; (27a4 <tc_init+0x4a4>)
    2770:	4798      	blx	r3
    2772:	1e03      	subs	r3, r0, #0
    2774:	d1f9      	bne.n	276a <tc_init+0x46a>
    2776:	687b      	ldr	r3, [r7, #4]
    2778:	6ada      	ldr	r2, [r3, #44]	; 0x2c
    277a:	68bb      	ldr	r3, [r7, #8]
    277c:	61da      	str	r2, [r3, #28]
    277e:	46c0      	nop			; (mov r8, r8)
    2780:	68fb      	ldr	r3, [r7, #12]
    2782:	0018      	movs	r0, r3
    2784:	4b07      	ldr	r3, [pc, #28]	; (27a4 <tc_init+0x4a4>)
    2786:	4798      	blx	r3
    2788:	1e03      	subs	r3, r0, #0
    278a:	d1f9      	bne.n	2780 <tc_init+0x480>
    278c:	687b      	ldr	r3, [r7, #4]
    278e:	6b1a      	ldr	r2, [r3, #48]	; 0x30
    2790:	68bb      	ldr	r3, [r7, #8]
    2792:	621a      	str	r2, [r3, #32]
    2794:	2300      	movs	r3, #0
    2796:	e000      	b.n	279a <tc_init+0x49a>
    2798:	2317      	movs	r3, #23
    279a:	0018      	movs	r0, r3
    279c:	46bd      	mov	sp, r7
    279e:	b015      	add	sp, #84	; 0x54
    27a0:	bd90      	pop	{r4, r7, pc}
    27a2:	46c0      	nop			; (mov r8, r8)
    27a4:	00002295 	.word	0x00002295

000027a8 <tc_set_compare_value>:
    27a8:	b580      	push	{r7, lr}
    27aa:	b086      	sub	sp, #24
    27ac:	af00      	add	r7, sp, #0
    27ae:	60f8      	str	r0, [r7, #12]
    27b0:	607a      	str	r2, [r7, #4]
    27b2:	230b      	movs	r3, #11
    27b4:	18fb      	adds	r3, r7, r3
    27b6:	1c0a      	adds	r2, r1, #0
    27b8:	701a      	strb	r2, [r3, #0]
    27ba:	68fb      	ldr	r3, [r7, #12]
    27bc:	681b      	ldr	r3, [r3, #0]
    27be:	617b      	str	r3, [r7, #20]
    27c0:	46c0      	nop			; (mov r8, r8)
    27c2:	68fb      	ldr	r3, [r7, #12]
    27c4:	0018      	movs	r0, r3
    27c6:	4b38      	ldr	r3, [pc, #224]	; (28a8 <tc_set_compare_value+0x100>)
    27c8:	4798      	blx	r3
    27ca:	1e03      	subs	r3, r0, #0
    27cc:	d1f9      	bne.n	27c2 <tc_set_compare_value+0x1a>
    27ce:	68fb      	ldr	r3, [r7, #12]
    27d0:	791b      	ldrb	r3, [r3, #4]
    27d2:	2b04      	cmp	r3, #4
    27d4:	d004      	beq.n	27e0 <tc_set_compare_value+0x38>
    27d6:	2b08      	cmp	r3, #8
    27d8:	d043      	beq.n	2862 <tc_set_compare_value+0xba>
    27da:	2b00      	cmp	r3, #0
    27dc:	d020      	beq.n	2820 <tc_set_compare_value+0x78>
    27de:	e05e      	b.n	289e <tc_set_compare_value+0xf6>
    27e0:	230b      	movs	r3, #11
    27e2:	18fb      	adds	r3, r7, r3
    27e4:	781b      	ldrb	r3, [r3, #0]
    27e6:	2b01      	cmp	r3, #1
    27e8:	d81a      	bhi.n	2820 <tc_set_compare_value+0x78>
    27ea:	68fb      	ldr	r3, [r7, #12]
    27ec:	7e9b      	ldrb	r3, [r3, #26]
    27ee:	2b00      	cmp	r3, #0
    27f0:	d00b      	beq.n	280a <tc_set_compare_value+0x62>
    27f2:	230b      	movs	r3, #11
    27f4:	18fb      	adds	r3, r7, r3
    27f6:	781b      	ldrb	r3, [r3, #0]
    27f8:	687a      	ldr	r2, [r7, #4]
    27fa:	b2d0      	uxtb	r0, r2
    27fc:	697a      	ldr	r2, [r7, #20]
    27fe:	2130      	movs	r1, #48	; 0x30
    2800:	18d3      	adds	r3, r2, r3
    2802:	185b      	adds	r3, r3, r1
    2804:	1c02      	adds	r2, r0, #0
    2806:	701a      	strb	r2, [r3, #0]
    2808:	e008      	b.n	281c <tc_set_compare_value+0x74>
    280a:	230b      	movs	r3, #11
    280c:	18fb      	adds	r3, r7, r3
    280e:	781b      	ldrb	r3, [r3, #0]
    2810:	687a      	ldr	r2, [r7, #4]
    2812:	b2d1      	uxtb	r1, r2
    2814:	697a      	ldr	r2, [r7, #20]
    2816:	18d3      	adds	r3, r2, r3
    2818:	1c0a      	adds	r2, r1, #0
    281a:	771a      	strb	r2, [r3, #28]
    281c:	2300      	movs	r3, #0
    281e:	e03f      	b.n	28a0 <tc_set_compare_value+0xf8>
    2820:	230b      	movs	r3, #11
    2822:	18fb      	adds	r3, r7, r3
    2824:	781b      	ldrb	r3, [r3, #0]
    2826:	2b01      	cmp	r3, #1
    2828:	d81b      	bhi.n	2862 <tc_set_compare_value+0xba>
    282a:	68fb      	ldr	r3, [r7, #12]
    282c:	7e9b      	ldrb	r3, [r3, #26]
    282e:	2b00      	cmp	r3, #0
    2830:	d009      	beq.n	2846 <tc_set_compare_value+0x9e>
    2832:	230b      	movs	r3, #11
    2834:	18fb      	adds	r3, r7, r3
    2836:	781a      	ldrb	r2, [r3, #0]
    2838:	687b      	ldr	r3, [r7, #4]
    283a:	b299      	uxth	r1, r3
    283c:	697b      	ldr	r3, [r7, #20]
    283e:	3218      	adds	r2, #24
    2840:	0052      	lsls	r2, r2, #1
    2842:	52d1      	strh	r1, [r2, r3]
    2844:	e00b      	b.n	285e <tc_set_compare_value+0xb6>
    2846:	230b      	movs	r3, #11
    2848:	18fb      	adds	r3, r7, r3
    284a:	781b      	ldrb	r3, [r3, #0]
    284c:	687a      	ldr	r2, [r7, #4]
    284e:	b291      	uxth	r1, r2
    2850:	697a      	ldr	r2, [r7, #20]
    2852:	330c      	adds	r3, #12
    2854:	005b      	lsls	r3, r3, #1
    2856:	18d3      	adds	r3, r2, r3
    2858:	3304      	adds	r3, #4
    285a:	1c0a      	adds	r2, r1, #0
    285c:	801a      	strh	r2, [r3, #0]
    285e:	2300      	movs	r3, #0
    2860:	e01e      	b.n	28a0 <tc_set_compare_value+0xf8>
    2862:	230b      	movs	r3, #11
    2864:	18fb      	adds	r3, r7, r3
    2866:	781b      	ldrb	r3, [r3, #0]
    2868:	2b01      	cmp	r3, #1
    286a:	d818      	bhi.n	289e <tc_set_compare_value+0xf6>
    286c:	68fb      	ldr	r3, [r7, #12]
    286e:	7e9b      	ldrb	r3, [r3, #26]
    2870:	2b00      	cmp	r3, #0
    2872:	d008      	beq.n	2886 <tc_set_compare_value+0xde>
    2874:	230b      	movs	r3, #11
    2876:	18fb      	adds	r3, r7, r3
    2878:	781a      	ldrb	r2, [r3, #0]
    287a:	697b      	ldr	r3, [r7, #20]
    287c:	320c      	adds	r2, #12
    287e:	0092      	lsls	r2, r2, #2
    2880:	6879      	ldr	r1, [r7, #4]
    2882:	50d1      	str	r1, [r2, r3]
    2884:	e009      	b.n	289a <tc_set_compare_value+0xf2>
    2886:	230b      	movs	r3, #11
    2888:	18fb      	adds	r3, r7, r3
    288a:	781b      	ldrb	r3, [r3, #0]
    288c:	697a      	ldr	r2, [r7, #20]
    288e:	3306      	adds	r3, #6
    2890:	009b      	lsls	r3, r3, #2
    2892:	18d3      	adds	r3, r2, r3
    2894:	3304      	adds	r3, #4
    2896:	687a      	ldr	r2, [r7, #4]
    2898:	601a      	str	r2, [r3, #0]
    289a:	2300      	movs	r3, #0
    289c:	e000      	b.n	28a0 <tc_set_compare_value+0xf8>
    289e:	2317      	movs	r3, #23
    28a0:	0018      	movs	r0, r3
    28a2:	46bd      	mov	sp, r7
    28a4:	b006      	add	sp, #24
    28a6:	bd80      	pop	{r7, pc}
    28a8:	00002295 	.word	0x00002295

000028ac <system_interrupt_enable>:
    28ac:	b580      	push	{r7, lr}
    28ae:	b082      	sub	sp, #8
    28b0:	af00      	add	r7, sp, #0
    28b2:	0002      	movs	r2, r0
    28b4:	1dfb      	adds	r3, r7, #7
    28b6:	701a      	strb	r2, [r3, #0]
    28b8:	4b06      	ldr	r3, [pc, #24]	; (28d4 <system_interrupt_enable+0x28>)
    28ba:	1dfa      	adds	r2, r7, #7
    28bc:	7812      	ldrb	r2, [r2, #0]
    28be:	0011      	movs	r1, r2
    28c0:	221f      	movs	r2, #31
    28c2:	400a      	ands	r2, r1
    28c4:	2101      	movs	r1, #1
    28c6:	4091      	lsls	r1, r2
    28c8:	000a      	movs	r2, r1
    28ca:	601a      	str	r2, [r3, #0]
    28cc:	46c0      	nop			; (mov r8, r8)
    28ce:	46bd      	mov	sp, r7
    28d0:	b002      	add	sp, #8
    28d2:	bd80      	pop	{r7, pc}
    28d4:	e000e100 	.word	0xe000e100

000028d8 <adc_is_syncing>:
    28d8:	b580      	push	{r7, lr}
    28da:	b084      	sub	sp, #16
    28dc:	af00      	add	r7, sp, #0
    28de:	6078      	str	r0, [r7, #4]
    28e0:	687b      	ldr	r3, [r7, #4]
    28e2:	681b      	ldr	r3, [r3, #0]
    28e4:	60fb      	str	r3, [r7, #12]
    28e6:	68fb      	ldr	r3, [r7, #12]
    28e8:	8c1b      	ldrh	r3, [r3, #32]
    28ea:	b29b      	uxth	r3, r3
    28ec:	2b00      	cmp	r3, #0
    28ee:	d001      	beq.n	28f4 <adc_is_syncing+0x1c>
    28f0:	2301      	movs	r3, #1
    28f2:	e000      	b.n	28f6 <adc_is_syncing+0x1e>
    28f4:	2300      	movs	r3, #0
    28f6:	0018      	movs	r0, r3
    28f8:	46bd      	mov	sp, r7
    28fa:	b004      	add	sp, #16
    28fc:	bd80      	pop	{r7, pc}

000028fe <adc_get_status>:
    28fe:	b580      	push	{r7, lr}
    2900:	b086      	sub	sp, #24
    2902:	af00      	add	r7, sp, #0
    2904:	6078      	str	r0, [r7, #4]
    2906:	687b      	ldr	r3, [r7, #4]
    2908:	681b      	ldr	r3, [r3, #0]
    290a:	613b      	str	r3, [r7, #16]
    290c:	693b      	ldr	r3, [r7, #16]
    290e:	799b      	ldrb	r3, [r3, #6]
    2910:	b2db      	uxtb	r3, r3
    2912:	60fb      	str	r3, [r7, #12]
    2914:	2300      	movs	r3, #0
    2916:	617b      	str	r3, [r7, #20]
    2918:	68fb      	ldr	r3, [r7, #12]
    291a:	2201      	movs	r2, #1
    291c:	4013      	ands	r3, r2
    291e:	d003      	beq.n	2928 <adc_get_status+0x2a>
    2920:	697b      	ldr	r3, [r7, #20]
    2922:	2201      	movs	r2, #1
    2924:	4313      	orrs	r3, r2
    2926:	617b      	str	r3, [r7, #20]
    2928:	68fb      	ldr	r3, [r7, #12]
    292a:	2204      	movs	r2, #4
    292c:	4013      	ands	r3, r2
    292e:	d003      	beq.n	2938 <adc_get_status+0x3a>
    2930:	697b      	ldr	r3, [r7, #20]
    2932:	2202      	movs	r2, #2
    2934:	4313      	orrs	r3, r2
    2936:	617b      	str	r3, [r7, #20]
    2938:	68fb      	ldr	r3, [r7, #12]
    293a:	2202      	movs	r2, #2
    293c:	4013      	ands	r3, r2
    293e:	d003      	beq.n	2948 <adc_get_status+0x4a>
    2940:	697b      	ldr	r3, [r7, #20]
    2942:	2204      	movs	r2, #4
    2944:	4313      	orrs	r3, r2
    2946:	617b      	str	r3, [r7, #20]
    2948:	697b      	ldr	r3, [r7, #20]
    294a:	0018      	movs	r0, r3
    294c:	46bd      	mov	sp, r7
    294e:	b006      	add	sp, #24
    2950:	bd80      	pop	{r7, pc}

00002952 <adc_clear_status>:
    2952:	b580      	push	{r7, lr}
    2954:	b084      	sub	sp, #16
    2956:	af00      	add	r7, sp, #0
    2958:	6078      	str	r0, [r7, #4]
    295a:	6039      	str	r1, [r7, #0]
    295c:	687b      	ldr	r3, [r7, #4]
    295e:	681b      	ldr	r3, [r3, #0]
    2960:	60bb      	str	r3, [r7, #8]
    2962:	2300      	movs	r3, #0
    2964:	60fb      	str	r3, [r7, #12]
    2966:	683b      	ldr	r3, [r7, #0]
    2968:	2201      	movs	r2, #1
    296a:	4013      	ands	r3, r2
    296c:	d003      	beq.n	2976 <adc_clear_status+0x24>
    296e:	68fb      	ldr	r3, [r7, #12]
    2970:	2201      	movs	r2, #1
    2972:	4313      	orrs	r3, r2
    2974:	60fb      	str	r3, [r7, #12]
    2976:	683b      	ldr	r3, [r7, #0]
    2978:	2202      	movs	r2, #2
    297a:	4013      	ands	r3, r2
    297c:	d003      	beq.n	2986 <adc_clear_status+0x34>
    297e:	68fb      	ldr	r3, [r7, #12]
    2980:	2204      	movs	r2, #4
    2982:	4313      	orrs	r3, r2
    2984:	60fb      	str	r3, [r7, #12]
    2986:	683b      	ldr	r3, [r7, #0]
    2988:	2204      	movs	r2, #4
    298a:	4013      	ands	r3, r2
    298c:	d003      	beq.n	2996 <adc_clear_status+0x44>
    298e:	68fb      	ldr	r3, [r7, #12]
    2990:	2202      	movs	r2, #2
    2992:	4313      	orrs	r3, r2
    2994:	60fb      	str	r3, [r7, #12]
    2996:	68fb      	ldr	r3, [r7, #12]
    2998:	b2da      	uxtb	r2, r3
    299a:	68bb      	ldr	r3, [r7, #8]
    299c:	719a      	strb	r2, [r3, #6]
    299e:	46c0      	nop			; (mov r8, r8)
    29a0:	46bd      	mov	sp, r7
    29a2:	b004      	add	sp, #16
    29a4:	bd80      	pop	{r7, pc}
	...

000029a8 <adc_enable>:
    29a8:	b580      	push	{r7, lr}
    29aa:	b084      	sub	sp, #16
    29ac:	af00      	add	r7, sp, #0
    29ae:	6078      	str	r0, [r7, #4]
    29b0:	687b      	ldr	r3, [r7, #4]
    29b2:	681b      	ldr	r3, [r3, #0]
    29b4:	60fb      	str	r3, [r7, #12]
    29b6:	46c0      	nop			; (mov r8, r8)
    29b8:	687b      	ldr	r3, [r7, #4]
    29ba:	0018      	movs	r0, r3
    29bc:	4b10      	ldr	r3, [pc, #64]	; (2a00 <adc_enable+0x58>)
    29be:	4798      	blx	r3
    29c0:	1e03      	subs	r3, r0, #0
    29c2:	d1f9      	bne.n	29b8 <adc_enable+0x10>
    29c4:	2016      	movs	r0, #22
    29c6:	4b0f      	ldr	r3, [pc, #60]	; (2a04 <adc_enable+0x5c>)
    29c8:	4798      	blx	r3
    29ca:	68fb      	ldr	r3, [r7, #12]
    29cc:	2207      	movs	r2, #7
    29ce:	711a      	strb	r2, [r3, #4]
    29d0:	68fb      	ldr	r3, [r7, #12]
    29d2:	2207      	movs	r2, #7
    29d4:	719a      	strb	r2, [r3, #6]
    29d6:	68fb      	ldr	r3, [r7, #12]
    29d8:	781b      	ldrb	r3, [r3, #0]
    29da:	b2db      	uxtb	r3, r3
    29dc:	2202      	movs	r2, #2
    29de:	4313      	orrs	r3, r2
    29e0:	b2da      	uxtb	r2, r3
    29e2:	68fb      	ldr	r3, [r7, #12]
    29e4:	701a      	strb	r2, [r3, #0]
    29e6:	46c0      	nop			; (mov r8, r8)
    29e8:	687b      	ldr	r3, [r7, #4]
    29ea:	0018      	movs	r0, r3
    29ec:	4b04      	ldr	r3, [pc, #16]	; (2a00 <adc_enable+0x58>)
    29ee:	4798      	blx	r3
    29f0:	1e03      	subs	r3, r0, #0
    29f2:	d1f9      	bne.n	29e8 <adc_enable+0x40>
    29f4:	2300      	movs	r3, #0
    29f6:	0018      	movs	r0, r3
    29f8:	46bd      	mov	sp, r7
    29fa:	b004      	add	sp, #16
    29fc:	bd80      	pop	{r7, pc}
    29fe:	46c0      	nop			; (mov r8, r8)
    2a00:	000028d9 	.word	0x000028d9
    2a04:	000028ad 	.word	0x000028ad

00002a08 <adc_start_conversion>:
    2a08:	b580      	push	{r7, lr}
    2a0a:	b084      	sub	sp, #16
    2a0c:	af00      	add	r7, sp, #0
    2a0e:	6078      	str	r0, [r7, #4]
    2a10:	687b      	ldr	r3, [r7, #4]
    2a12:	681b      	ldr	r3, [r3, #0]
    2a14:	60fb      	str	r3, [r7, #12]
    2a16:	46c0      	nop			; (mov r8, r8)
    2a18:	687b      	ldr	r3, [r7, #4]
    2a1a:	0018      	movs	r0, r3
    2a1c:	4b0b      	ldr	r3, [pc, #44]	; (2a4c <adc_start_conversion+0x44>)
    2a1e:	4798      	blx	r3
    2a20:	1e03      	subs	r3, r0, #0
    2a22:	d1f9      	bne.n	2a18 <adc_start_conversion+0x10>
    2a24:	68fb      	ldr	r3, [r7, #12]
    2a26:	7e1b      	ldrb	r3, [r3, #24]
    2a28:	b2db      	uxtb	r3, r3
    2a2a:	2202      	movs	r2, #2
    2a2c:	4313      	orrs	r3, r2
    2a2e:	b2da      	uxtb	r2, r3
    2a30:	68fb      	ldr	r3, [r7, #12]
    2a32:	761a      	strb	r2, [r3, #24]
    2a34:	46c0      	nop			; (mov r8, r8)
    2a36:	687b      	ldr	r3, [r7, #4]
    2a38:	0018      	movs	r0, r3
    2a3a:	4b04      	ldr	r3, [pc, #16]	; (2a4c <adc_start_conversion+0x44>)
    2a3c:	4798      	blx	r3
    2a3e:	1e03      	subs	r3, r0, #0
    2a40:	d1f9      	bne.n	2a36 <adc_start_conversion+0x2e>
    2a42:	46c0      	nop			; (mov r8, r8)
    2a44:	46bd      	mov	sp, r7
    2a46:	b004      	add	sp, #16
    2a48:	bd80      	pop	{r7, pc}
    2a4a:	46c0      	nop			; (mov r8, r8)
    2a4c:	000028d9 	.word	0x000028d9

00002a50 <adc_read>:
    2a50:	b580      	push	{r7, lr}
    2a52:	b084      	sub	sp, #16
    2a54:	af00      	add	r7, sp, #0
    2a56:	6078      	str	r0, [r7, #4]
    2a58:	6039      	str	r1, [r7, #0]
    2a5a:	687b      	ldr	r3, [r7, #4]
    2a5c:	0018      	movs	r0, r3
    2a5e:	4b14      	ldr	r3, [pc, #80]	; (2ab0 <adc_read+0x60>)
    2a60:	4798      	blx	r3
    2a62:	0002      	movs	r2, r0
    2a64:	2301      	movs	r3, #1
    2a66:	4013      	ands	r3, r2
    2a68:	d101      	bne.n	2a6e <adc_read+0x1e>
    2a6a:	2305      	movs	r3, #5
    2a6c:	e01c      	b.n	2aa8 <adc_read+0x58>
    2a6e:	687b      	ldr	r3, [r7, #4]
    2a70:	681b      	ldr	r3, [r3, #0]
    2a72:	60fb      	str	r3, [r7, #12]
    2a74:	68fb      	ldr	r3, [r7, #12]
    2a76:	8c9b      	ldrh	r3, [r3, #36]	; 0x24
    2a78:	b29a      	uxth	r2, r3
    2a7a:	683b      	ldr	r3, [r7, #0]
    2a7c:	801a      	strh	r2, [r3, #0]
    2a7e:	687b      	ldr	r3, [r7, #4]
    2a80:	2101      	movs	r1, #1
    2a82:	0018      	movs	r0, r3
    2a84:	4b0b      	ldr	r3, [pc, #44]	; (2ab4 <adc_read+0x64>)
    2a86:	4798      	blx	r3
    2a88:	687b      	ldr	r3, [r7, #4]
    2a8a:	0018      	movs	r0, r3
    2a8c:	4b08      	ldr	r3, [pc, #32]	; (2ab0 <adc_read+0x60>)
    2a8e:	4798      	blx	r3
    2a90:	0002      	movs	r2, r0
    2a92:	2304      	movs	r3, #4
    2a94:	4013      	ands	r3, r2
    2a96:	d006      	beq.n	2aa6 <adc_read+0x56>
    2a98:	687b      	ldr	r3, [r7, #4]
    2a9a:	2104      	movs	r1, #4
    2a9c:	0018      	movs	r0, r3
    2a9e:	4b05      	ldr	r3, [pc, #20]	; (2ab4 <adc_read+0x64>)
    2aa0:	4798      	blx	r3
    2aa2:	231e      	movs	r3, #30
    2aa4:	e000      	b.n	2aa8 <adc_read+0x58>
    2aa6:	2300      	movs	r3, #0
    2aa8:	0018      	movs	r0, r3
    2aaa:	46bd      	mov	sp, r7
    2aac:	b004      	add	sp, #16
    2aae:	bd80      	pop	{r7, pc}
    2ab0:	000028ff 	.word	0x000028ff
    2ab4:	00002953 	.word	0x00002953

00002ab8 <adc_interface_init>:
    2ab8:	b580      	push	{r7, lr}
    2aba:	af00      	add	r7, sp, #0
    2abc:	4b0f      	ldr	r3, [pc, #60]	; (2afc <adc_interface_init+0x44>)
    2abe:	0018      	movs	r0, r3
    2ac0:	4b0f      	ldr	r3, [pc, #60]	; (2b00 <adc_interface_init+0x48>)
    2ac2:	4798      	blx	r3
    2ac4:	4b0d      	ldr	r3, [pc, #52]	; (2afc <adc_interface_init+0x44>)
    2ac6:	2207      	movs	r2, #7
    2ac8:	709a      	strb	r2, [r3, #2]
    2aca:	4b0c      	ldr	r3, [pc, #48]	; (2afc <adc_interface_init+0x44>)
    2acc:	2200      	movs	r2, #0
    2ace:	711a      	strb	r2, [r3, #4]
    2ad0:	4b0a      	ldr	r3, [pc, #40]	; (2afc <adc_interface_init+0x44>)
    2ad2:	2203      	movs	r2, #3
    2ad4:	705a      	strb	r2, [r3, #1]
    2ad6:	4b09      	ldr	r3, [pc, #36]	; (2afc <adc_interface_init+0x44>)
    2ad8:	2200      	movs	r2, #0
    2ada:	751a      	strb	r2, [r3, #20]
    2adc:	4b07      	ldr	r3, [pc, #28]	; (2afc <adc_interface_init+0x44>)
    2ade:	4a09      	ldr	r2, [pc, #36]	; (2b04 <adc_interface_init+0x4c>)
    2ae0:	611a      	str	r2, [r3, #16]
    2ae2:	4a06      	ldr	r2, [pc, #24]	; (2afc <adc_interface_init+0x44>)
    2ae4:	4908      	ldr	r1, [pc, #32]	; (2b08 <adc_interface_init+0x50>)
    2ae6:	4b09      	ldr	r3, [pc, #36]	; (2b0c <adc_interface_init+0x54>)
    2ae8:	0018      	movs	r0, r3
    2aea:	4b09      	ldr	r3, [pc, #36]	; (2b10 <adc_interface_init+0x58>)
    2aec:	4798      	blx	r3
    2aee:	4b07      	ldr	r3, [pc, #28]	; (2b0c <adc_interface_init+0x54>)
    2af0:	0018      	movs	r0, r3
    2af2:	4b08      	ldr	r3, [pc, #32]	; (2b14 <adc_interface_init+0x5c>)
    2af4:	4798      	blx	r3
    2af6:	46c0      	nop			; (mov r8, r8)
    2af8:	46bd      	mov	sp, r7
    2afa:	bd80      	pop	{r7, pc}
    2afc:	2000004c 	.word	0x2000004c
    2b00:	000003d5 	.word	0x000003d5
    2b04:	0000043d 	.word	0x0000043d
    2b08:	43000c00 	.word	0x43000c00
    2b0c:	2000002c 	.word	0x2000002c
    2b10:	00000a0d 	.word	0x00000a0d
    2b14:	000029a9 	.word	0x000029a9

00002b18 <adc_interface_read_pin>:
    2b18:	b5f0      	push	{r4, r5, r6, r7, lr}
    2b1a:	b085      	sub	sp, #20
    2b1c:	af00      	add	r7, sp, #0
    2b1e:	6078      	str	r0, [r7, #4]
    2b20:	687b      	ldr	r3, [r7, #4]
    2b22:	2b29      	cmp	r3, #41	; 0x29
    2b24:	d81d      	bhi.n	2b62 <adc_interface_read_pin+0x4a>
    2b26:	687b      	ldr	r3, [r7, #4]
    2b28:	009a      	lsls	r2, r3, #2
    2b2a:	4b33      	ldr	r3, [pc, #204]	; (2bf8 <adc_interface_read_pin+0xe0>)
    2b2c:	18d3      	adds	r3, r2, r3
    2b2e:	681b      	ldr	r3, [r3, #0]
    2b30:	469f      	mov	pc, r3
    2b32:	4b32      	ldr	r3, [pc, #200]	; (2bfc <adc_interface_read_pin+0xe4>)
    2b34:	2200      	movs	r2, #0
    2b36:	711a      	strb	r2, [r3, #4]
    2b38:	e015      	b.n	2b66 <adc_interface_read_pin+0x4e>
    2b3a:	4b30      	ldr	r3, [pc, #192]	; (2bfc <adc_interface_read_pin+0xe4>)
    2b3c:	2202      	movs	r2, #2
    2b3e:	711a      	strb	r2, [r3, #4]
    2b40:	e011      	b.n	2b66 <adc_interface_read_pin+0x4e>
    2b42:	4b2e      	ldr	r3, [pc, #184]	; (2bfc <adc_interface_read_pin+0xe4>)
    2b44:	2203      	movs	r2, #3
    2b46:	711a      	strb	r2, [r3, #4]
    2b48:	e00d      	b.n	2b66 <adc_interface_read_pin+0x4e>
    2b4a:	4b2c      	ldr	r3, [pc, #176]	; (2bfc <adc_interface_read_pin+0xe4>)
    2b4c:	2204      	movs	r2, #4
    2b4e:	711a      	strb	r2, [r3, #4]
    2b50:	e009      	b.n	2b66 <adc_interface_read_pin+0x4e>
    2b52:	4b2a      	ldr	r3, [pc, #168]	; (2bfc <adc_interface_read_pin+0xe4>)
    2b54:	2205      	movs	r2, #5
    2b56:	711a      	strb	r2, [r3, #4]
    2b58:	e005      	b.n	2b66 <adc_interface_read_pin+0x4e>
    2b5a:	4b28      	ldr	r3, [pc, #160]	; (2bfc <adc_interface_read_pin+0xe4>)
    2b5c:	220a      	movs	r2, #10
    2b5e:	711a      	strb	r2, [r3, #4]
    2b60:	e001      	b.n	2b66 <adc_interface_read_pin+0x4e>
    2b62:	2300      	movs	r3, #0
    2b64:	e043      	b.n	2bee <adc_interface_read_pin+0xd6>
    2b66:	4a25      	ldr	r2, [pc, #148]	; (2bfc <adc_interface_read_pin+0xe4>)
    2b68:	4925      	ldr	r1, [pc, #148]	; (2c00 <adc_interface_read_pin+0xe8>)
    2b6a:	4b26      	ldr	r3, [pc, #152]	; (2c04 <adc_interface_read_pin+0xec>)
    2b6c:	0018      	movs	r0, r3
    2b6e:	4b26      	ldr	r3, [pc, #152]	; (2c08 <adc_interface_read_pin+0xf0>)
    2b70:	4798      	blx	r3
    2b72:	4b24      	ldr	r3, [pc, #144]	; (2c04 <adc_interface_read_pin+0xec>)
    2b74:	0018      	movs	r0, r3
    2b76:	4b25      	ldr	r3, [pc, #148]	; (2c0c <adc_interface_read_pin+0xf4>)
    2b78:	4798      	blx	r3
    2b7a:	230c      	movs	r3, #12
    2b7c:	18fb      	adds	r3, r7, r3
    2b7e:	2200      	movs	r2, #0
    2b80:	801a      	strh	r2, [r3, #0]
    2b82:	230e      	movs	r3, #14
    2b84:	18fb      	adds	r3, r7, r3
    2b86:	2200      	movs	r2, #0
    2b88:	801a      	strh	r2, [r3, #0]
    2b8a:	2000      	movs	r0, #0
    2b8c:	4b20      	ldr	r3, [pc, #128]	; (2c10 <adc_interface_read_pin+0xf8>)
    2b8e:	4798      	blx	r3
    2b90:	0003      	movs	r3, r0
    2b92:	001d      	movs	r5, r3
    2b94:	2300      	movs	r3, #0
    2b96:	001e      	movs	r6, r3
    2b98:	4c1e      	ldr	r4, [pc, #120]	; (2c14 <adc_interface_read_pin+0xfc>)
    2b9a:	2264      	movs	r2, #100	; 0x64
    2b9c:	2300      	movs	r3, #0
    2b9e:	0028      	movs	r0, r5
    2ba0:	0031      	movs	r1, r6
    2ba2:	47a0      	blx	r4
    2ba4:	0003      	movs	r3, r0
    2ba6:	000c      	movs	r4, r1
    2ba8:	0019      	movs	r1, r3
    2baa:	0022      	movs	r2, r4
    2bac:	4b1a      	ldr	r3, [pc, #104]	; (2c18 <adc_interface_read_pin+0x100>)
    2bae:	2400      	movs	r4, #0
    2bb0:	18c9      	adds	r1, r1, r3
    2bb2:	4162      	adcs	r2, r4
    2bb4:	0008      	movs	r0, r1
    2bb6:	0011      	movs	r1, r2
    2bb8:	4c18      	ldr	r4, [pc, #96]	; (2c1c <adc_interface_read_pin+0x104>)
    2bba:	4a19      	ldr	r2, [pc, #100]	; (2c20 <adc_interface_read_pin+0x108>)
    2bbc:	2300      	movs	r3, #0
    2bbe:	47a0      	blx	r4
    2bc0:	0003      	movs	r3, r0
    2bc2:	000c      	movs	r4, r1
    2bc4:	0018      	movs	r0, r3
    2bc6:	4b17      	ldr	r3, [pc, #92]	; (2c24 <adc_interface_read_pin+0x10c>)
    2bc8:	4798      	blx	r3
    2bca:	230c      	movs	r3, #12
    2bcc:	18fa      	adds	r2, r7, r3
    2bce:	4b0d      	ldr	r3, [pc, #52]	; (2c04 <adc_interface_read_pin+0xec>)
    2bd0:	0011      	movs	r1, r2
    2bd2:	0018      	movs	r0, r3
    2bd4:	4b14      	ldr	r3, [pc, #80]	; (2c28 <adc_interface_read_pin+0x110>)
    2bd6:	4798      	blx	r3
    2bd8:	0003      	movs	r3, r0
    2bda:	2b05      	cmp	r3, #5
    2bdc:	d104      	bne.n	2be8 <adc_interface_read_pin+0xd0>
    2bde:	230e      	movs	r3, #14
    2be0:	18fb      	adds	r3, r7, r3
    2be2:	881b      	ldrh	r3, [r3, #0]
    2be4:	2b13      	cmp	r3, #19
    2be6:	d9d0      	bls.n	2b8a <adc_interface_read_pin+0x72>
    2be8:	230c      	movs	r3, #12
    2bea:	18fb      	adds	r3, r7, r3
    2bec:	881b      	ldrh	r3, [r3, #0]
    2bee:	0018      	movs	r0, r3
    2bf0:	46bd      	mov	sp, r7
    2bf2:	b005      	add	sp, #20
    2bf4:	bdf0      	pop	{r4, r5, r6, r7, pc}
    2bf6:	46c0      	nop			; (mov r8, r8)
    2bf8:	00007484 	.word	0x00007484
    2bfc:	2000004c 	.word	0x2000004c
    2c00:	43000c00 	.word	0x43000c00
    2c04:	2000002c 	.word	0x2000002c
    2c08:	00000a0d 	.word	0x00000a0d
    2c0c:	00002a09 	.word	0x00002a09
    2c10:	0000478d 	.word	0x0000478d
    2c14:	00005415 	.word	0x00005415
    2c18:	006acfbf 	.word	0x006acfbf
    2c1c:	000053d5 	.word	0x000053d5
    2c20:	006acfc0 	.word	0x006acfc0
    2c24:	20000001 	.word	0x20000001
    2c28:	00002a51 	.word	0x00002a51

00002c2c <tc_is_syncing>:
    2c2c:	b580      	push	{r7, lr}
    2c2e:	b084      	sub	sp, #16
    2c30:	af00      	add	r7, sp, #0
    2c32:	6078      	str	r0, [r7, #4]
    2c34:	687b      	ldr	r3, [r7, #4]
    2c36:	681b      	ldr	r3, [r3, #0]
    2c38:	60fb      	str	r3, [r7, #12]
    2c3a:	68fb      	ldr	r3, [r7, #12]
    2c3c:	691b      	ldr	r3, [r3, #16]
    2c3e:	1e5a      	subs	r2, r3, #1
    2c40:	4193      	sbcs	r3, r2
    2c42:	b2db      	uxtb	r3, r3
    2c44:	0018      	movs	r0, r3
    2c46:	46bd      	mov	sp, r7
    2c48:	b004      	add	sp, #16
    2c4a:	bd80      	pop	{r7, pc}

00002c4c <tc_get_config_defaults>:
    2c4c:	b580      	push	{r7, lr}
    2c4e:	b082      	sub	sp, #8
    2c50:	af00      	add	r7, sp, #0
    2c52:	6078      	str	r0, [r7, #4]
    2c54:	687b      	ldr	r3, [r7, #4]
    2c56:	2200      	movs	r2, #0
    2c58:	701a      	strb	r2, [r3, #0]
    2c5a:	687b      	ldr	r3, [r7, #4]
    2c5c:	2200      	movs	r2, #0
    2c5e:	70da      	strb	r2, [r3, #3]
    2c60:	687b      	ldr	r3, [r7, #4]
    2c62:	2200      	movs	r2, #0
    2c64:	809a      	strh	r2, [r3, #4]
    2c66:	687b      	ldr	r3, [r7, #4]
    2c68:	2200      	movs	r2, #0
    2c6a:	719a      	strb	r2, [r3, #6]
    2c6c:	687b      	ldr	r3, [r7, #4]
    2c6e:	2200      	movs	r2, #0
    2c70:	71da      	strb	r2, [r3, #7]
    2c72:	687b      	ldr	r3, [r7, #4]
    2c74:	2200      	movs	r2, #0
    2c76:	705a      	strb	r2, [r3, #1]
    2c78:	687b      	ldr	r3, [r7, #4]
    2c7a:	2200      	movs	r2, #0
    2c7c:	709a      	strb	r2, [r3, #2]
    2c7e:	687b      	ldr	r3, [r7, #4]
    2c80:	2200      	movs	r2, #0
    2c82:	721a      	strb	r2, [r3, #8]
    2c84:	687b      	ldr	r3, [r7, #4]
    2c86:	2200      	movs	r2, #0
    2c88:	725a      	strb	r2, [r3, #9]
    2c8a:	687b      	ldr	r3, [r7, #4]
    2c8c:	2200      	movs	r2, #0
    2c8e:	729a      	strb	r2, [r3, #10]
    2c90:	687b      	ldr	r3, [r7, #4]
    2c92:	2200      	movs	r2, #0
    2c94:	72da      	strb	r2, [r3, #11]
    2c96:	687b      	ldr	r3, [r7, #4]
    2c98:	2200      	movs	r2, #0
    2c9a:	731a      	strb	r2, [r3, #12]
    2c9c:	687b      	ldr	r3, [r7, #4]
    2c9e:	2200      	movs	r2, #0
    2ca0:	739a      	strb	r2, [r3, #14]
    2ca2:	687b      	ldr	r3, [r7, #4]
    2ca4:	2200      	movs	r2, #0
    2ca6:	735a      	strb	r2, [r3, #13]
    2ca8:	687b      	ldr	r3, [r7, #4]
    2caa:	2200      	movs	r2, #0
    2cac:	741a      	strb	r2, [r3, #16]
    2cae:	687b      	ldr	r3, [r7, #4]
    2cb0:	2200      	movs	r2, #0
    2cb2:	615a      	str	r2, [r3, #20]
    2cb4:	687b      	ldr	r3, [r7, #4]
    2cb6:	2200      	movs	r2, #0
    2cb8:	619a      	str	r2, [r3, #24]
    2cba:	687b      	ldr	r3, [r7, #4]
    2cbc:	2200      	movs	r2, #0
    2cbe:	771a      	strb	r2, [r3, #28]
    2cc0:	687b      	ldr	r3, [r7, #4]
    2cc2:	2200      	movs	r2, #0
    2cc4:	621a      	str	r2, [r3, #32]
    2cc6:	687b      	ldr	r3, [r7, #4]
    2cc8:	2200      	movs	r2, #0
    2cca:	625a      	str	r2, [r3, #36]	; 0x24
    2ccc:	687b      	ldr	r3, [r7, #4]
    2cce:	2200      	movs	r2, #0
    2cd0:	851a      	strh	r2, [r3, #40]	; 0x28
    2cd2:	687b      	ldr	r3, [r7, #4]
    2cd4:	2200      	movs	r2, #0
    2cd6:	855a      	strh	r2, [r3, #42]	; 0x2a
    2cd8:	687b      	ldr	r3, [r7, #4]
    2cda:	2200      	movs	r2, #0
    2cdc:	859a      	strh	r2, [r3, #44]	; 0x2c
    2cde:	687b      	ldr	r3, [r7, #4]
    2ce0:	2234      	movs	r2, #52	; 0x34
    2ce2:	2100      	movs	r1, #0
    2ce4:	5499      	strb	r1, [r3, r2]
    2ce6:	46c0      	nop			; (mov r8, r8)
    2ce8:	46bd      	mov	sp, r7
    2cea:	b002      	add	sp, #8
    2cec:	bd80      	pop	{r7, pc}
	...

00002cf0 <tc_enable>:
    2cf0:	b580      	push	{r7, lr}
    2cf2:	b084      	sub	sp, #16
    2cf4:	af00      	add	r7, sp, #0
    2cf6:	6078      	str	r0, [r7, #4]
    2cf8:	687b      	ldr	r3, [r7, #4]
    2cfa:	681b      	ldr	r3, [r3, #0]
    2cfc:	60fb      	str	r3, [r7, #12]
    2cfe:	46c0      	nop			; (mov r8, r8)
    2d00:	687b      	ldr	r3, [r7, #4]
    2d02:	0018      	movs	r0, r3
    2d04:	4b06      	ldr	r3, [pc, #24]	; (2d20 <tc_enable+0x30>)
    2d06:	4798      	blx	r3
    2d08:	1e03      	subs	r3, r0, #0
    2d0a:	d1f9      	bne.n	2d00 <tc_enable+0x10>
    2d0c:	68fb      	ldr	r3, [r7, #12]
    2d0e:	681b      	ldr	r3, [r3, #0]
    2d10:	2202      	movs	r2, #2
    2d12:	431a      	orrs	r2, r3
    2d14:	68fb      	ldr	r3, [r7, #12]
    2d16:	601a      	str	r2, [r3, #0]
    2d18:	46c0      	nop			; (mov r8, r8)
    2d1a:	46bd      	mov	sp, r7
    2d1c:	b004      	add	sp, #16
    2d1e:	bd80      	pop	{r7, pc}
    2d20:	00002c2d 	.word	0x00002c2d

00002d24 <pwm_interface_init>:
    2d24:	b580      	push	{r7, lr}
    2d26:	af00      	add	r7, sp, #0
    2d28:	4b18      	ldr	r3, [pc, #96]	; (2d8c <pwm_interface_init+0x68>)
    2d2a:	0018      	movs	r0, r3
    2d2c:	4b18      	ldr	r3, [pc, #96]	; (2d90 <pwm_interface_init+0x6c>)
    2d2e:	4798      	blx	r3
    2d30:	4b16      	ldr	r3, [pc, #88]	; (2d8c <pwm_interface_init+0x68>)
    2d32:	2204      	movs	r2, #4
    2d34:	70da      	strb	r2, [r3, #3]
    2d36:	4b15      	ldr	r3, [pc, #84]	; (2d8c <pwm_interface_init+0x68>)
    2d38:	2202      	movs	r2, #2
    2d3a:	719a      	strb	r2, [r3, #6]
    2d3c:	4b13      	ldr	r3, [pc, #76]	; (2d8c <pwm_interface_init+0x68>)
    2d3e:	2200      	movs	r2, #0
    2d40:	701a      	strb	r2, [r3, #0]
    2d42:	4b12      	ldr	r3, [pc, #72]	; (2d8c <pwm_interface_init+0x68>)
    2d44:	2200      	movs	r2, #0
    2d46:	809a      	strh	r2, [r3, #4]
    2d48:	4b10      	ldr	r3, [pc, #64]	; (2d8c <pwm_interface_init+0x68>)
    2d4a:	222a      	movs	r2, #42	; 0x2a
    2d4c:	2100      	movs	r1, #0
    2d4e:	5499      	strb	r1, [r3, r2]
    2d50:	4b0e      	ldr	r3, [pc, #56]	; (2d8c <pwm_interface_init+0x68>)
    2d52:	2228      	movs	r2, #40	; 0x28
    2d54:	2100      	movs	r1, #0
    2d56:	5499      	strb	r1, [r3, r2]
    2d58:	4b0c      	ldr	r3, [pc, #48]	; (2d8c <pwm_interface_init+0x68>)
    2d5a:	2229      	movs	r2, #41	; 0x29
    2d5c:	21ff      	movs	r1, #255	; 0xff
    2d5e:	5499      	strb	r1, [r3, r2]
    2d60:	4b0a      	ldr	r3, [pc, #40]	; (2d8c <pwm_interface_init+0x68>)
    2d62:	2201      	movs	r2, #1
    2d64:	741a      	strb	r2, [r3, #16]
    2d66:	4b09      	ldr	r3, [pc, #36]	; (2d8c <pwm_interface_init+0x68>)
    2d68:	2214      	movs	r2, #20
    2d6a:	615a      	str	r2, [r3, #20]
    2d6c:	4b07      	ldr	r3, [pc, #28]	; (2d8c <pwm_interface_init+0x68>)
    2d6e:	4a09      	ldr	r2, [pc, #36]	; (2d94 <pwm_interface_init+0x70>)
    2d70:	619a      	str	r2, [r3, #24]
    2d72:	4a06      	ldr	r2, [pc, #24]	; (2d8c <pwm_interface_init+0x68>)
    2d74:	4908      	ldr	r1, [pc, #32]	; (2d98 <pwm_interface_init+0x74>)
    2d76:	4b09      	ldr	r3, [pc, #36]	; (2d9c <pwm_interface_init+0x78>)
    2d78:	0018      	movs	r0, r3
    2d7a:	4b09      	ldr	r3, [pc, #36]	; (2da0 <pwm_interface_init+0x7c>)
    2d7c:	4798      	blx	r3
    2d7e:	4b07      	ldr	r3, [pc, #28]	; (2d9c <pwm_interface_init+0x78>)
    2d80:	0018      	movs	r0, r3
    2d82:	4b08      	ldr	r3, [pc, #32]	; (2da4 <pwm_interface_init+0x80>)
    2d84:	4798      	blx	r3
    2d86:	46c0      	nop			; (mov r8, r8)
    2d88:	46bd      	mov	sp, r7
    2d8a:	bd80      	pop	{r7, pc}
    2d8c:	20000094 	.word	0x20000094
    2d90:	00002c4d 	.word	0x00002c4d
    2d94:	00140004 	.word	0x00140004
    2d98:	42002c00 	.word	0x42002c00
    2d9c:	20000078 	.word	0x20000078
    2da0:	00002301 	.word	0x00002301
    2da4:	00002cf1 	.word	0x00002cf1

00002da8 <pwm_write>:
    2da8:	b580      	push	{r7, lr}
    2daa:	b082      	sub	sp, #8
    2dac:	af00      	add	r7, sp, #0
    2dae:	6078      	str	r0, [r7, #4]
    2db0:	687a      	ldr	r2, [r7, #4]
    2db2:	4b04      	ldr	r3, [pc, #16]	; (2dc4 <pwm_write+0x1c>)
    2db4:	2100      	movs	r1, #0
    2db6:	0018      	movs	r0, r3
    2db8:	4b03      	ldr	r3, [pc, #12]	; (2dc8 <pwm_write+0x20>)
    2dba:	4798      	blx	r3
    2dbc:	46c0      	nop			; (mov r8, r8)
    2dbe:	46bd      	mov	sp, r7
    2dc0:	b002      	add	sp, #8
    2dc2:	bd80      	pop	{r7, pc}
    2dc4:	20000078 	.word	0x20000078
    2dc8:	000027a9 	.word	0x000027a9

00002dcc <system_set_sleepmode>:
    2dcc:	b580      	push	{r7, lr}
    2dce:	b082      	sub	sp, #8
    2dd0:	af00      	add	r7, sp, #0
    2dd2:	0002      	movs	r2, r0
    2dd4:	1dfb      	adds	r3, r7, #7
    2dd6:	701a      	strb	r2, [r3, #0]
    2dd8:	2380      	movs	r3, #128	; 0x80
    2dda:	05db      	lsls	r3, r3, #23
    2ddc:	1dfa      	adds	r2, r7, #7
    2dde:	7812      	ldrb	r2, [r2, #0]
    2de0:	705a      	strb	r2, [r3, #1]
    2de2:	46c0      	nop			; (mov r8, r8)
    2de4:	2380      	movs	r3, #128	; 0x80
    2de6:	05db      	lsls	r3, r3, #23
    2de8:	785b      	ldrb	r3, [r3, #1]
    2dea:	b2db      	uxtb	r3, r3
    2dec:	1dfa      	adds	r2, r7, #7
    2dee:	7812      	ldrb	r2, [r2, #0]
    2df0:	429a      	cmp	r2, r3
    2df2:	d1f7      	bne.n	2de4 <system_set_sleepmode+0x18>
    2df4:	46c0      	nop			; (mov r8, r8)
    2df6:	46bd      	mov	sp, r7
    2df8:	b002      	add	sp, #8
    2dfa:	bd80      	pop	{r7, pc}

00002dfc <system_sleep>:
    2dfc:	b580      	push	{r7, lr}
    2dfe:	af00      	add	r7, sp, #0
    2e00:	f3bf 8f4f 	dsb	sy
    2e04:	bf30      	wfi
    2e06:	46c0      	nop			; (mov r8, r8)
    2e08:	46bd      	mov	sp, r7
    2e0a:	bd80      	pop	{r7, pc}

00002e0c <rtc_count_get_config_defaults>:
    2e0c:	b580      	push	{r7, lr}
    2e0e:	b084      	sub	sp, #16
    2e10:	af00      	add	r7, sp, #0
    2e12:	6078      	str	r0, [r7, #4]
    2e14:	687b      	ldr	r3, [r7, #4]
    2e16:	22b0      	movs	r2, #176	; 0xb0
    2e18:	0112      	lsls	r2, r2, #4
    2e1a:	801a      	strh	r2, [r3, #0]
    2e1c:	687b      	ldr	r3, [r7, #4]
    2e1e:	2201      	movs	r2, #1
    2e20:	709a      	strb	r2, [r3, #2]
    2e22:	687b      	ldr	r3, [r7, #4]
    2e24:	2200      	movs	r2, #0
    2e26:	70da      	strb	r2, [r3, #3]
    2e28:	687b      	ldr	r3, [r7, #4]
    2e2a:	2201      	movs	r2, #1
    2e2c:	711a      	strb	r2, [r3, #4]
    2e2e:	230f      	movs	r3, #15
    2e30:	18fb      	adds	r3, r7, r3
    2e32:	2200      	movs	r2, #0
    2e34:	701a      	strb	r2, [r3, #0]
    2e36:	e00e      	b.n	2e56 <rtc_count_get_config_defaults+0x4a>
    2e38:	230f      	movs	r3, #15
    2e3a:	18fb      	adds	r3, r7, r3
    2e3c:	781a      	ldrb	r2, [r3, #0]
    2e3e:	687b      	ldr	r3, [r7, #4]
    2e40:	3202      	adds	r2, #2
    2e42:	0092      	lsls	r2, r2, #2
    2e44:	2100      	movs	r1, #0
    2e46:	50d1      	str	r1, [r2, r3]
    2e48:	230f      	movs	r3, #15
    2e4a:	18fb      	adds	r3, r7, r3
    2e4c:	781a      	ldrb	r2, [r3, #0]
    2e4e:	230f      	movs	r3, #15
    2e50:	18fb      	adds	r3, r7, r3
    2e52:	3201      	adds	r2, #1
    2e54:	701a      	strb	r2, [r3, #0]
    2e56:	230f      	movs	r3, #15
    2e58:	18fb      	adds	r3, r7, r3
    2e5a:	781b      	ldrb	r3, [r3, #0]
    2e5c:	2b01      	cmp	r3, #1
    2e5e:	d9eb      	bls.n	2e38 <rtc_count_get_config_defaults+0x2c>
    2e60:	46c0      	nop			; (mov r8, r8)
    2e62:	46bd      	mov	sp, r7
    2e64:	b004      	add	sp, #16
    2e66:	bd80      	pop	{r7, pc}

00002e68 <rtc_callback>:
    2e68:	b580      	push	{r7, lr}
    2e6a:	af00      	add	r7, sp, #0
    2e6c:	4b03      	ldr	r3, [pc, #12]	; (2e7c <rtc_callback+0x14>)
    2e6e:	2108      	movs	r1, #8
    2e70:	0018      	movs	r0, r3
    2e72:	4b03      	ldr	r3, [pc, #12]	; (2e80 <rtc_callback+0x18>)
    2e74:	4798      	blx	r3
    2e76:	46c0      	nop			; (mov r8, r8)
    2e78:	46bd      	mov	sp, r7
    2e7a:	bd80      	pop	{r7, pc}
    2e7c:	200000cc 	.word	0x200000cc
    2e80:	0000131d 	.word	0x0000131d

00002e84 <rtc_init>:
    2e84:	b580      	push	{r7, lr}
    2e86:	b084      	sub	sp, #16
    2e88:	af00      	add	r7, sp, #0
    2e8a:	003b      	movs	r3, r7
    2e8c:	0018      	movs	r0, r3
    2e8e:	4b0f      	ldr	r3, [pc, #60]	; (2ecc <rtc_init+0x48>)
    2e90:	4798      	blx	r3
    2e92:	003b      	movs	r3, r7
    2e94:	2200      	movs	r2, #0
    2e96:	801a      	strh	r2, [r3, #0]
    2e98:	003a      	movs	r2, r7
    2e9a:	490d      	ldr	r1, [pc, #52]	; (2ed0 <rtc_init+0x4c>)
    2e9c:	4b0d      	ldr	r3, [pc, #52]	; (2ed4 <rtc_init+0x50>)
    2e9e:	0018      	movs	r0, r3
    2ea0:	4b0d      	ldr	r3, [pc, #52]	; (2ed8 <rtc_init+0x54>)
    2ea2:	4798      	blx	r3
    2ea4:	4b0b      	ldr	r3, [pc, #44]	; (2ed4 <rtc_init+0x50>)
    2ea6:	2100      	movs	r1, #0
    2ea8:	0018      	movs	r0, r3
    2eaa:	4b0c      	ldr	r3, [pc, #48]	; (2edc <rtc_init+0x58>)
    2eac:	4798      	blx	r3
    2eae:	4b09      	ldr	r3, [pc, #36]	; (2ed4 <rtc_init+0x50>)
    2eb0:	0018      	movs	r0, r3
    2eb2:	4b0b      	ldr	r3, [pc, #44]	; (2ee0 <rtc_init+0x5c>)
    2eb4:	4798      	blx	r3
    2eb6:	490b      	ldr	r1, [pc, #44]	; (2ee4 <rtc_init+0x60>)
    2eb8:	4b06      	ldr	r3, [pc, #24]	; (2ed4 <rtc_init+0x50>)
    2eba:	2208      	movs	r2, #8
    2ebc:	0018      	movs	r0, r3
    2ebe:	4b0a      	ldr	r3, [pc, #40]	; (2ee8 <rtc_init+0x64>)
    2ec0:	4798      	blx	r3
    2ec2:	46c0      	nop			; (mov r8, r8)
    2ec4:	46bd      	mov	sp, r7
    2ec6:	b004      	add	sp, #16
    2ec8:	bd80      	pop	{r7, pc}
    2eca:	46c0      	nop			; (mov r8, r8)
    2ecc:	00002e0d 	.word	0x00002e0d
    2ed0:	40002000 	.word	0x40002000
    2ed4:	200000cc 	.word	0x200000cc
    2ed8:	00001025 	.word	0x00001025
    2edc:	00001089 	.word	0x00001089
    2ee0:	00000e11 	.word	0x00000e11
    2ee4:	00002e69 	.word	0x00002e69
    2ee8:	000011dd 	.word	0x000011dd

00002eec <rtc_idle_delay>:
    2eec:	b580      	push	{r7, lr}
    2eee:	b084      	sub	sp, #16
    2ef0:	af00      	add	r7, sp, #0
    2ef2:	6078      	str	r0, [r7, #4]
    2ef4:	4b0e      	ldr	r3, [pc, #56]	; (2f30 <rtc_idle_delay+0x44>)
    2ef6:	0018      	movs	r0, r3
    2ef8:	4b0e      	ldr	r3, [pc, #56]	; (2f34 <rtc_idle_delay+0x48>)
    2efa:	4798      	blx	r3
    2efc:	0003      	movs	r3, r0
    2efe:	60fb      	str	r3, [r7, #12]
    2f00:	68fa      	ldr	r2, [r7, #12]
    2f02:	687b      	ldr	r3, [r7, #4]
    2f04:	18d3      	adds	r3, r2, r3
    2f06:	60bb      	str	r3, [r7, #8]
    2f08:	68b9      	ldr	r1, [r7, #8]
    2f0a:	4b09      	ldr	r3, [pc, #36]	; (2f30 <rtc_idle_delay+0x44>)
    2f0c:	2200      	movs	r2, #0
    2f0e:	0018      	movs	r0, r3
    2f10:	4b09      	ldr	r3, [pc, #36]	; (2f38 <rtc_idle_delay+0x4c>)
    2f12:	4798      	blx	r3
    2f14:	4b06      	ldr	r3, [pc, #24]	; (2f30 <rtc_idle_delay+0x44>)
    2f16:	2108      	movs	r1, #8
    2f18:	0018      	movs	r0, r3
    2f1a:	4b08      	ldr	r3, [pc, #32]	; (2f3c <rtc_idle_delay+0x50>)
    2f1c:	4798      	blx	r3
    2f1e:	2002      	movs	r0, #2
    2f20:	4b07      	ldr	r3, [pc, #28]	; (2f40 <rtc_idle_delay+0x54>)
    2f22:	4798      	blx	r3
    2f24:	4b07      	ldr	r3, [pc, #28]	; (2f44 <rtc_idle_delay+0x58>)
    2f26:	4798      	blx	r3
    2f28:	46c0      	nop			; (mov r8, r8)
    2f2a:	46bd      	mov	sp, r7
    2f2c:	b004      	add	sp, #16
    2f2e:	bd80      	pop	{r7, pc}
    2f30:	200000cc 	.word	0x200000cc
    2f34:	000010f5 	.word	0x000010f5
    2f38:	00001145 	.word	0x00001145
    2f3c:	00001291 	.word	0x00001291
    2f40:	00002dcd 	.word	0x00002dcd
    2f44:	00002dfd 	.word	0x00002dfd

00002f48 <rtc_standby_delay>:
    2f48:	b580      	push	{r7, lr}
    2f4a:	b084      	sub	sp, #16
    2f4c:	af00      	add	r7, sp, #0
    2f4e:	6078      	str	r0, [r7, #4]
    2f50:	4b0e      	ldr	r3, [pc, #56]	; (2f8c <rtc_standby_delay+0x44>)
    2f52:	0018      	movs	r0, r3
    2f54:	4b0e      	ldr	r3, [pc, #56]	; (2f90 <rtc_standby_delay+0x48>)
    2f56:	4798      	blx	r3
    2f58:	0003      	movs	r3, r0
    2f5a:	60fb      	str	r3, [r7, #12]
    2f5c:	68fa      	ldr	r2, [r7, #12]
    2f5e:	687b      	ldr	r3, [r7, #4]
    2f60:	18d3      	adds	r3, r2, r3
    2f62:	60bb      	str	r3, [r7, #8]
    2f64:	68b9      	ldr	r1, [r7, #8]
    2f66:	4b09      	ldr	r3, [pc, #36]	; (2f8c <rtc_standby_delay+0x44>)
    2f68:	2200      	movs	r2, #0
    2f6a:	0018      	movs	r0, r3
    2f6c:	4b09      	ldr	r3, [pc, #36]	; (2f94 <rtc_standby_delay+0x4c>)
    2f6e:	4798      	blx	r3
    2f70:	4b06      	ldr	r3, [pc, #24]	; (2f8c <rtc_standby_delay+0x44>)
    2f72:	2108      	movs	r1, #8
    2f74:	0018      	movs	r0, r3
    2f76:	4b08      	ldr	r3, [pc, #32]	; (2f98 <rtc_standby_delay+0x50>)
    2f78:	4798      	blx	r3
    2f7a:	2004      	movs	r0, #4
    2f7c:	4b07      	ldr	r3, [pc, #28]	; (2f9c <rtc_standby_delay+0x54>)
    2f7e:	4798      	blx	r3
    2f80:	4b07      	ldr	r3, [pc, #28]	; (2fa0 <rtc_standby_delay+0x58>)
    2f82:	4798      	blx	r3
    2f84:	46c0      	nop			; (mov r8, r8)
    2f86:	46bd      	mov	sp, r7
    2f88:	b004      	add	sp, #16
    2f8a:	bd80      	pop	{r7, pc}
    2f8c:	200000cc 	.word	0x200000cc
    2f90:	000010f5 	.word	0x000010f5
    2f94:	00001145 	.word	0x00001145
    2f98:	00001291 	.word	0x00001291
    2f9c:	00002dcd 	.word	0x00002dcd
    2fa0:	00002dfd 	.word	0x00002dfd

00002fa4 <bmp280_write_configuration>:
    2fa4:	b590      	push	{r4, r7, lr}
    2fa6:	b085      	sub	sp, #20
    2fa8:	af00      	add	r7, sp, #0
    2faa:	6078      	str	r0, [r7, #4]
    2fac:	687b      	ldr	r3, [r7, #4]
    2fae:	781b      	ldrb	r3, [r3, #0]
    2fb0:	075b      	lsls	r3, r3, #29
    2fb2:	0f5b      	lsrs	r3, r3, #29
    2fb4:	b2db      	uxtb	r3, r3
    2fb6:	015b      	lsls	r3, r3, #5
    2fb8:	b25a      	sxtb	r2, r3
    2fba:	687b      	ldr	r3, [r7, #4]
    2fbc:	781b      	ldrb	r3, [r3, #0]
    2fbe:	069b      	lsls	r3, r3, #26
    2fc0:	0f5b      	lsrs	r3, r3, #29
    2fc2:	b2db      	uxtb	r3, r3
    2fc4:	009b      	lsls	r3, r3, #2
    2fc6:	b25b      	sxtb	r3, r3
    2fc8:	211c      	movs	r1, #28
    2fca:	400b      	ands	r3, r1
    2fcc:	b25b      	sxtb	r3, r3
    2fce:	4313      	orrs	r3, r2
    2fd0:	b25a      	sxtb	r2, r3
    2fd2:	687b      	ldr	r3, [r7, #4]
    2fd4:	781b      	ldrb	r3, [r3, #0]
    2fd6:	065b      	lsls	r3, r3, #25
    2fd8:	0fdb      	lsrs	r3, r3, #31
    2fda:	b2db      	uxtb	r3, r3
    2fdc:	b25b      	sxtb	r3, r3
    2fde:	2101      	movs	r1, #1
    2fe0:	400b      	ands	r3, r1
    2fe2:	b25b      	sxtb	r3, r3
    2fe4:	4313      	orrs	r3, r2
    2fe6:	b25b      	sxtb	r3, r3
    2fe8:	b2da      	uxtb	r2, r3
    2fea:	230f      	movs	r3, #15
    2fec:	18fb      	adds	r3, r7, r3
    2fee:	701a      	strb	r2, [r3, #0]
    2ff0:	230f      	movs	r3, #15
    2ff2:	18f8      	adds	r0, r7, r3
    2ff4:	23f5      	movs	r3, #245	; 0xf5
    2ff6:	2276      	movs	r2, #118	; 0x76
    2ff8:	2101      	movs	r1, #1
    2ffa:	4c17      	ldr	r4, [pc, #92]	; (3058 <bmp280_write_configuration+0xb4>)
    2ffc:	47a0      	blx	r4
    2ffe:	687b      	ldr	r3, [r7, #4]
    3000:	785b      	ldrb	r3, [r3, #1]
    3002:	075b      	lsls	r3, r3, #29
    3004:	0f5b      	lsrs	r3, r3, #29
    3006:	b2db      	uxtb	r3, r3
    3008:	015b      	lsls	r3, r3, #5
    300a:	b25a      	sxtb	r2, r3
    300c:	687b      	ldr	r3, [r7, #4]
    300e:	785b      	ldrb	r3, [r3, #1]
    3010:	069b      	lsls	r3, r3, #26
    3012:	0f5b      	lsrs	r3, r3, #29
    3014:	b2db      	uxtb	r3, r3
    3016:	009b      	lsls	r3, r3, #2
    3018:	b25b      	sxtb	r3, r3
    301a:	211c      	movs	r1, #28
    301c:	400b      	ands	r3, r1
    301e:	b25b      	sxtb	r3, r3
    3020:	4313      	orrs	r3, r2
    3022:	b25a      	sxtb	r2, r3
    3024:	687b      	ldr	r3, [r7, #4]
    3026:	785b      	ldrb	r3, [r3, #1]
    3028:	061b      	lsls	r3, r3, #24
    302a:	0f9b      	lsrs	r3, r3, #30
    302c:	b2db      	uxtb	r3, r3
    302e:	b25b      	sxtb	r3, r3
    3030:	2103      	movs	r1, #3
    3032:	400b      	ands	r3, r1
    3034:	b25b      	sxtb	r3, r3
    3036:	4313      	orrs	r3, r2
    3038:	b25b      	sxtb	r3, r3
    303a:	b2da      	uxtb	r2, r3
    303c:	230f      	movs	r3, #15
    303e:	18fb      	adds	r3, r7, r3
    3040:	701a      	strb	r2, [r3, #0]
    3042:	230f      	movs	r3, #15
    3044:	18f8      	adds	r0, r7, r3
    3046:	23f4      	movs	r3, #244	; 0xf4
    3048:	2276      	movs	r2, #118	; 0x76
    304a:	2101      	movs	r1, #1
    304c:	4c02      	ldr	r4, [pc, #8]	; (3058 <bmp280_write_configuration+0xb4>)
    304e:	47a0      	blx	r4
    3050:	46c0      	nop			; (mov r8, r8)
    3052:	46bd      	mov	sp, r7
    3054:	b005      	add	sp, #20
    3056:	bd90      	pop	{r4, r7, pc}
    3058:	000038f9 	.word	0x000038f9

0000305c <unpack_uint16>:
    305c:	b580      	push	{r7, lr}
    305e:	b084      	sub	sp, #16
    3060:	af00      	add	r7, sp, #0
    3062:	6078      	str	r0, [r7, #4]
    3064:	230e      	movs	r3, #14
    3066:	18fb      	adds	r3, r7, r3
    3068:	2200      	movs	r2, #0
    306a:	801a      	strh	r2, [r3, #0]
    306c:	687b      	ldr	r3, [r7, #4]
    306e:	781b      	ldrb	r3, [r3, #0]
    3070:	b21a      	sxth	r2, r3
    3072:	687b      	ldr	r3, [r7, #4]
    3074:	3301      	adds	r3, #1
    3076:	781b      	ldrb	r3, [r3, #0]
    3078:	021b      	lsls	r3, r3, #8
    307a:	b21b      	sxth	r3, r3
    307c:	4313      	orrs	r3, r2
    307e:	b21a      	sxth	r2, r3
    3080:	230e      	movs	r3, #14
    3082:	18fb      	adds	r3, r7, r3
    3084:	2100      	movs	r1, #0
    3086:	5e5b      	ldrsh	r3, [r3, r1]
    3088:	4313      	orrs	r3, r2
    308a:	b21a      	sxth	r2, r3
    308c:	230e      	movs	r3, #14
    308e:	18fb      	adds	r3, r7, r3
    3090:	801a      	strh	r2, [r3, #0]
    3092:	230e      	movs	r3, #14
    3094:	18fb      	adds	r3, r7, r3
    3096:	881b      	ldrh	r3, [r3, #0]
    3098:	0018      	movs	r0, r3
    309a:	46bd      	mov	sp, r7
    309c:	b004      	add	sp, #16
    309e:	bd80      	pop	{r7, pc}

000030a0 <unpack_int16>:
    30a0:	b580      	push	{r7, lr}
    30a2:	b084      	sub	sp, #16
    30a4:	af00      	add	r7, sp, #0
    30a6:	6078      	str	r0, [r7, #4]
    30a8:	230e      	movs	r3, #14
    30aa:	18fb      	adds	r3, r7, r3
    30ac:	2200      	movs	r2, #0
    30ae:	801a      	strh	r2, [r3, #0]
    30b0:	687b      	ldr	r3, [r7, #4]
    30b2:	781b      	ldrb	r3, [r3, #0]
    30b4:	b21a      	sxth	r2, r3
    30b6:	687b      	ldr	r3, [r7, #4]
    30b8:	3301      	adds	r3, #1
    30ba:	781b      	ldrb	r3, [r3, #0]
    30bc:	021b      	lsls	r3, r3, #8
    30be:	b21b      	sxth	r3, r3
    30c0:	4313      	orrs	r3, r2
    30c2:	b219      	sxth	r1, r3
    30c4:	230e      	movs	r3, #14
    30c6:	18fb      	adds	r3, r7, r3
    30c8:	220e      	movs	r2, #14
    30ca:	18ba      	adds	r2, r7, r2
    30cc:	8812      	ldrh	r2, [r2, #0]
    30ce:	430a      	orrs	r2, r1
    30d0:	801a      	strh	r2, [r3, #0]
    30d2:	230e      	movs	r3, #14
    30d4:	18fb      	adds	r3, r7, r3
    30d6:	2200      	movs	r2, #0
    30d8:	5e9b      	ldrsh	r3, [r3, r2]
    30da:	0018      	movs	r0, r3
    30dc:	46bd      	mov	sp, r7
    30de:	b004      	add	sp, #16
    30e0:	bd80      	pop	{r7, pc}
	...

000030e4 <init_bmp280>:
    30e4:	b590      	push	{r4, r7, lr}
    30e6:	b089      	sub	sp, #36	; 0x24
    30e8:	af00      	add	r7, sp, #0
    30ea:	231f      	movs	r3, #31
    30ec:	18fb      	adds	r3, r7, r3
    30ee:	2200      	movs	r2, #0
    30f0:	701a      	strb	r2, [r3, #0]
    30f2:	231f      	movs	r3, #31
    30f4:	18f8      	adds	r0, r7, r3
    30f6:	23d0      	movs	r3, #208	; 0xd0
    30f8:	2276      	movs	r2, #118	; 0x76
    30fa:	2101      	movs	r1, #1
    30fc:	4c49      	ldr	r4, [pc, #292]	; (3224 <init_bmp280+0x140>)
    30fe:	47a0      	blx	r4
    3100:	231f      	movs	r3, #31
    3102:	18fb      	adds	r3, r7, r3
    3104:	781b      	ldrb	r3, [r3, #0]
    3106:	2b58      	cmp	r3, #88	; 0x58
    3108:	d000      	beq.n	310c <init_bmp280+0x28>
    310a:	e086      	b.n	321a <init_bmp280+0x136>
    310c:	4b46      	ldr	r3, [pc, #280]	; (3228 <init_bmp280+0x144>)
    310e:	881b      	ldrh	r3, [r3, #0]
    3110:	2b00      	cmp	r3, #0
    3112:	d177      	bne.n	3204 <init_bmp280+0x120>
    3114:	1d3b      	adds	r3, r7, #4
    3116:	0018      	movs	r0, r3
    3118:	2318      	movs	r3, #24
    311a:	001a      	movs	r2, r3
    311c:	2100      	movs	r1, #0
    311e:	4b43      	ldr	r3, [pc, #268]	; (322c <init_bmp280+0x148>)
    3120:	4798      	blx	r3
    3122:	1d38      	adds	r0, r7, #4
    3124:	2388      	movs	r3, #136	; 0x88
    3126:	2276      	movs	r2, #118	; 0x76
    3128:	2118      	movs	r1, #24
    312a:	4c3e      	ldr	r4, [pc, #248]	; (3224 <init_bmp280+0x140>)
    312c:	47a0      	blx	r4
    312e:	1d3b      	adds	r3, r7, #4
    3130:	0018      	movs	r0, r3
    3132:	4b3f      	ldr	r3, [pc, #252]	; (3230 <init_bmp280+0x14c>)
    3134:	4798      	blx	r3
    3136:	0003      	movs	r3, r0
    3138:	001a      	movs	r2, r3
    313a:	4b3b      	ldr	r3, [pc, #236]	; (3228 <init_bmp280+0x144>)
    313c:	801a      	strh	r2, [r3, #0]
    313e:	1d3b      	adds	r3, r7, #4
    3140:	3302      	adds	r3, #2
    3142:	0018      	movs	r0, r3
    3144:	4b3b      	ldr	r3, [pc, #236]	; (3234 <init_bmp280+0x150>)
    3146:	4798      	blx	r3
    3148:	0003      	movs	r3, r0
    314a:	001a      	movs	r2, r3
    314c:	4b36      	ldr	r3, [pc, #216]	; (3228 <init_bmp280+0x144>)
    314e:	805a      	strh	r2, [r3, #2]
    3150:	1d3b      	adds	r3, r7, #4
    3152:	3304      	adds	r3, #4
    3154:	0018      	movs	r0, r3
    3156:	4b37      	ldr	r3, [pc, #220]	; (3234 <init_bmp280+0x150>)
    3158:	4798      	blx	r3
    315a:	0003      	movs	r3, r0
    315c:	001a      	movs	r2, r3
    315e:	4b32      	ldr	r3, [pc, #200]	; (3228 <init_bmp280+0x144>)
    3160:	809a      	strh	r2, [r3, #4]
    3162:	1d3b      	adds	r3, r7, #4
    3164:	3306      	adds	r3, #6
    3166:	0018      	movs	r0, r3
    3168:	4b31      	ldr	r3, [pc, #196]	; (3230 <init_bmp280+0x14c>)
    316a:	4798      	blx	r3
    316c:	0003      	movs	r3, r0
    316e:	001a      	movs	r2, r3
    3170:	4b2d      	ldr	r3, [pc, #180]	; (3228 <init_bmp280+0x144>)
    3172:	80da      	strh	r2, [r3, #6]
    3174:	1d3b      	adds	r3, r7, #4
    3176:	3308      	adds	r3, #8
    3178:	0018      	movs	r0, r3
    317a:	4b2e      	ldr	r3, [pc, #184]	; (3234 <init_bmp280+0x150>)
    317c:	4798      	blx	r3
    317e:	0003      	movs	r3, r0
    3180:	001a      	movs	r2, r3
    3182:	4b29      	ldr	r3, [pc, #164]	; (3228 <init_bmp280+0x144>)
    3184:	811a      	strh	r2, [r3, #8]
    3186:	1d3b      	adds	r3, r7, #4
    3188:	330a      	adds	r3, #10
    318a:	0018      	movs	r0, r3
    318c:	4b29      	ldr	r3, [pc, #164]	; (3234 <init_bmp280+0x150>)
    318e:	4798      	blx	r3
    3190:	0003      	movs	r3, r0
    3192:	001a      	movs	r2, r3
    3194:	4b24      	ldr	r3, [pc, #144]	; (3228 <init_bmp280+0x144>)
    3196:	815a      	strh	r2, [r3, #10]
    3198:	1d3b      	adds	r3, r7, #4
    319a:	330c      	adds	r3, #12
    319c:	0018      	movs	r0, r3
    319e:	4b25      	ldr	r3, [pc, #148]	; (3234 <init_bmp280+0x150>)
    31a0:	4798      	blx	r3
    31a2:	0003      	movs	r3, r0
    31a4:	001a      	movs	r2, r3
    31a6:	4b20      	ldr	r3, [pc, #128]	; (3228 <init_bmp280+0x144>)
    31a8:	819a      	strh	r2, [r3, #12]
    31aa:	1d3b      	adds	r3, r7, #4
    31ac:	330e      	adds	r3, #14
    31ae:	0018      	movs	r0, r3
    31b0:	4b20      	ldr	r3, [pc, #128]	; (3234 <init_bmp280+0x150>)
    31b2:	4798      	blx	r3
    31b4:	0003      	movs	r3, r0
    31b6:	001a      	movs	r2, r3
    31b8:	4b1b      	ldr	r3, [pc, #108]	; (3228 <init_bmp280+0x144>)
    31ba:	81da      	strh	r2, [r3, #14]
    31bc:	1d3b      	adds	r3, r7, #4
    31be:	3310      	adds	r3, #16
    31c0:	0018      	movs	r0, r3
    31c2:	4b1c      	ldr	r3, [pc, #112]	; (3234 <init_bmp280+0x150>)
    31c4:	4798      	blx	r3
    31c6:	0003      	movs	r3, r0
    31c8:	001a      	movs	r2, r3
    31ca:	4b17      	ldr	r3, [pc, #92]	; (3228 <init_bmp280+0x144>)
    31cc:	821a      	strh	r2, [r3, #16]
    31ce:	1d3b      	adds	r3, r7, #4
    31d0:	3312      	adds	r3, #18
    31d2:	0018      	movs	r0, r3
    31d4:	4b17      	ldr	r3, [pc, #92]	; (3234 <init_bmp280+0x150>)
    31d6:	4798      	blx	r3
    31d8:	0003      	movs	r3, r0
    31da:	001a      	movs	r2, r3
    31dc:	4b12      	ldr	r3, [pc, #72]	; (3228 <init_bmp280+0x144>)
    31de:	825a      	strh	r2, [r3, #18]
    31e0:	1d3b      	adds	r3, r7, #4
    31e2:	3314      	adds	r3, #20
    31e4:	0018      	movs	r0, r3
    31e6:	4b13      	ldr	r3, [pc, #76]	; (3234 <init_bmp280+0x150>)
    31e8:	4798      	blx	r3
    31ea:	0003      	movs	r3, r0
    31ec:	001a      	movs	r2, r3
    31ee:	4b0e      	ldr	r3, [pc, #56]	; (3228 <init_bmp280+0x144>)
    31f0:	829a      	strh	r2, [r3, #20]
    31f2:	1d3b      	adds	r3, r7, #4
    31f4:	3316      	adds	r3, #22
    31f6:	0018      	movs	r0, r3
    31f8:	4b0e      	ldr	r3, [pc, #56]	; (3234 <init_bmp280+0x150>)
    31fa:	4798      	blx	r3
    31fc:	0003      	movs	r3, r0
    31fe:	001a      	movs	r2, r3
    3200:	4b09      	ldr	r3, [pc, #36]	; (3228 <init_bmp280+0x144>)
    3202:	82da      	strh	r2, [r3, #22]
    3204:	231c      	movs	r3, #28
    3206:	18fb      	adds	r3, r7, r3
    3208:	4a0b      	ldr	r2, [pc, #44]	; (3238 <init_bmp280+0x154>)
    320a:	8812      	ldrh	r2, [r2, #0]
    320c:	801a      	strh	r2, [r3, #0]
    320e:	231c      	movs	r3, #28
    3210:	18fb      	adds	r3, r7, r3
    3212:	0018      	movs	r0, r3
    3214:	4b09      	ldr	r3, [pc, #36]	; (323c <init_bmp280+0x158>)
    3216:	4798      	blx	r3
    3218:	e000      	b.n	321c <init_bmp280+0x138>
    321a:	46c0      	nop			; (mov r8, r8)
    321c:	46bd      	mov	sp, r7
    321e:	b009      	add	sp, #36	; 0x24
    3220:	bd90      	pop	{r4, r7, pc}
    3222:	46c0      	nop			; (mov r8, r8)
    3224:	00003a29 	.word	0x00003a29
    3228:	20000104 	.word	0x20000104
    322c:	000072ab 	.word	0x000072ab
    3230:	0000305d 	.word	0x0000305d
    3234:	000030a1 	.word	0x000030a1
    3238:	0000752c 	.word	0x0000752c
    323c:	00002fa5 	.word	0x00002fa5

00003240 <bmp280_compensate_T_int32>:
    3240:	b580      	push	{r7, lr}
    3242:	b086      	sub	sp, #24
    3244:	af00      	add	r7, sp, #0
    3246:	6078      	str	r0, [r7, #4]
    3248:	687b      	ldr	r3, [r7, #4]
    324a:	10da      	asrs	r2, r3, #3
    324c:	4b16      	ldr	r3, [pc, #88]	; (32a8 <bmp280_compensate_T_int32+0x68>)
    324e:	881b      	ldrh	r3, [r3, #0]
    3250:	005b      	lsls	r3, r3, #1
    3252:	1ad3      	subs	r3, r2, r3
    3254:	4a14      	ldr	r2, [pc, #80]	; (32a8 <bmp280_compensate_T_int32+0x68>)
    3256:	2102      	movs	r1, #2
    3258:	5e52      	ldrsh	r2, [r2, r1]
    325a:	4353      	muls	r3, r2
    325c:	12db      	asrs	r3, r3, #11
    325e:	617b      	str	r3, [r7, #20]
    3260:	687b      	ldr	r3, [r7, #4]
    3262:	111b      	asrs	r3, r3, #4
    3264:	4a10      	ldr	r2, [pc, #64]	; (32a8 <bmp280_compensate_T_int32+0x68>)
    3266:	8812      	ldrh	r2, [r2, #0]
    3268:	1a9b      	subs	r3, r3, r2
    326a:	687a      	ldr	r2, [r7, #4]
    326c:	1112      	asrs	r2, r2, #4
    326e:	490e      	ldr	r1, [pc, #56]	; (32a8 <bmp280_compensate_T_int32+0x68>)
    3270:	8809      	ldrh	r1, [r1, #0]
    3272:	1a52      	subs	r2, r2, r1
    3274:	4353      	muls	r3, r2
    3276:	131b      	asrs	r3, r3, #12
    3278:	4a0b      	ldr	r2, [pc, #44]	; (32a8 <bmp280_compensate_T_int32+0x68>)
    327a:	2104      	movs	r1, #4
    327c:	5e52      	ldrsh	r2, [r2, r1]
    327e:	4353      	muls	r3, r2
    3280:	139b      	asrs	r3, r3, #14
    3282:	613b      	str	r3, [r7, #16]
    3284:	697a      	ldr	r2, [r7, #20]
    3286:	693b      	ldr	r3, [r7, #16]
    3288:	18d2      	adds	r2, r2, r3
    328a:	4b08      	ldr	r3, [pc, #32]	; (32ac <bmp280_compensate_T_int32+0x6c>)
    328c:	601a      	str	r2, [r3, #0]
    328e:	4b07      	ldr	r3, [pc, #28]	; (32ac <bmp280_compensate_T_int32+0x6c>)
    3290:	681a      	ldr	r2, [r3, #0]
    3292:	0013      	movs	r3, r2
    3294:	009b      	lsls	r3, r3, #2
    3296:	189b      	adds	r3, r3, r2
    3298:	3380      	adds	r3, #128	; 0x80
    329a:	121b      	asrs	r3, r3, #8
    329c:	60fb      	str	r3, [r7, #12]
    329e:	68fb      	ldr	r3, [r7, #12]
    32a0:	0018      	movs	r0, r3
    32a2:	46bd      	mov	sp, r7
    32a4:	b006      	add	sp, #24
    32a6:	bd80      	pop	{r7, pc}
    32a8:	20000104 	.word	0x20000104
    32ac:	2000011c 	.word	0x2000011c

000032b0 <bmp280_compensate_P_int32>:
    32b0:	b5f0      	push	{r4, r5, r6, r7, lr}
    32b2:	b0ab      	sub	sp, #172	; 0xac
    32b4:	af00      	add	r7, sp, #0
    32b6:	238c      	movs	r3, #140	; 0x8c
    32b8:	18fb      	adds	r3, r7, r3
    32ba:	6018      	str	r0, [r3, #0]
    32bc:	4bd0      	ldr	r3, [pc, #832]	; (3600 <bmp280_compensate_P_int32+0x350>)
    32be:	681b      	ldr	r3, [r3, #0]
    32c0:	0019      	movs	r1, r3
    32c2:	17db      	asrs	r3, r3, #31
    32c4:	001a      	movs	r2, r3
    32c6:	4bcf      	ldr	r3, [pc, #828]	; (3604 <bmp280_compensate_P_int32+0x354>)
    32c8:	2401      	movs	r4, #1
    32ca:	4264      	negs	r4, r4
    32cc:	185b      	adds	r3, r3, r1
    32ce:	4154      	adcs	r4, r2
    32d0:	22a0      	movs	r2, #160	; 0xa0
    32d2:	18ba      	adds	r2, r7, r2
    32d4:	6013      	str	r3, [r2, #0]
    32d6:	6054      	str	r4, [r2, #4]
    32d8:	4ccb      	ldr	r4, [pc, #812]	; (3608 <bmp280_compensate_P_int32+0x358>)
    32da:	23a0      	movs	r3, #160	; 0xa0
    32dc:	18fb      	adds	r3, r7, r3
    32de:	681a      	ldr	r2, [r3, #0]
    32e0:	685b      	ldr	r3, [r3, #4]
    32e2:	21a0      	movs	r1, #160	; 0xa0
    32e4:	1879      	adds	r1, r7, r1
    32e6:	6808      	ldr	r0, [r1, #0]
    32e8:	6849      	ldr	r1, [r1, #4]
    32ea:	47a0      	blx	r4
    32ec:	0003      	movs	r3, r0
    32ee:	000c      	movs	r4, r1
    32f0:	0018      	movs	r0, r3
    32f2:	0021      	movs	r1, r4
    32f4:	4bc5      	ldr	r3, [pc, #788]	; (360c <bmp280_compensate_P_int32+0x35c>)
    32f6:	2210      	movs	r2, #16
    32f8:	5e9b      	ldrsh	r3, [r3, r2]
    32fa:	653b      	str	r3, [r7, #80]	; 0x50
    32fc:	17db      	asrs	r3, r3, #31
    32fe:	657b      	str	r3, [r7, #84]	; 0x54
    3300:	4cc1      	ldr	r4, [pc, #772]	; (3608 <bmp280_compensate_P_int32+0x358>)
    3302:	6d3a      	ldr	r2, [r7, #80]	; 0x50
    3304:	6d7b      	ldr	r3, [r7, #84]	; 0x54
    3306:	47a0      	blx	r4
    3308:	0003      	movs	r3, r0
    330a:	000c      	movs	r4, r1
    330c:	2298      	movs	r2, #152	; 0x98
    330e:	18ba      	adds	r2, r7, r2
    3310:	6013      	str	r3, [r2, #0]
    3312:	6054      	str	r4, [r2, #4]
    3314:	4bbd      	ldr	r3, [pc, #756]	; (360c <bmp280_compensate_P_int32+0x35c>)
    3316:	220e      	movs	r2, #14
    3318:	5e9b      	ldrsh	r3, [r3, r2]
    331a:	64bb      	str	r3, [r7, #72]	; 0x48
    331c:	17db      	asrs	r3, r3, #31
    331e:	64fb      	str	r3, [r7, #76]	; 0x4c
    3320:	4cb9      	ldr	r4, [pc, #740]	; (3608 <bmp280_compensate_P_int32+0x358>)
    3322:	23a0      	movs	r3, #160	; 0xa0
    3324:	18fb      	adds	r3, r7, r3
    3326:	681a      	ldr	r2, [r3, #0]
    3328:	685b      	ldr	r3, [r3, #4]
    332a:	6cb8      	ldr	r0, [r7, #72]	; 0x48
    332c:	6cf9      	ldr	r1, [r7, #76]	; 0x4c
    332e:	47a0      	blx	r4
    3330:	0003      	movs	r3, r0
    3332:	000c      	movs	r4, r1
    3334:	0bda      	lsrs	r2, r3, #15
    3336:	0466      	lsls	r6, r4, #17
    3338:	4316      	orrs	r6, r2
    333a:	045d      	lsls	r5, r3, #17
    333c:	2398      	movs	r3, #152	; 0x98
    333e:	18fb      	adds	r3, r7, r3
    3340:	685c      	ldr	r4, [r3, #4]
    3342:	681b      	ldr	r3, [r3, #0]
    3344:	195b      	adds	r3, r3, r5
    3346:	4174      	adcs	r4, r6
    3348:	2298      	movs	r2, #152	; 0x98
    334a:	18ba      	adds	r2, r7, r2
    334c:	6013      	str	r3, [r2, #0]
    334e:	6054      	str	r4, [r2, #4]
    3350:	4bae      	ldr	r3, [pc, #696]	; (360c <bmp280_compensate_P_int32+0x35c>)
    3352:	220c      	movs	r2, #12
    3354:	5e9b      	ldrsh	r3, [r3, r2]
    3356:	643b      	str	r3, [r7, #64]	; 0x40
    3358:	17db      	asrs	r3, r3, #31
    335a:	647b      	str	r3, [r7, #68]	; 0x44
    335c:	6c3b      	ldr	r3, [r7, #64]	; 0x40
    335e:	00db      	lsls	r3, r3, #3
    3360:	63fb      	str	r3, [r7, #60]	; 0x3c
    3362:	2300      	movs	r3, #0
    3364:	63bb      	str	r3, [r7, #56]	; 0x38
    3366:	2398      	movs	r3, #152	; 0x98
    3368:	18fb      	adds	r3, r7, r3
    336a:	685c      	ldr	r4, [r3, #4]
    336c:	681b      	ldr	r3, [r3, #0]
    336e:	6bb9      	ldr	r1, [r7, #56]	; 0x38
    3370:	6bfa      	ldr	r2, [r7, #60]	; 0x3c
    3372:	185b      	adds	r3, r3, r1
    3374:	4154      	adcs	r4, r2
    3376:	2298      	movs	r2, #152	; 0x98
    3378:	18ba      	adds	r2, r7, r2
    337a:	6013      	str	r3, [r2, #0]
    337c:	6054      	str	r4, [r2, #4]
    337e:	4ca2      	ldr	r4, [pc, #648]	; (3608 <bmp280_compensate_P_int32+0x358>)
    3380:	23a0      	movs	r3, #160	; 0xa0
    3382:	18fb      	adds	r3, r7, r3
    3384:	681a      	ldr	r2, [r3, #0]
    3386:	685b      	ldr	r3, [r3, #4]
    3388:	21a0      	movs	r1, #160	; 0xa0
    338a:	1879      	adds	r1, r7, r1
    338c:	6808      	ldr	r0, [r1, #0]
    338e:	6849      	ldr	r1, [r1, #4]
    3390:	47a0      	blx	r4
    3392:	0003      	movs	r3, r0
    3394:	000c      	movs	r4, r1
    3396:	0018      	movs	r0, r3
    3398:	0021      	movs	r1, r4
    339a:	4b9c      	ldr	r3, [pc, #624]	; (360c <bmp280_compensate_P_int32+0x35c>)
    339c:	220a      	movs	r2, #10
    339e:	5e9b      	ldrsh	r3, [r3, r2]
    33a0:	633b      	str	r3, [r7, #48]	; 0x30
    33a2:	17db      	asrs	r3, r3, #31
    33a4:	637b      	str	r3, [r7, #52]	; 0x34
    33a6:	4c98      	ldr	r4, [pc, #608]	; (3608 <bmp280_compensate_P_int32+0x358>)
    33a8:	6b3a      	ldr	r2, [r7, #48]	; 0x30
    33aa:	6b7b      	ldr	r3, [r7, #52]	; 0x34
    33ac:	47a0      	blx	r4
    33ae:	0003      	movs	r3, r0
    33b0:	000c      	movs	r4, r1
    33b2:	0622      	lsls	r2, r4, #24
    33b4:	0a19      	lsrs	r1, r3, #8
    33b6:	2080      	movs	r0, #128	; 0x80
    33b8:	1838      	adds	r0, r7, r0
    33ba:	6001      	str	r1, [r0, #0]
    33bc:	2180      	movs	r1, #128	; 0x80
    33be:	1879      	adds	r1, r7, r1
    33c0:	6809      	ldr	r1, [r1, #0]
    33c2:	4311      	orrs	r1, r2
    33c4:	2280      	movs	r2, #128	; 0x80
    33c6:	18ba      	adds	r2, r7, r2
    33c8:	6011      	str	r1, [r2, #0]
    33ca:	1223      	asrs	r3, r4, #8
    33cc:	2284      	movs	r2, #132	; 0x84
    33ce:	18ba      	adds	r2, r7, r2
    33d0:	6013      	str	r3, [r2, #0]
    33d2:	4b8e      	ldr	r3, [pc, #568]	; (360c <bmp280_compensate_P_int32+0x35c>)
    33d4:	2208      	movs	r2, #8
    33d6:	5e9b      	ldrsh	r3, [r3, r2]
    33d8:	62bb      	str	r3, [r7, #40]	; 0x28
    33da:	17db      	asrs	r3, r3, #31
    33dc:	62fb      	str	r3, [r7, #44]	; 0x2c
    33de:	4c8a      	ldr	r4, [pc, #552]	; (3608 <bmp280_compensate_P_int32+0x358>)
    33e0:	23a0      	movs	r3, #160	; 0xa0
    33e2:	18fb      	adds	r3, r7, r3
    33e4:	681a      	ldr	r2, [r3, #0]
    33e6:	685b      	ldr	r3, [r3, #4]
    33e8:	6ab8      	ldr	r0, [r7, #40]	; 0x28
    33ea:	6af9      	ldr	r1, [r7, #44]	; 0x2c
    33ec:	47a0      	blx	r4
    33ee:	0003      	movs	r3, r0
    33f0:	000c      	movs	r4, r1
    33f2:	0d1a      	lsrs	r2, r3, #20
    33f4:	0321      	lsls	r1, r4, #12
    33f6:	67f9      	str	r1, [r7, #124]	; 0x7c
    33f8:	6ff9      	ldr	r1, [r7, #124]	; 0x7c
    33fa:	4311      	orrs	r1, r2
    33fc:	67f9      	str	r1, [r7, #124]	; 0x7c
    33fe:	031b      	lsls	r3, r3, #12
    3400:	67bb      	str	r3, [r7, #120]	; 0x78
    3402:	2380      	movs	r3, #128	; 0x80
    3404:	18fb      	adds	r3, r7, r3
    3406:	685c      	ldr	r4, [r3, #4]
    3408:	681b      	ldr	r3, [r3, #0]
    340a:	6fb9      	ldr	r1, [r7, #120]	; 0x78
    340c:	6ffa      	ldr	r2, [r7, #124]	; 0x7c
    340e:	185b      	adds	r3, r3, r1
    3410:	4154      	adcs	r4, r2
    3412:	22a0      	movs	r2, #160	; 0xa0
    3414:	18ba      	adds	r2, r7, r2
    3416:	6013      	str	r3, [r2, #0]
    3418:	6054      	str	r4, [r2, #4]
    341a:	23a0      	movs	r3, #160	; 0xa0
    341c:	18fb      	adds	r3, r7, r3
    341e:	6819      	ldr	r1, [r3, #0]
    3420:	685a      	ldr	r2, [r3, #4]
    3422:	2300      	movs	r3, #0
    3424:	2480      	movs	r4, #128	; 0x80
    3426:	0224      	lsls	r4, r4, #8
    3428:	18c9      	adds	r1, r1, r3
    342a:	4162      	adcs	r2, r4
    342c:	0008      	movs	r0, r1
    342e:	0011      	movs	r1, r2
    3430:	4b76      	ldr	r3, [pc, #472]	; (360c <bmp280_compensate_P_int32+0x35c>)
    3432:	88db      	ldrh	r3, [r3, #6]
    3434:	623b      	str	r3, [r7, #32]
    3436:	2300      	movs	r3, #0
    3438:	627b      	str	r3, [r7, #36]	; 0x24
    343a:	4c73      	ldr	r4, [pc, #460]	; (3608 <bmp280_compensate_P_int32+0x358>)
    343c:	6a3a      	ldr	r2, [r7, #32]
    343e:	6a7b      	ldr	r3, [r7, #36]	; 0x24
    3440:	47a0      	blx	r4
    3442:	0003      	movs	r3, r0
    3444:	000c      	movs	r4, r1
    3446:	1062      	asrs	r2, r4, #1
    3448:	21a0      	movs	r1, #160	; 0xa0
    344a:	1879      	adds	r1, r7, r1
    344c:	600a      	str	r2, [r1, #0]
    344e:	17e3      	asrs	r3, r4, #31
    3450:	22a4      	movs	r2, #164	; 0xa4
    3452:	18ba      	adds	r2, r7, r2
    3454:	6013      	str	r3, [r2, #0]
    3456:	23a0      	movs	r3, #160	; 0xa0
    3458:	18fb      	adds	r3, r7, r3
    345a:	681a      	ldr	r2, [r3, #0]
    345c:	23a4      	movs	r3, #164	; 0xa4
    345e:	18fb      	adds	r3, r7, r3
    3460:	681b      	ldr	r3, [r3, #0]
    3462:	431a      	orrs	r2, r3
    3464:	d101      	bne.n	346a <bmp280_compensate_P_int32+0x1ba>
    3466:	2300      	movs	r3, #0
    3468:	e0c6      	b.n	35f8 <bmp280_compensate_P_int32+0x348>
    346a:	238c      	movs	r3, #140	; 0x8c
    346c:	18fb      	adds	r3, r7, r3
    346e:	681a      	ldr	r2, [r3, #0]
    3470:	2380      	movs	r3, #128	; 0x80
    3472:	035b      	lsls	r3, r3, #13
    3474:	1a9b      	subs	r3, r3, r2
    3476:	2290      	movs	r2, #144	; 0x90
    3478:	18ba      	adds	r2, r7, r2
    347a:	6013      	str	r3, [r2, #0]
    347c:	17db      	asrs	r3, r3, #31
    347e:	2294      	movs	r2, #148	; 0x94
    3480:	18ba      	adds	r2, r7, r2
    3482:	6013      	str	r3, [r2, #0]
    3484:	2390      	movs	r3, #144	; 0x90
    3486:	18fb      	adds	r3, r7, r3
    3488:	681b      	ldr	r3, [r3, #0]
    348a:	105b      	asrs	r3, r3, #1
    348c:	61fb      	str	r3, [r7, #28]
    348e:	2390      	movs	r3, #144	; 0x90
    3490:	18fb      	adds	r3, r7, r3
    3492:	681b      	ldr	r3, [r3, #0]
    3494:	07db      	lsls	r3, r3, #31
    3496:	61bb      	str	r3, [r7, #24]
    3498:	2398      	movs	r3, #152	; 0x98
    349a:	18fb      	adds	r3, r7, r3
    349c:	685c      	ldr	r4, [r3, #4]
    349e:	681b      	ldr	r3, [r3, #0]
    34a0:	69b8      	ldr	r0, [r7, #24]
    34a2:	69f9      	ldr	r1, [r7, #28]
    34a4:	1ac0      	subs	r0, r0, r3
    34a6:	41a1      	sbcs	r1, r4
    34a8:	4c57      	ldr	r4, [pc, #348]	; (3608 <bmp280_compensate_P_int32+0x358>)
    34aa:	4a59      	ldr	r2, [pc, #356]	; (3610 <bmp280_compensate_P_int32+0x360>)
    34ac:	2300      	movs	r3, #0
    34ae:	47a0      	blx	r4
    34b0:	0003      	movs	r3, r0
    34b2:	000c      	movs	r4, r1
    34b4:	0018      	movs	r0, r3
    34b6:	0021      	movs	r1, r4
    34b8:	4c56      	ldr	r4, [pc, #344]	; (3614 <bmp280_compensate_P_int32+0x364>)
    34ba:	23a0      	movs	r3, #160	; 0xa0
    34bc:	18fb      	adds	r3, r7, r3
    34be:	681a      	ldr	r2, [r3, #0]
    34c0:	685b      	ldr	r3, [r3, #4]
    34c2:	47a0      	blx	r4
    34c4:	0003      	movs	r3, r0
    34c6:	000c      	movs	r4, r1
    34c8:	2290      	movs	r2, #144	; 0x90
    34ca:	18ba      	adds	r2, r7, r2
    34cc:	6013      	str	r3, [r2, #0]
    34ce:	6054      	str	r4, [r2, #4]
    34d0:	4b4e      	ldr	r3, [pc, #312]	; (360c <bmp280_compensate_P_int32+0x35c>)
    34d2:	2216      	movs	r2, #22
    34d4:	5e9b      	ldrsh	r3, [r3, r2]
    34d6:	613b      	str	r3, [r7, #16]
    34d8:	17db      	asrs	r3, r3, #31
    34da:	617b      	str	r3, [r7, #20]
    34dc:	2394      	movs	r3, #148	; 0x94
    34de:	18fb      	adds	r3, r7, r3
    34e0:	681b      	ldr	r3, [r3, #0]
    34e2:	04da      	lsls	r2, r3, #19
    34e4:	2390      	movs	r3, #144	; 0x90
    34e6:	18fb      	adds	r3, r7, r3
    34e8:	681b      	ldr	r3, [r3, #0]
    34ea:	0b5b      	lsrs	r3, r3, #13
    34ec:	673b      	str	r3, [r7, #112]	; 0x70
    34ee:	6f3b      	ldr	r3, [r7, #112]	; 0x70
    34f0:	4313      	orrs	r3, r2
    34f2:	673b      	str	r3, [r7, #112]	; 0x70
    34f4:	2394      	movs	r3, #148	; 0x94
    34f6:	18fb      	adds	r3, r7, r3
    34f8:	681b      	ldr	r3, [r3, #0]
    34fa:	135b      	asrs	r3, r3, #13
    34fc:	677b      	str	r3, [r7, #116]	; 0x74
    34fe:	4c42      	ldr	r4, [pc, #264]	; (3608 <bmp280_compensate_P_int32+0x358>)
    3500:	6f3a      	ldr	r2, [r7, #112]	; 0x70
    3502:	6f7b      	ldr	r3, [r7, #116]	; 0x74
    3504:	6938      	ldr	r0, [r7, #16]
    3506:	6979      	ldr	r1, [r7, #20]
    3508:	47a0      	blx	r4
    350a:	0003      	movs	r3, r0
    350c:	000c      	movs	r4, r1
    350e:	0018      	movs	r0, r3
    3510:	0021      	movs	r1, r4
    3512:	2394      	movs	r3, #148	; 0x94
    3514:	18fb      	adds	r3, r7, r3
    3516:	681b      	ldr	r3, [r3, #0]
    3518:	04da      	lsls	r2, r3, #19
    351a:	2390      	movs	r3, #144	; 0x90
    351c:	18fb      	adds	r3, r7, r3
    351e:	681b      	ldr	r3, [r3, #0]
    3520:	0b5b      	lsrs	r3, r3, #13
    3522:	66bb      	str	r3, [r7, #104]	; 0x68
    3524:	6ebb      	ldr	r3, [r7, #104]	; 0x68
    3526:	4313      	orrs	r3, r2
    3528:	66bb      	str	r3, [r7, #104]	; 0x68
    352a:	2394      	movs	r3, #148	; 0x94
    352c:	18fb      	adds	r3, r7, r3
    352e:	681b      	ldr	r3, [r3, #0]
    3530:	135b      	asrs	r3, r3, #13
    3532:	66fb      	str	r3, [r7, #108]	; 0x6c
    3534:	4c34      	ldr	r4, [pc, #208]	; (3608 <bmp280_compensate_P_int32+0x358>)
    3536:	6eba      	ldr	r2, [r7, #104]	; 0x68
    3538:	6efb      	ldr	r3, [r7, #108]	; 0x6c
    353a:	47a0      	blx	r4
    353c:	0003      	movs	r3, r0
    353e:	000c      	movs	r4, r1
    3540:	01e2      	lsls	r2, r4, #7
    3542:	0e59      	lsrs	r1, r3, #25
    3544:	430a      	orrs	r2, r1
    3546:	21a0      	movs	r1, #160	; 0xa0
    3548:	1879      	adds	r1, r7, r1
    354a:	600a      	str	r2, [r1, #0]
    354c:	1663      	asrs	r3, r4, #25
    354e:	22a4      	movs	r2, #164	; 0xa4
    3550:	18ba      	adds	r2, r7, r2
    3552:	6013      	str	r3, [r2, #0]
    3554:	4b2d      	ldr	r3, [pc, #180]	; (360c <bmp280_compensate_P_int32+0x35c>)
    3556:	2214      	movs	r2, #20
    3558:	5e9b      	ldrsh	r3, [r3, r2]
    355a:	60bb      	str	r3, [r7, #8]
    355c:	17db      	asrs	r3, r3, #31
    355e:	60fb      	str	r3, [r7, #12]
    3560:	4c29      	ldr	r4, [pc, #164]	; (3608 <bmp280_compensate_P_int32+0x358>)
    3562:	2390      	movs	r3, #144	; 0x90
    3564:	18fb      	adds	r3, r7, r3
    3566:	681a      	ldr	r2, [r3, #0]
    3568:	685b      	ldr	r3, [r3, #4]
    356a:	68b8      	ldr	r0, [r7, #8]
    356c:	68f9      	ldr	r1, [r7, #12]
    356e:	47a0      	blx	r4
    3570:	0003      	movs	r3, r0
    3572:	000c      	movs	r4, r1
    3574:	0362      	lsls	r2, r4, #13
    3576:	0cd9      	lsrs	r1, r3, #19
    3578:	430a      	orrs	r2, r1
    357a:	2198      	movs	r1, #152	; 0x98
    357c:	1879      	adds	r1, r7, r1
    357e:	600a      	str	r2, [r1, #0]
    3580:	14e3      	asrs	r3, r4, #19
    3582:	229c      	movs	r2, #156	; 0x9c
    3584:	18ba      	adds	r2, r7, r2
    3586:	6013      	str	r3, [r2, #0]
    3588:	2390      	movs	r3, #144	; 0x90
    358a:	18fb      	adds	r3, r7, r3
    358c:	6819      	ldr	r1, [r3, #0]
    358e:	685a      	ldr	r2, [r3, #4]
    3590:	23a0      	movs	r3, #160	; 0xa0
    3592:	18fb      	adds	r3, r7, r3
    3594:	685c      	ldr	r4, [r3, #4]
    3596:	681b      	ldr	r3, [r3, #0]
    3598:	18c9      	adds	r1, r1, r3
    359a:	4162      	adcs	r2, r4
    359c:	2398      	movs	r3, #152	; 0x98
    359e:	18fb      	adds	r3, r7, r3
    35a0:	685c      	ldr	r4, [r3, #4]
    35a2:	681b      	ldr	r3, [r3, #0]
    35a4:	185b      	adds	r3, r3, r1
    35a6:	4154      	adcs	r4, r2
    35a8:	0622      	lsls	r2, r4, #24
    35aa:	0a19      	lsrs	r1, r3, #8
    35ac:	6639      	str	r1, [r7, #96]	; 0x60
    35ae:	6e39      	ldr	r1, [r7, #96]	; 0x60
    35b0:	4311      	orrs	r1, r2
    35b2:	6639      	str	r1, [r7, #96]	; 0x60
    35b4:	1223      	asrs	r3, r4, #8
    35b6:	667b      	str	r3, [r7, #100]	; 0x64
    35b8:	4b14      	ldr	r3, [pc, #80]	; (360c <bmp280_compensate_P_int32+0x35c>)
    35ba:	2212      	movs	r2, #18
    35bc:	5e9b      	ldrsh	r3, [r3, r2]
    35be:	603b      	str	r3, [r7, #0]
    35c0:	17db      	asrs	r3, r3, #31
    35c2:	607b      	str	r3, [r7, #4]
    35c4:	6839      	ldr	r1, [r7, #0]
    35c6:	687a      	ldr	r2, [r7, #4]
    35c8:	000b      	movs	r3, r1
    35ca:	0f1b      	lsrs	r3, r3, #28
    35cc:	0010      	movs	r0, r2
    35ce:	0100      	lsls	r0, r0, #4
    35d0:	65f8      	str	r0, [r7, #92]	; 0x5c
    35d2:	6df8      	ldr	r0, [r7, #92]	; 0x5c
    35d4:	4318      	orrs	r0, r3
    35d6:	65f8      	str	r0, [r7, #92]	; 0x5c
    35d8:	000b      	movs	r3, r1
    35da:	011b      	lsls	r3, r3, #4
    35dc:	65bb      	str	r3, [r7, #88]	; 0x58
    35de:	6e3b      	ldr	r3, [r7, #96]	; 0x60
    35e0:	6e7c      	ldr	r4, [r7, #100]	; 0x64
    35e2:	6db9      	ldr	r1, [r7, #88]	; 0x58
    35e4:	6dfa      	ldr	r2, [r7, #92]	; 0x5c
    35e6:	185b      	adds	r3, r3, r1
    35e8:	4154      	adcs	r4, r2
    35ea:	2290      	movs	r2, #144	; 0x90
    35ec:	18ba      	adds	r2, r7, r2
    35ee:	6013      	str	r3, [r2, #0]
    35f0:	6054      	str	r4, [r2, #4]
    35f2:	2390      	movs	r3, #144	; 0x90
    35f4:	18fb      	adds	r3, r7, r3
    35f6:	681b      	ldr	r3, [r3, #0]
    35f8:	0018      	movs	r0, r3
    35fa:	46bd      	mov	sp, r7
    35fc:	b02b      	add	sp, #172	; 0xac
    35fe:	bdf0      	pop	{r4, r5, r6, r7, pc}
    3600:	2000011c 	.word	0x2000011c
    3604:	fffe0c00 	.word	0xfffe0c00
    3608:	00005415 	.word	0x00005415
    360c:	20000104 	.word	0x20000104
    3610:	00000c35 	.word	0x00000c35
    3614:	0000538d 	.word	0x0000538d

00003618 <read_bmp280>:
    3618:	b590      	push	{r4, r7, lr}
    361a:	b085      	sub	sp, #20
    361c:	af00      	add	r7, sp, #0
    361e:	6078      	str	r0, [r7, #4]
    3620:	2308      	movs	r3, #8
    3622:	18fb      	adds	r3, r7, r3
    3624:	0018      	movs	r0, r3
    3626:	4b18      	ldr	r3, [pc, #96]	; (3688 <read_bmp280+0x70>)
    3628:	4798      	blx	r3
    362a:	2308      	movs	r3, #8
    362c:	18fb      	adds	r3, r7, r3
    362e:	681a      	ldr	r2, [r3, #0]
    3630:	4b16      	ldr	r3, [pc, #88]	; (368c <read_bmp280+0x74>)
    3632:	0010      	movs	r0, r2
    3634:	4798      	blx	r3
    3636:	4c16      	ldr	r4, [pc, #88]	; (3690 <read_bmp280+0x78>)
    3638:	2200      	movs	r2, #0
    363a:	4b16      	ldr	r3, [pc, #88]	; (3694 <read_bmp280+0x7c>)
    363c:	47a0      	blx	r4
    363e:	0003      	movs	r3, r0
    3640:	000c      	movs	r4, r1
    3642:	0019      	movs	r1, r3
    3644:	0022      	movs	r2, r4
    3646:	4b14      	ldr	r3, [pc, #80]	; (3698 <read_bmp280+0x80>)
    3648:	0008      	movs	r0, r1
    364a:	0011      	movs	r1, r2
    364c:	4798      	blx	r3
    364e:	1c02      	adds	r2, r0, #0
    3650:	687b      	ldr	r3, [r7, #4]
    3652:	601a      	str	r2, [r3, #0]
    3654:	2308      	movs	r3, #8
    3656:	18fb      	adds	r3, r7, r3
    3658:	685a      	ldr	r2, [r3, #4]
    365a:	4b10      	ldr	r3, [pc, #64]	; (369c <read_bmp280+0x84>)
    365c:	0010      	movs	r0, r2
    365e:	4798      	blx	r3
    3660:	4c0f      	ldr	r4, [pc, #60]	; (36a0 <read_bmp280+0x88>)
    3662:	4a10      	ldr	r2, [pc, #64]	; (36a4 <read_bmp280+0x8c>)
    3664:	4b10      	ldr	r3, [pc, #64]	; (36a8 <read_bmp280+0x90>)
    3666:	47a0      	blx	r4
    3668:	0003      	movs	r3, r0
    366a:	000c      	movs	r4, r1
    366c:	0019      	movs	r1, r3
    366e:	0022      	movs	r2, r4
    3670:	4b09      	ldr	r3, [pc, #36]	; (3698 <read_bmp280+0x80>)
    3672:	0008      	movs	r0, r1
    3674:	0011      	movs	r1, r2
    3676:	4798      	blx	r3
    3678:	1c02      	adds	r2, r0, #0
    367a:	687b      	ldr	r3, [r7, #4]
    367c:	605a      	str	r2, [r3, #4]
    367e:	46c0      	nop			; (mov r8, r8)
    3680:	46bd      	mov	sp, r7
    3682:	b005      	add	sp, #20
    3684:	bd90      	pop	{r4, r7, pc}
    3686:	46c0      	nop			; (mov r8, r8)
    3688:	000036ad 	.word	0x000036ad
    368c:	00006ec1 	.word	0x00006ec1
    3690:	00005c41 	.word	0x00005c41
    3694:	40700000 	.word	0x40700000
    3698:	00006f31 	.word	0x00006f31
    369c:	00006e3d 	.word	0x00006e3d
    36a0:	000062a9 	.word	0x000062a9
    36a4:	47ae147b 	.word	0x47ae147b
    36a8:	3f847ae1 	.word	0x3f847ae1

000036ac <read_bmp280_integer>:
    36ac:	b590      	push	{r4, r7, lr}
    36ae:	b087      	sub	sp, #28
    36b0:	af00      	add	r7, sp, #0
    36b2:	6078      	str	r0, [r7, #4]
    36b4:	2310      	movs	r3, #16
    36b6:	18fb      	adds	r3, r7, r3
    36b8:	0018      	movs	r0, r3
    36ba:	2306      	movs	r3, #6
    36bc:	001a      	movs	r2, r3
    36be:	2100      	movs	r1, #0
    36c0:	4b24      	ldr	r3, [pc, #144]	; (3754 <read_bmp280_integer+0xa8>)
    36c2:	4798      	blx	r3
    36c4:	2310      	movs	r3, #16
    36c6:	18f8      	adds	r0, r7, r3
    36c8:	23f7      	movs	r3, #247	; 0xf7
    36ca:	2276      	movs	r2, #118	; 0x76
    36cc:	2106      	movs	r1, #6
    36ce:	4c22      	ldr	r4, [pc, #136]	; (3758 <read_bmp280_integer+0xac>)
    36d0:	47a0      	blx	r4
    36d2:	2310      	movs	r3, #16
    36d4:	18fb      	adds	r3, r7, r3
    36d6:	789a      	ldrb	r2, [r3, #2]
    36d8:	2308      	movs	r3, #8
    36da:	18fb      	adds	r3, r7, r3
    36dc:	701a      	strb	r2, [r3, #0]
    36de:	2310      	movs	r3, #16
    36e0:	18fb      	adds	r3, r7, r3
    36e2:	785a      	ldrb	r2, [r3, #1]
    36e4:	2308      	movs	r3, #8
    36e6:	18fb      	adds	r3, r7, r3
    36e8:	705a      	strb	r2, [r3, #1]
    36ea:	2310      	movs	r3, #16
    36ec:	18fb      	adds	r3, r7, r3
    36ee:	781a      	ldrb	r2, [r3, #0]
    36f0:	2308      	movs	r3, #8
    36f2:	18fb      	adds	r3, r7, r3
    36f4:	709a      	strb	r2, [r3, #2]
    36f6:	68bb      	ldr	r3, [r7, #8]
    36f8:	091b      	lsrs	r3, r3, #4
    36fa:	031b      	lsls	r3, r3, #12
    36fc:	0b1b      	lsrs	r3, r3, #12
    36fe:	60bb      	str	r3, [r7, #8]
    3700:	2310      	movs	r3, #16
    3702:	18fb      	adds	r3, r7, r3
    3704:	795a      	ldrb	r2, [r3, #5]
    3706:	230c      	movs	r3, #12
    3708:	18fb      	adds	r3, r7, r3
    370a:	701a      	strb	r2, [r3, #0]
    370c:	2310      	movs	r3, #16
    370e:	18fb      	adds	r3, r7, r3
    3710:	791a      	ldrb	r2, [r3, #4]
    3712:	230c      	movs	r3, #12
    3714:	18fb      	adds	r3, r7, r3
    3716:	705a      	strb	r2, [r3, #1]
    3718:	2310      	movs	r3, #16
    371a:	18fb      	adds	r3, r7, r3
    371c:	78da      	ldrb	r2, [r3, #3]
    371e:	230c      	movs	r3, #12
    3720:	18fb      	adds	r3, r7, r3
    3722:	709a      	strb	r2, [r3, #2]
    3724:	68fb      	ldr	r3, [r7, #12]
    3726:	091b      	lsrs	r3, r3, #4
    3728:	031b      	lsls	r3, r3, #12
    372a:	0b1b      	lsrs	r3, r3, #12
    372c:	60fb      	str	r3, [r7, #12]
    372e:	68fb      	ldr	r3, [r7, #12]
    3730:	0018      	movs	r0, r3
    3732:	4b0a      	ldr	r3, [pc, #40]	; (375c <read_bmp280_integer+0xb0>)
    3734:	4798      	blx	r3
    3736:	0002      	movs	r2, r0
    3738:	687b      	ldr	r3, [r7, #4]
    373a:	605a      	str	r2, [r3, #4]
    373c:	68bb      	ldr	r3, [r7, #8]
    373e:	0018      	movs	r0, r3
    3740:	4b07      	ldr	r3, [pc, #28]	; (3760 <read_bmp280_integer+0xb4>)
    3742:	4798      	blx	r3
    3744:	0002      	movs	r2, r0
    3746:	687b      	ldr	r3, [r7, #4]
    3748:	601a      	str	r2, [r3, #0]
    374a:	46c0      	nop			; (mov r8, r8)
    374c:	46bd      	mov	sp, r7
    374e:	b007      	add	sp, #28
    3750:	bd90      	pop	{r4, r7, pc}
    3752:	46c0      	nop			; (mov r8, r8)
    3754:	000072ab 	.word	0x000072ab
    3758:	00003a29 	.word	0x00003a29
    375c:	00003241 	.word	0x00003241
    3760:	000032b1 	.word	0x000032b1

00003764 <i2c_master_is_syncing>:
    3764:	b580      	push	{r7, lr}
    3766:	b084      	sub	sp, #16
    3768:	af00      	add	r7, sp, #0
    376a:	6078      	str	r0, [r7, #4]
    376c:	687b      	ldr	r3, [r7, #4]
    376e:	681b      	ldr	r3, [r3, #0]
    3770:	60fb      	str	r3, [r7, #12]
    3772:	68fb      	ldr	r3, [r7, #12]
    3774:	69db      	ldr	r3, [r3, #28]
    3776:	2207      	movs	r2, #7
    3778:	4013      	ands	r3, r2
    377a:	1e5a      	subs	r2, r3, #1
    377c:	4193      	sbcs	r3, r2
    377e:	b2db      	uxtb	r3, r3
    3780:	0018      	movs	r0, r3
    3782:	46bd      	mov	sp, r7
    3784:	b004      	add	sp, #16
    3786:	bd80      	pop	{r7, pc}

00003788 <_i2c_master_wait_for_sync>:
    3788:	b580      	push	{r7, lr}
    378a:	b082      	sub	sp, #8
    378c:	af00      	add	r7, sp, #0
    378e:	6078      	str	r0, [r7, #4]
    3790:	46c0      	nop			; (mov r8, r8)
    3792:	687b      	ldr	r3, [r7, #4]
    3794:	0018      	movs	r0, r3
    3796:	4b04      	ldr	r3, [pc, #16]	; (37a8 <_i2c_master_wait_for_sync+0x20>)
    3798:	4798      	blx	r3
    379a:	1e03      	subs	r3, r0, #0
    379c:	d1f9      	bne.n	3792 <_i2c_master_wait_for_sync+0xa>
    379e:	46c0      	nop			; (mov r8, r8)
    37a0:	46bd      	mov	sp, r7
    37a2:	b002      	add	sp, #8
    37a4:	bd80      	pop	{r7, pc}
    37a6:	46c0      	nop			; (mov r8, r8)
    37a8:	00003765 	.word	0x00003765

000037ac <i2c_master_get_config_defaults>:
    37ac:	b580      	push	{r7, lr}
    37ae:	b082      	sub	sp, #8
    37b0:	af00      	add	r7, sp, #0
    37b2:	6078      	str	r0, [r7, #4]
    37b4:	687b      	ldr	r3, [r7, #4]
    37b6:	2264      	movs	r2, #100	; 0x64
    37b8:	601a      	str	r2, [r3, #0]
    37ba:	687b      	ldr	r3, [r7, #4]
    37bc:	4a1b      	ldr	r2, [pc, #108]	; (382c <i2c_master_get_config_defaults+0x80>)
    37be:	605a      	str	r2, [r3, #4]
    37c0:	687b      	ldr	r3, [r7, #4]
    37c2:	2200      	movs	r2, #0
    37c4:	609a      	str	r2, [r3, #8]
    37c6:	687b      	ldr	r3, [r7, #4]
    37c8:	2200      	movs	r2, #0
    37ca:	731a      	strb	r2, [r3, #12]
    37cc:	687b      	ldr	r3, [r7, #4]
    37ce:	2200      	movs	r2, #0
    37d0:	761a      	strb	r2, [r3, #24]
    37d2:	687b      	ldr	r3, [r7, #4]
    37d4:	2280      	movs	r2, #128	; 0x80
    37d6:	0392      	lsls	r2, r2, #14
    37d8:	611a      	str	r2, [r3, #16]
    37da:	687b      	ldr	r3, [r7, #4]
    37dc:	2201      	movs	r2, #1
    37de:	4252      	negs	r2, r2
    37e0:	82da      	strh	r2, [r3, #22]
    37e2:	687b      	ldr	r3, [r7, #4]
    37e4:	2201      	movs	r2, #1
    37e6:	4252      	negs	r2, r2
    37e8:	829a      	strh	r2, [r3, #20]
    37ea:	687b      	ldr	r3, [r7, #4]
    37ec:	2200      	movs	r2, #0
    37ee:	61da      	str	r2, [r3, #28]
    37f0:	687b      	ldr	r3, [r7, #4]
    37f2:	2200      	movs	r2, #0
    37f4:	621a      	str	r2, [r3, #32]
    37f6:	687b      	ldr	r3, [r7, #4]
    37f8:	2224      	movs	r2, #36	; 0x24
    37fa:	2100      	movs	r1, #0
    37fc:	5499      	strb	r1, [r3, r2]
    37fe:	687b      	ldr	r3, [r7, #4]
    3800:	2200      	movs	r2, #0
    3802:	629a      	str	r2, [r3, #40]	; 0x28
    3804:	687b      	ldr	r3, [r7, #4]
    3806:	222c      	movs	r2, #44	; 0x2c
    3808:	2100      	movs	r1, #0
    380a:	5499      	strb	r1, [r3, r2]
    380c:	687b      	ldr	r3, [r7, #4]
    380e:	222d      	movs	r2, #45	; 0x2d
    3810:	2100      	movs	r1, #0
    3812:	5499      	strb	r1, [r3, r2]
    3814:	687b      	ldr	r3, [r7, #4]
    3816:	222e      	movs	r2, #46	; 0x2e
    3818:	2100      	movs	r1, #0
    381a:	5499      	strb	r1, [r3, r2]
    381c:	687b      	ldr	r3, [r7, #4]
    381e:	22d7      	movs	r2, #215	; 0xd7
    3820:	861a      	strh	r2, [r3, #48]	; 0x30
    3822:	46c0      	nop			; (mov r8, r8)
    3824:	46bd      	mov	sp, r7
    3826:	b002      	add	sp, #8
    3828:	bd80      	pop	{r7, pc}
    382a:	46c0      	nop			; (mov r8, r8)
    382c:	00000d48 	.word	0x00000d48

00003830 <i2c_master_enable>:
    3830:	b580      	push	{r7, lr}
    3832:	b084      	sub	sp, #16
    3834:	af00      	add	r7, sp, #0
    3836:	6078      	str	r0, [r7, #4]
    3838:	687b      	ldr	r3, [r7, #4]
    383a:	681b      	ldr	r3, [r3, #0]
    383c:	60bb      	str	r3, [r7, #8]
    383e:	2300      	movs	r3, #0
    3840:	60fb      	str	r3, [r7, #12]
    3842:	687b      	ldr	r3, [r7, #4]
    3844:	0018      	movs	r0, r3
    3846:	4b10      	ldr	r3, [pc, #64]	; (3888 <i2c_master_enable+0x58>)
    3848:	4798      	blx	r3
    384a:	68bb      	ldr	r3, [r7, #8]
    384c:	681b      	ldr	r3, [r3, #0]
    384e:	2202      	movs	r2, #2
    3850:	431a      	orrs	r2, r3
    3852:	68bb      	ldr	r3, [r7, #8]
    3854:	601a      	str	r2, [r3, #0]
    3856:	e00c      	b.n	3872 <i2c_master_enable+0x42>
    3858:	68fb      	ldr	r3, [r7, #12]
    385a:	3301      	adds	r3, #1
    385c:	60fb      	str	r3, [r7, #12]
    385e:	687b      	ldr	r3, [r7, #4]
    3860:	88db      	ldrh	r3, [r3, #6]
    3862:	001a      	movs	r2, r3
    3864:	68fb      	ldr	r3, [r7, #12]
    3866:	429a      	cmp	r2, r3
    3868:	d803      	bhi.n	3872 <i2c_master_enable+0x42>
    386a:	68bb      	ldr	r3, [r7, #8]
    386c:	2210      	movs	r2, #16
    386e:	835a      	strh	r2, [r3, #26]
    3870:	e006      	b.n	3880 <i2c_master_enable+0x50>
    3872:	68bb      	ldr	r3, [r7, #8]
    3874:	8b5b      	ldrh	r3, [r3, #26]
    3876:	b29b      	uxth	r3, r3
    3878:	001a      	movs	r2, r3
    387a:	2310      	movs	r3, #16
    387c:	4013      	ands	r3, r2
    387e:	d0eb      	beq.n	3858 <i2c_master_enable+0x28>
    3880:	46bd      	mov	sp, r7
    3882:	b004      	add	sp, #16
    3884:	bd80      	pop	{r7, pc}
    3886:	46c0      	nop			; (mov r8, r8)
    3888:	00003789 	.word	0x00003789

0000388c <i2c_interface_init>:
    388c:	b580      	push	{r7, lr}
    388e:	af00      	add	r7, sp, #0
    3890:	4b10      	ldr	r3, [pc, #64]	; (38d4 <i2c_interface_init+0x48>)
    3892:	0018      	movs	r0, r3
    3894:	4b10      	ldr	r3, [pc, #64]	; (38d8 <i2c_interface_init+0x4c>)
    3896:	4798      	blx	r3
    3898:	4b0e      	ldr	r3, [pc, #56]	; (38d4 <i2c_interface_init+0x48>)
    389a:	22c0      	movs	r2, #192	; 0xc0
    389c:	0392      	lsls	r2, r2, #14
    389e:	611a      	str	r2, [r3, #16]
    38a0:	4b0c      	ldr	r3, [pc, #48]	; (38d4 <i2c_interface_init+0x48>)
    38a2:	2264      	movs	r2, #100	; 0x64
    38a4:	601a      	str	r2, [r3, #0]
    38a6:	4b0b      	ldr	r3, [pc, #44]	; (38d4 <i2c_interface_init+0x48>)
    38a8:	4a0c      	ldr	r2, [pc, #48]	; (38dc <i2c_interface_init+0x50>)
    38aa:	82da      	strh	r2, [r3, #22]
    38ac:	4b09      	ldr	r3, [pc, #36]	; (38d4 <i2c_interface_init+0x48>)
    38ae:	4a0c      	ldr	r2, [pc, #48]	; (38e0 <i2c_interface_init+0x54>)
    38b0:	61da      	str	r2, [r3, #28]
    38b2:	4b08      	ldr	r3, [pc, #32]	; (38d4 <i2c_interface_init+0x48>)
    38b4:	4a0b      	ldr	r2, [pc, #44]	; (38e4 <i2c_interface_init+0x58>)
    38b6:	621a      	str	r2, [r3, #32]
    38b8:	4a06      	ldr	r2, [pc, #24]	; (38d4 <i2c_interface_init+0x48>)
    38ba:	490b      	ldr	r1, [pc, #44]	; (38e8 <i2c_interface_init+0x5c>)
    38bc:	4b0b      	ldr	r3, [pc, #44]	; (38ec <i2c_interface_init+0x60>)
    38be:	0018      	movs	r0, r3
    38c0:	4b0b      	ldr	r3, [pc, #44]	; (38f0 <i2c_interface_init+0x64>)
    38c2:	4798      	blx	r3
    38c4:	4b09      	ldr	r3, [pc, #36]	; (38ec <i2c_interface_init+0x60>)
    38c6:	0018      	movs	r0, r3
    38c8:	4b0a      	ldr	r3, [pc, #40]	; (38f4 <i2c_interface_init+0x68>)
    38ca:	4798      	blx	r3
    38cc:	46c0      	nop			; (mov r8, r8)
    38ce:	46bd      	mov	sp, r7
    38d0:	bd80      	pop	{r7, pc}
    38d2:	46c0      	nop			; (mov r8, r8)
    38d4:	20000120 	.word	0x20000120
    38d8:	000037ad 	.word	0x000037ad
    38dc:	00002710 	.word	0x00002710
    38e0:	00160002 	.word	0x00160002
    38e4:	00170002 	.word	0x00170002
    38e8:	42000c00 	.word	0x42000c00
    38ec:	20000154 	.word	0x20000154
    38f0:	00001a69 	.word	0x00001a69
    38f4:	00003831 	.word	0x00003831

000038f8 <i2c_write_bytes>:
    38f8:	b5f0      	push	{r4, r5, r6, r7, lr}
    38fa:	b091      	sub	sp, #68	; 0x44
    38fc:	af00      	add	r7, sp, #0
    38fe:	6278      	str	r0, [r7, #36]	; 0x24
    3900:	000e      	movs	r6, r1
    3902:	0010      	movs	r0, r2
    3904:	0019      	movs	r1, r3
    3906:	2323      	movs	r3, #35	; 0x23
    3908:	18fb      	adds	r3, r7, r3
    390a:	1c32      	adds	r2, r6, #0
    390c:	701a      	strb	r2, [r3, #0]
    390e:	2322      	movs	r3, #34	; 0x22
    3910:	18fb      	adds	r3, r7, r3
    3912:	1c02      	adds	r2, r0, #0
    3914:	701a      	strb	r2, [r3, #0]
    3916:	2321      	movs	r3, #33	; 0x21
    3918:	18fb      	adds	r3, r7, r3
    391a:	1c0a      	adds	r2, r1, #0
    391c:	701a      	strb	r2, [r3, #0]
    391e:	466b      	mov	r3, sp
    3920:	607b      	str	r3, [r7, #4]
    3922:	2323      	movs	r3, #35	; 0x23
    3924:	18fb      	adds	r3, r7, r3
    3926:	781b      	ldrb	r3, [r3, #0]
    3928:	3302      	adds	r3, #2
    392a:	1e5a      	subs	r2, r3, #1
    392c:	63fa      	str	r2, [r7, #60]	; 0x3c
    392e:	001a      	movs	r2, r3
    3930:	613a      	str	r2, [r7, #16]
    3932:	2200      	movs	r2, #0
    3934:	617a      	str	r2, [r7, #20]
    3936:	6938      	ldr	r0, [r7, #16]
    3938:	6979      	ldr	r1, [r7, #20]
    393a:	0002      	movs	r2, r0
    393c:	0f52      	lsrs	r2, r2, #29
    393e:	000e      	movs	r6, r1
    3940:	00f6      	lsls	r6, r6, #3
    3942:	61fe      	str	r6, [r7, #28]
    3944:	69fe      	ldr	r6, [r7, #28]
    3946:	4316      	orrs	r6, r2
    3948:	61fe      	str	r6, [r7, #28]
    394a:	0002      	movs	r2, r0
    394c:	00d2      	lsls	r2, r2, #3
    394e:	61ba      	str	r2, [r7, #24]
    3950:	001a      	movs	r2, r3
    3952:	60ba      	str	r2, [r7, #8]
    3954:	2200      	movs	r2, #0
    3956:	60fa      	str	r2, [r7, #12]
    3958:	68b8      	ldr	r0, [r7, #8]
    395a:	68f9      	ldr	r1, [r7, #12]
    395c:	0002      	movs	r2, r0
    395e:	0f52      	lsrs	r2, r2, #29
    3960:	000e      	movs	r6, r1
    3962:	00f5      	lsls	r5, r6, #3
    3964:	4315      	orrs	r5, r2
    3966:	0002      	movs	r2, r0
    3968:	00d4      	lsls	r4, r2, #3
    396a:	3307      	adds	r3, #7
    396c:	08db      	lsrs	r3, r3, #3
    396e:	00db      	lsls	r3, r3, #3
    3970:	466a      	mov	r2, sp
    3972:	1ad3      	subs	r3, r2, r3
    3974:	469d      	mov	sp, r3
    3976:	466b      	mov	r3, sp
    3978:	3300      	adds	r3, #0
    397a:	63bb      	str	r3, [r7, #56]	; 0x38
    397c:	6bbb      	ldr	r3, [r7, #56]	; 0x38
    397e:	2221      	movs	r2, #33	; 0x21
    3980:	18ba      	adds	r2, r7, r2
    3982:	7812      	ldrb	r2, [r2, #0]
    3984:	701a      	strb	r2, [r3, #0]
    3986:	6bbb      	ldr	r3, [r7, #56]	; 0x38
    3988:	1c58      	adds	r0, r3, #1
    398a:	2323      	movs	r3, #35	; 0x23
    398c:	18fb      	adds	r3, r7, r3
    398e:	781a      	ldrb	r2, [r3, #0]
    3990:	6a7b      	ldr	r3, [r7, #36]	; 0x24
    3992:	0019      	movs	r1, r3
    3994:	4b21      	ldr	r3, [pc, #132]	; (3a1c <i2c_write_bytes+0x124>)
    3996:	4798      	blx	r3
    3998:	2322      	movs	r3, #34	; 0x22
    399a:	18fb      	adds	r3, r7, r3
    399c:	781b      	ldrb	r3, [r3, #0]
    399e:	b29a      	uxth	r2, r3
    39a0:	230c      	movs	r3, #12
    39a2:	2120      	movs	r1, #32
    39a4:	468c      	mov	ip, r1
    39a6:	44bc      	add	ip, r7
    39a8:	4463      	add	r3, ip
    39aa:	801a      	strh	r2, [r3, #0]
    39ac:	6bba      	ldr	r2, [r7, #56]	; 0x38
    39ae:	230c      	movs	r3, #12
    39b0:	2120      	movs	r1, #32
    39b2:	468c      	mov	ip, r1
    39b4:	44bc      	add	ip, r7
    39b6:	4463      	add	r3, ip
    39b8:	605a      	str	r2, [r3, #4]
    39ba:	2323      	movs	r3, #35	; 0x23
    39bc:	18fb      	adds	r3, r7, r3
    39be:	781b      	ldrb	r3, [r3, #0]
    39c0:	b29b      	uxth	r3, r3
    39c2:	3301      	adds	r3, #1
    39c4:	b29a      	uxth	r2, r3
    39c6:	230c      	movs	r3, #12
    39c8:	2120      	movs	r1, #32
    39ca:	468c      	mov	ip, r1
    39cc:	44bc      	add	ip, r7
    39ce:	4463      	add	r3, ip
    39d0:	805a      	strh	r2, [r3, #2]
    39d2:	230c      	movs	r3, #12
    39d4:	2220      	movs	r2, #32
    39d6:	4694      	mov	ip, r2
    39d8:	44bc      	add	ip, r7
    39da:	4463      	add	r3, ip
    39dc:	2200      	movs	r2, #0
    39de:	725a      	strb	r2, [r3, #9]
    39e0:	230c      	movs	r3, #12
    39e2:	2220      	movs	r2, #32
    39e4:	4694      	mov	ip, r2
    39e6:	44bc      	add	ip, r7
    39e8:	4463      	add	r3, ip
    39ea:	2200      	movs	r2, #0
    39ec:	729a      	strb	r2, [r3, #10]
    39ee:	230c      	movs	r3, #12
    39f0:	2220      	movs	r2, #32
    39f2:	4694      	mov	ip, r2
    39f4:	44bc      	add	ip, r7
    39f6:	4463      	add	r3, ip
    39f8:	2200      	movs	r2, #0
    39fa:	721a      	strb	r2, [r3, #8]
    39fc:	230c      	movs	r3, #12
    39fe:	2220      	movs	r2, #32
    3a00:	18ba      	adds	r2, r7, r2
    3a02:	18d2      	adds	r2, r2, r3
    3a04:	4b06      	ldr	r3, [pc, #24]	; (3a20 <i2c_write_bytes+0x128>)
    3a06:	0011      	movs	r1, r2
    3a08:	0018      	movs	r0, r3
    3a0a:	4b06      	ldr	r3, [pc, #24]	; (3a24 <i2c_write_bytes+0x12c>)
    3a0c:	4798      	blx	r3
    3a0e:	687b      	ldr	r3, [r7, #4]
    3a10:	469d      	mov	sp, r3
    3a12:	46c0      	nop			; (mov r8, r8)
    3a14:	46bd      	mov	sp, r7
    3a16:	b011      	add	sp, #68	; 0x44
    3a18:	bdf0      	pop	{r4, r5, r6, r7, pc}
    3a1a:	46c0      	nop			; (mov r8, r8)
    3a1c:	00007299 	.word	0x00007299
    3a20:	20000154 	.word	0x20000154
    3a24:	0000208d 	.word	0x0000208d

00003a28 <i2c_read_bytes>:
    3a28:	b590      	push	{r4, r7, lr}
    3a2a:	b089      	sub	sp, #36	; 0x24
    3a2c:	af00      	add	r7, sp, #0
    3a2e:	6078      	str	r0, [r7, #4]
    3a30:	000c      	movs	r4, r1
    3a32:	0010      	movs	r0, r2
    3a34:	0019      	movs	r1, r3
    3a36:	1cfb      	adds	r3, r7, #3
    3a38:	1c22      	adds	r2, r4, #0
    3a3a:	701a      	strb	r2, [r3, #0]
    3a3c:	1cbb      	adds	r3, r7, #2
    3a3e:	1c02      	adds	r2, r0, #0
    3a40:	701a      	strb	r2, [r3, #0]
    3a42:	1c7b      	adds	r3, r7, #1
    3a44:	1c0a      	adds	r2, r1, #0
    3a46:	701a      	strb	r2, [r3, #0]
    3a48:	1cbb      	adds	r3, r7, #2
    3a4a:	781b      	ldrb	r3, [r3, #0]
    3a4c:	b29a      	uxth	r2, r3
    3a4e:	2314      	movs	r3, #20
    3a50:	18fb      	adds	r3, r7, r3
    3a52:	801a      	strh	r2, [r3, #0]
    3a54:	2314      	movs	r3, #20
    3a56:	18fb      	adds	r3, r7, r3
    3a58:	1c7a      	adds	r2, r7, #1
    3a5a:	605a      	str	r2, [r3, #4]
    3a5c:	2314      	movs	r3, #20
    3a5e:	18fb      	adds	r3, r7, r3
    3a60:	2201      	movs	r2, #1
    3a62:	805a      	strh	r2, [r3, #2]
    3a64:	2314      	movs	r3, #20
    3a66:	18fb      	adds	r3, r7, r3
    3a68:	2200      	movs	r2, #0
    3a6a:	725a      	strb	r2, [r3, #9]
    3a6c:	2314      	movs	r3, #20
    3a6e:	18fb      	adds	r3, r7, r3
    3a70:	2200      	movs	r2, #0
    3a72:	729a      	strb	r2, [r3, #10]
    3a74:	2314      	movs	r3, #20
    3a76:	18fb      	adds	r3, r7, r3
    3a78:	2200      	movs	r2, #0
    3a7a:	721a      	strb	r2, [r3, #8]
    3a7c:	2314      	movs	r3, #20
    3a7e:	18fa      	adds	r2, r7, r3
    3a80:	4b15      	ldr	r3, [pc, #84]	; (3ad8 <i2c_read_bytes+0xb0>)
    3a82:	0011      	movs	r1, r2
    3a84:	0018      	movs	r0, r3
    3a86:	4b15      	ldr	r3, [pc, #84]	; (3adc <i2c_read_bytes+0xb4>)
    3a88:	4798      	blx	r3
    3a8a:	1cbb      	adds	r3, r7, #2
    3a8c:	781b      	ldrb	r3, [r3, #0]
    3a8e:	b29a      	uxth	r2, r3
    3a90:	2308      	movs	r3, #8
    3a92:	18fb      	adds	r3, r7, r3
    3a94:	801a      	strh	r2, [r3, #0]
    3a96:	2308      	movs	r3, #8
    3a98:	18fb      	adds	r3, r7, r3
    3a9a:	687a      	ldr	r2, [r7, #4]
    3a9c:	605a      	str	r2, [r3, #4]
    3a9e:	1cfb      	adds	r3, r7, #3
    3aa0:	781b      	ldrb	r3, [r3, #0]
    3aa2:	b29a      	uxth	r2, r3
    3aa4:	2308      	movs	r3, #8
    3aa6:	18fb      	adds	r3, r7, r3
    3aa8:	805a      	strh	r2, [r3, #2]
    3aaa:	2308      	movs	r3, #8
    3aac:	18fb      	adds	r3, r7, r3
    3aae:	2200      	movs	r2, #0
    3ab0:	725a      	strb	r2, [r3, #9]
    3ab2:	2308      	movs	r3, #8
    3ab4:	18fb      	adds	r3, r7, r3
    3ab6:	2200      	movs	r2, #0
    3ab8:	729a      	strb	r2, [r3, #10]
    3aba:	2308      	movs	r3, #8
    3abc:	18fb      	adds	r3, r7, r3
    3abe:	2200      	movs	r2, #0
    3ac0:	721a      	strb	r2, [r3, #8]
    3ac2:	2308      	movs	r3, #8
    3ac4:	18fa      	adds	r2, r7, r3
    3ac6:	4b04      	ldr	r3, [pc, #16]	; (3ad8 <i2c_read_bytes+0xb0>)
    3ac8:	0011      	movs	r1, r2
    3aca:	0018      	movs	r0, r3
    3acc:	4b04      	ldr	r3, [pc, #16]	; (3ae0 <i2c_read_bytes+0xb8>)
    3ace:	4798      	blx	r3
    3ad0:	46c0      	nop			; (mov r8, r8)
    3ad2:	46bd      	mov	sp, r7
    3ad4:	b009      	add	sp, #36	; 0x24
    3ad6:	bd90      	pop	{r4, r7, pc}
    3ad8:	20000154 	.word	0x20000154
    3adc:	0000208d 	.word	0x0000208d
    3ae0:	00001ee5 	.word	0x00001ee5

00003ae4 <init_lis3dh>:
    3ae4:	b590      	push	{r4, r7, lr}
    3ae6:	b083      	sub	sp, #12
    3ae8:	af00      	add	r7, sp, #0
    3aea:	1dfb      	adds	r3, r7, #7
    3aec:	2200      	movs	r2, #0
    3aee:	701a      	strb	r2, [r3, #0]
    3af0:	1df8      	adds	r0, r7, #7
    3af2:	230f      	movs	r3, #15
    3af4:	2219      	movs	r2, #25
    3af6:	2101      	movs	r1, #1
    3af8:	4c0e      	ldr	r4, [pc, #56]	; (3b34 <init_lis3dh+0x50>)
    3afa:	47a0      	blx	r4
    3afc:	1dfb      	adds	r3, r7, #7
    3afe:	781b      	ldrb	r3, [r3, #0]
    3b00:	2b33      	cmp	r3, #51	; 0x33
    3b02:	d112      	bne.n	3b2a <init_lis3dh+0x46>
    3b04:	1dbb      	adds	r3, r7, #6
    3b06:	224f      	movs	r2, #79	; 0x4f
    3b08:	701a      	strb	r2, [r3, #0]
    3b0a:	1db8      	adds	r0, r7, #6
    3b0c:	2320      	movs	r3, #32
    3b0e:	2219      	movs	r2, #25
    3b10:	2101      	movs	r1, #1
    3b12:	4c09      	ldr	r4, [pc, #36]	; (3b38 <init_lis3dh+0x54>)
    3b14:	47a0      	blx	r4
    3b16:	1dbb      	adds	r3, r7, #6
    3b18:	2210      	movs	r2, #16
    3b1a:	701a      	strb	r2, [r3, #0]
    3b1c:	1db8      	adds	r0, r7, #6
    3b1e:	2323      	movs	r3, #35	; 0x23
    3b20:	2219      	movs	r2, #25
    3b22:	2101      	movs	r1, #1
    3b24:	4c04      	ldr	r4, [pc, #16]	; (3b38 <init_lis3dh+0x54>)
    3b26:	47a0      	blx	r4
    3b28:	e000      	b.n	3b2c <init_lis3dh+0x48>
    3b2a:	46c0      	nop			; (mov r8, r8)
    3b2c:	46bd      	mov	sp, r7
    3b2e:	b003      	add	sp, #12
    3b30:	bd90      	pop	{r4, r7, pc}
    3b32:	46c0      	nop			; (mov r8, r8)
    3b34:	00003a29 	.word	0x00003a29
    3b38:	000038f9 	.word	0x000038f9

00003b3c <read_lis3dh_raw>:
    3b3c:	b590      	push	{r4, r7, lr}
    3b3e:	b085      	sub	sp, #20
    3b40:	af00      	add	r7, sp, #0
    3b42:	6078      	str	r0, [r7, #4]
    3b44:	2308      	movs	r3, #8
    3b46:	18f8      	adds	r0, r7, r3
    3b48:	23a8      	movs	r3, #168	; 0xa8
    3b4a:	2219      	movs	r2, #25
    3b4c:	2106      	movs	r1, #6
    3b4e:	4c1e      	ldr	r4, [pc, #120]	; (3bc8 <read_lis3dh_raw+0x8c>)
    3b50:	47a0      	blx	r4
    3b52:	2308      	movs	r3, #8
    3b54:	18fb      	adds	r3, r7, r3
    3b56:	781b      	ldrb	r3, [r3, #0]
    3b58:	b21a      	sxth	r2, r3
    3b5a:	687b      	ldr	r3, [r7, #4]
    3b5c:	801a      	strh	r2, [r3, #0]
    3b5e:	687b      	ldr	r3, [r7, #4]
    3b60:	2200      	movs	r2, #0
    3b62:	5e9a      	ldrsh	r2, [r3, r2]
    3b64:	2308      	movs	r3, #8
    3b66:	18fb      	adds	r3, r7, r3
    3b68:	785b      	ldrb	r3, [r3, #1]
    3b6a:	021b      	lsls	r3, r3, #8
    3b6c:	b21b      	sxth	r3, r3
    3b6e:	4313      	orrs	r3, r2
    3b70:	b21a      	sxth	r2, r3
    3b72:	687b      	ldr	r3, [r7, #4]
    3b74:	801a      	strh	r2, [r3, #0]
    3b76:	2308      	movs	r3, #8
    3b78:	18fb      	adds	r3, r7, r3
    3b7a:	789b      	ldrb	r3, [r3, #2]
    3b7c:	b21a      	sxth	r2, r3
    3b7e:	687b      	ldr	r3, [r7, #4]
    3b80:	805a      	strh	r2, [r3, #2]
    3b82:	687b      	ldr	r3, [r7, #4]
    3b84:	2202      	movs	r2, #2
    3b86:	5e9a      	ldrsh	r2, [r3, r2]
    3b88:	2308      	movs	r3, #8
    3b8a:	18fb      	adds	r3, r7, r3
    3b8c:	78db      	ldrb	r3, [r3, #3]
    3b8e:	021b      	lsls	r3, r3, #8
    3b90:	b21b      	sxth	r3, r3
    3b92:	4313      	orrs	r3, r2
    3b94:	b21a      	sxth	r2, r3
    3b96:	687b      	ldr	r3, [r7, #4]
    3b98:	805a      	strh	r2, [r3, #2]
    3b9a:	2308      	movs	r3, #8
    3b9c:	18fb      	adds	r3, r7, r3
    3b9e:	791b      	ldrb	r3, [r3, #4]
    3ba0:	b21a      	sxth	r2, r3
    3ba2:	687b      	ldr	r3, [r7, #4]
    3ba4:	809a      	strh	r2, [r3, #4]
    3ba6:	687b      	ldr	r3, [r7, #4]
    3ba8:	2204      	movs	r2, #4
    3baa:	5e9a      	ldrsh	r2, [r3, r2]
    3bac:	2308      	movs	r3, #8
    3bae:	18fb      	adds	r3, r7, r3
    3bb0:	795b      	ldrb	r3, [r3, #5]
    3bb2:	021b      	lsls	r3, r3, #8
    3bb4:	b21b      	sxth	r3, r3
    3bb6:	4313      	orrs	r3, r2
    3bb8:	b21a      	sxth	r2, r3
    3bba:	687b      	ldr	r3, [r7, #4]
    3bbc:	809a      	strh	r2, [r3, #4]
    3bbe:	46c0      	nop			; (mov r8, r8)
    3bc0:	46bd      	mov	sp, r7
    3bc2:	b005      	add	sp, #20
    3bc4:	bd90      	pop	{r4, r7, pc}
    3bc6:	46c0      	nop			; (mov r8, r8)
    3bc8:	00003a29 	.word	0x00003a29

00003bcc <read_lis3dh_g>:
    3bcc:	b590      	push	{r4, r7, lr}
    3bce:	b085      	sub	sp, #20
    3bd0:	af00      	add	r7, sp, #0
    3bd2:	6078      	str	r0, [r7, #4]
    3bd4:	2308      	movs	r3, #8
    3bd6:	18fb      	adds	r3, r7, r3
    3bd8:	0018      	movs	r0, r3
    3bda:	4b24      	ldr	r3, [pc, #144]	; (3c6c <read_lis3dh_g+0xa0>)
    3bdc:	4798      	blx	r3
    3bde:	2308      	movs	r3, #8
    3be0:	18fb      	adds	r3, r7, r3
    3be2:	2200      	movs	r2, #0
    3be4:	5e9a      	ldrsh	r2, [r3, r2]
    3be6:	4b22      	ldr	r3, [pc, #136]	; (3c70 <read_lis3dh_g+0xa4>)
    3be8:	0010      	movs	r0, r2
    3bea:	4798      	blx	r3
    3bec:	4c21      	ldr	r4, [pc, #132]	; (3c74 <read_lis3dh_g+0xa8>)
    3bee:	4a22      	ldr	r2, [pc, #136]	; (3c78 <read_lis3dh_g+0xac>)
    3bf0:	4b22      	ldr	r3, [pc, #136]	; (3c7c <read_lis3dh_g+0xb0>)
    3bf2:	47a0      	blx	r4
    3bf4:	0003      	movs	r3, r0
    3bf6:	000c      	movs	r4, r1
    3bf8:	0019      	movs	r1, r3
    3bfa:	0022      	movs	r2, r4
    3bfc:	4b20      	ldr	r3, [pc, #128]	; (3c80 <read_lis3dh_g+0xb4>)
    3bfe:	0008      	movs	r0, r1
    3c00:	0011      	movs	r1, r2
    3c02:	4798      	blx	r3
    3c04:	1c02      	adds	r2, r0, #0
    3c06:	687b      	ldr	r3, [r7, #4]
    3c08:	601a      	str	r2, [r3, #0]
    3c0a:	2308      	movs	r3, #8
    3c0c:	18fb      	adds	r3, r7, r3
    3c0e:	2202      	movs	r2, #2
    3c10:	5e9a      	ldrsh	r2, [r3, r2]
    3c12:	4b17      	ldr	r3, [pc, #92]	; (3c70 <read_lis3dh_g+0xa4>)
    3c14:	0010      	movs	r0, r2
    3c16:	4798      	blx	r3
    3c18:	4c16      	ldr	r4, [pc, #88]	; (3c74 <read_lis3dh_g+0xa8>)
    3c1a:	4a17      	ldr	r2, [pc, #92]	; (3c78 <read_lis3dh_g+0xac>)
    3c1c:	4b17      	ldr	r3, [pc, #92]	; (3c7c <read_lis3dh_g+0xb0>)
    3c1e:	47a0      	blx	r4
    3c20:	0003      	movs	r3, r0
    3c22:	000c      	movs	r4, r1
    3c24:	0019      	movs	r1, r3
    3c26:	0022      	movs	r2, r4
    3c28:	4b15      	ldr	r3, [pc, #84]	; (3c80 <read_lis3dh_g+0xb4>)
    3c2a:	0008      	movs	r0, r1
    3c2c:	0011      	movs	r1, r2
    3c2e:	4798      	blx	r3
    3c30:	1c02      	adds	r2, r0, #0
    3c32:	687b      	ldr	r3, [r7, #4]
    3c34:	605a      	str	r2, [r3, #4]
    3c36:	2308      	movs	r3, #8
    3c38:	18fb      	adds	r3, r7, r3
    3c3a:	2204      	movs	r2, #4
    3c3c:	5e9a      	ldrsh	r2, [r3, r2]
    3c3e:	4b0c      	ldr	r3, [pc, #48]	; (3c70 <read_lis3dh_g+0xa4>)
    3c40:	0010      	movs	r0, r2
    3c42:	4798      	blx	r3
    3c44:	4c0b      	ldr	r4, [pc, #44]	; (3c74 <read_lis3dh_g+0xa8>)
    3c46:	4a0c      	ldr	r2, [pc, #48]	; (3c78 <read_lis3dh_g+0xac>)
    3c48:	4b0c      	ldr	r3, [pc, #48]	; (3c7c <read_lis3dh_g+0xb0>)
    3c4a:	47a0      	blx	r4
    3c4c:	0003      	movs	r3, r0
    3c4e:	000c      	movs	r4, r1
    3c50:	0019      	movs	r1, r3
    3c52:	0022      	movs	r2, r4
    3c54:	4b0a      	ldr	r3, [pc, #40]	; (3c80 <read_lis3dh_g+0xb4>)
    3c56:	0008      	movs	r0, r1
    3c58:	0011      	movs	r1, r2
    3c5a:	4798      	blx	r3
    3c5c:	1c02      	adds	r2, r0, #0
    3c5e:	687b      	ldr	r3, [r7, #4]
    3c60:	609a      	str	r2, [r3, #8]
    3c62:	46c0      	nop			; (mov r8, r8)
    3c64:	46bd      	mov	sp, r7
    3c66:	b005      	add	sp, #20
    3c68:	bd90      	pop	{r4, r7, pc}
    3c6a:	46c0      	nop			; (mov r8, r8)
    3c6c:	00003b3d 	.word	0x00003b3d
    3c70:	00006e3d 	.word	0x00006e3d
    3c74:	000062a9 	.word	0x000062a9
    3c78:	a19c4774 	.word	0xa19c4774
    3c7c:	3f1ffffa 	.word	0x3f1ffffa
    3c80:	00006f31 	.word	0x00006f31

00003c84 <wdt_clear_early_warning>:
    3c84:	b580      	push	{r7, lr}
    3c86:	b082      	sub	sp, #8
    3c88:	af00      	add	r7, sp, #0
    3c8a:	4b04      	ldr	r3, [pc, #16]	; (3c9c <wdt_clear_early_warning+0x18>)
    3c8c:	607b      	str	r3, [r7, #4]
    3c8e:	687b      	ldr	r3, [r7, #4]
    3c90:	2201      	movs	r2, #1
    3c92:	719a      	strb	r2, [r3, #6]
    3c94:	46c0      	nop			; (mov r8, r8)
    3c96:	46bd      	mov	sp, r7
    3c98:	b002      	add	sp, #8
    3c9a:	bd80      	pop	{r7, pc}
    3c9c:	40001c00 	.word	0x40001c00

00003ca0 <WDT_Handler>:
    3ca0:	b580      	push	{r7, lr}
    3ca2:	af00      	add	r7, sp, #0
    3ca4:	4b05      	ldr	r3, [pc, #20]	; (3cbc <WDT_Handler+0x1c>)
    3ca6:	4798      	blx	r3
    3ca8:	4b05      	ldr	r3, [pc, #20]	; (3cc0 <WDT_Handler+0x20>)
    3caa:	681b      	ldr	r3, [r3, #0]
    3cac:	2b00      	cmp	r3, #0
    3cae:	d002      	beq.n	3cb6 <WDT_Handler+0x16>
    3cb0:	4b03      	ldr	r3, [pc, #12]	; (3cc0 <WDT_Handler+0x20>)
    3cb2:	681b      	ldr	r3, [r3, #0]
    3cb4:	4798      	blx	r3
    3cb6:	46c0      	nop			; (mov r8, r8)
    3cb8:	46bd      	mov	sp, r7
    3cba:	bd80      	pop	{r7, pc}
    3cbc:	00003c85 	.word	0x00003c85
    3cc0:	200001a0 	.word	0x200001a0

00003cc4 <system_gclk_chan_get_config_defaults>:
    3cc4:	b580      	push	{r7, lr}
    3cc6:	b082      	sub	sp, #8
    3cc8:	af00      	add	r7, sp, #0
    3cca:	6078      	str	r0, [r7, #4]
    3ccc:	687b      	ldr	r3, [r7, #4]
    3cce:	2200      	movs	r2, #0
    3cd0:	701a      	strb	r2, [r3, #0]
    3cd2:	46c0      	nop			; (mov r8, r8)
    3cd4:	46bd      	mov	sp, r7
    3cd6:	b002      	add	sp, #8
    3cd8:	bd80      	pop	{r7, pc}
	...

00003cdc <sercom_set_gclk_generator>:
    3cdc:	b580      	push	{r7, lr}
    3cde:	b084      	sub	sp, #16
    3ce0:	af00      	add	r7, sp, #0
    3ce2:	0002      	movs	r2, r0
    3ce4:	1dfb      	adds	r3, r7, #7
    3ce6:	701a      	strb	r2, [r3, #0]
    3ce8:	1dbb      	adds	r3, r7, #6
    3cea:	1c0a      	adds	r2, r1, #0
    3cec:	701a      	strb	r2, [r3, #0]
    3cee:	4b1a      	ldr	r3, [pc, #104]	; (3d58 <sercom_set_gclk_generator+0x7c>)
    3cf0:	781b      	ldrb	r3, [r3, #0]
    3cf2:	2201      	movs	r2, #1
    3cf4:	4053      	eors	r3, r2
    3cf6:	b2db      	uxtb	r3, r3
    3cf8:	2b00      	cmp	r3, #0
    3cfa:	d103      	bne.n	3d04 <sercom_set_gclk_generator+0x28>
    3cfc:	1dbb      	adds	r3, r7, #6
    3cfe:	781b      	ldrb	r3, [r3, #0]
    3d00:	2b00      	cmp	r3, #0
    3d02:	d01b      	beq.n	3d3c <sercom_set_gclk_generator+0x60>
    3d04:	230c      	movs	r3, #12
    3d06:	18fb      	adds	r3, r7, r3
    3d08:	0018      	movs	r0, r3
    3d0a:	4b14      	ldr	r3, [pc, #80]	; (3d5c <sercom_set_gclk_generator+0x80>)
    3d0c:	4798      	blx	r3
    3d0e:	230c      	movs	r3, #12
    3d10:	18fb      	adds	r3, r7, r3
    3d12:	1dfa      	adds	r2, r7, #7
    3d14:	7812      	ldrb	r2, [r2, #0]
    3d16:	701a      	strb	r2, [r3, #0]
    3d18:	230c      	movs	r3, #12
    3d1a:	18fb      	adds	r3, r7, r3
    3d1c:	0019      	movs	r1, r3
    3d1e:	2011      	movs	r0, #17
    3d20:	4b0f      	ldr	r3, [pc, #60]	; (3d60 <sercom_set_gclk_generator+0x84>)
    3d22:	4798      	blx	r3
    3d24:	2011      	movs	r0, #17
    3d26:	4b0f      	ldr	r3, [pc, #60]	; (3d64 <sercom_set_gclk_generator+0x88>)
    3d28:	4798      	blx	r3
    3d2a:	4b0b      	ldr	r3, [pc, #44]	; (3d58 <sercom_set_gclk_generator+0x7c>)
    3d2c:	1dfa      	adds	r2, r7, #7
    3d2e:	7812      	ldrb	r2, [r2, #0]
    3d30:	705a      	strb	r2, [r3, #1]
    3d32:	4b09      	ldr	r3, [pc, #36]	; (3d58 <sercom_set_gclk_generator+0x7c>)
    3d34:	2201      	movs	r2, #1
    3d36:	701a      	strb	r2, [r3, #0]
    3d38:	2300      	movs	r3, #0
    3d3a:	e008      	b.n	3d4e <sercom_set_gclk_generator+0x72>
    3d3c:	4b06      	ldr	r3, [pc, #24]	; (3d58 <sercom_set_gclk_generator+0x7c>)
    3d3e:	785b      	ldrb	r3, [r3, #1]
    3d40:	1dfa      	adds	r2, r7, #7
    3d42:	7812      	ldrb	r2, [r2, #0]
    3d44:	429a      	cmp	r2, r3
    3d46:	d101      	bne.n	3d4c <sercom_set_gclk_generator+0x70>
    3d48:	2300      	movs	r3, #0
    3d4a:	e000      	b.n	3d4e <sercom_set_gclk_generator+0x72>
    3d4c:	231d      	movs	r3, #29
    3d4e:	0018      	movs	r0, r3
    3d50:	46bd      	mov	sp, r7
    3d52:	b004      	add	sp, #16
    3d54:	bd80      	pop	{r7, pc}
    3d56:	46c0      	nop			; (mov r8, r8)
    3d58:	20000160 	.word	0x20000160
    3d5c:	00003cc5 	.word	0x00003cc5
    3d60:	0000484d 	.word	0x0000484d
    3d64:	0000488d 	.word	0x0000488d

00003d68 <_sercom_get_default_pad>:
    3d68:	b580      	push	{r7, lr}
    3d6a:	b082      	sub	sp, #8
    3d6c:	af00      	add	r7, sp, #0
    3d6e:	6078      	str	r0, [r7, #4]
    3d70:	000a      	movs	r2, r1
    3d72:	1cfb      	adds	r3, r7, #3
    3d74:	701a      	strb	r2, [r3, #0]
    3d76:	687b      	ldr	r3, [r7, #4]
    3d78:	4a4e      	ldr	r2, [pc, #312]	; (3eb4 <_sercom_get_default_pad+0x14c>)
    3d7a:	4293      	cmp	r3, r2
    3d7c:	d040      	beq.n	3e00 <_sercom_get_default_pad+0x98>
    3d7e:	4a4d      	ldr	r2, [pc, #308]	; (3eb4 <_sercom_get_default_pad+0x14c>)
    3d80:	4293      	cmp	r3, r2
    3d82:	d807      	bhi.n	3d94 <_sercom_get_default_pad+0x2c>
    3d84:	2284      	movs	r2, #132	; 0x84
    3d86:	05d2      	lsls	r2, r2, #23
    3d88:	4293      	cmp	r3, r2
    3d8a:	d00f      	beq.n	3dac <_sercom_get_default_pad+0x44>
    3d8c:	4a4a      	ldr	r2, [pc, #296]	; (3eb8 <_sercom_get_default_pad+0x150>)
    3d8e:	4293      	cmp	r3, r2
    3d90:	d021      	beq.n	3dd6 <_sercom_get_default_pad+0x6e>
    3d92:	e089      	b.n	3ea8 <_sercom_get_default_pad+0x140>
    3d94:	4a49      	ldr	r2, [pc, #292]	; (3ebc <_sercom_get_default_pad+0x154>)
    3d96:	4293      	cmp	r3, r2
    3d98:	d100      	bne.n	3d9c <_sercom_get_default_pad+0x34>
    3d9a:	e05b      	b.n	3e54 <_sercom_get_default_pad+0xec>
    3d9c:	4a48      	ldr	r2, [pc, #288]	; (3ec0 <_sercom_get_default_pad+0x158>)
    3d9e:	4293      	cmp	r3, r2
    3da0:	d100      	bne.n	3da4 <_sercom_get_default_pad+0x3c>
    3da2:	e06c      	b.n	3e7e <_sercom_get_default_pad+0x116>
    3da4:	4a47      	ldr	r2, [pc, #284]	; (3ec4 <_sercom_get_default_pad+0x15c>)
    3da6:	4293      	cmp	r3, r2
    3da8:	d03f      	beq.n	3e2a <_sercom_get_default_pad+0xc2>
    3daa:	e07d      	b.n	3ea8 <_sercom_get_default_pad+0x140>
    3dac:	1cfb      	adds	r3, r7, #3
    3dae:	781b      	ldrb	r3, [r3, #0]
    3db0:	2b01      	cmp	r3, #1
    3db2:	d00a      	beq.n	3dca <_sercom_get_default_pad+0x62>
    3db4:	dc02      	bgt.n	3dbc <_sercom_get_default_pad+0x54>
    3db6:	2b00      	cmp	r3, #0
    3db8:	d005      	beq.n	3dc6 <_sercom_get_default_pad+0x5e>
    3dba:	e075      	b.n	3ea8 <_sercom_get_default_pad+0x140>
    3dbc:	2b02      	cmp	r3, #2
    3dbe:	d006      	beq.n	3dce <_sercom_get_default_pad+0x66>
    3dc0:	2b03      	cmp	r3, #3
    3dc2:	d006      	beq.n	3dd2 <_sercom_get_default_pad+0x6a>
    3dc4:	e070      	b.n	3ea8 <_sercom_get_default_pad+0x140>
    3dc6:	4b40      	ldr	r3, [pc, #256]	; (3ec8 <_sercom_get_default_pad+0x160>)
    3dc8:	e06f      	b.n	3eaa <_sercom_get_default_pad+0x142>
    3dca:	4b40      	ldr	r3, [pc, #256]	; (3ecc <_sercom_get_default_pad+0x164>)
    3dcc:	e06d      	b.n	3eaa <_sercom_get_default_pad+0x142>
    3dce:	4b40      	ldr	r3, [pc, #256]	; (3ed0 <_sercom_get_default_pad+0x168>)
    3dd0:	e06b      	b.n	3eaa <_sercom_get_default_pad+0x142>
    3dd2:	4b40      	ldr	r3, [pc, #256]	; (3ed4 <_sercom_get_default_pad+0x16c>)
    3dd4:	e069      	b.n	3eaa <_sercom_get_default_pad+0x142>
    3dd6:	1cfb      	adds	r3, r7, #3
    3dd8:	781b      	ldrb	r3, [r3, #0]
    3dda:	2b01      	cmp	r3, #1
    3ddc:	d00a      	beq.n	3df4 <_sercom_get_default_pad+0x8c>
    3dde:	dc02      	bgt.n	3de6 <_sercom_get_default_pad+0x7e>
    3de0:	2b00      	cmp	r3, #0
    3de2:	d005      	beq.n	3df0 <_sercom_get_default_pad+0x88>
    3de4:	e060      	b.n	3ea8 <_sercom_get_default_pad+0x140>
    3de6:	2b02      	cmp	r3, #2
    3de8:	d006      	beq.n	3df8 <_sercom_get_default_pad+0x90>
    3dea:	2b03      	cmp	r3, #3
    3dec:	d006      	beq.n	3dfc <_sercom_get_default_pad+0x94>
    3dee:	e05b      	b.n	3ea8 <_sercom_get_default_pad+0x140>
    3df0:	2303      	movs	r3, #3
    3df2:	e05a      	b.n	3eaa <_sercom_get_default_pad+0x142>
    3df4:	4b38      	ldr	r3, [pc, #224]	; (3ed8 <_sercom_get_default_pad+0x170>)
    3df6:	e058      	b.n	3eaa <_sercom_get_default_pad+0x142>
    3df8:	4b38      	ldr	r3, [pc, #224]	; (3edc <_sercom_get_default_pad+0x174>)
    3dfa:	e056      	b.n	3eaa <_sercom_get_default_pad+0x142>
    3dfc:	4b38      	ldr	r3, [pc, #224]	; (3ee0 <_sercom_get_default_pad+0x178>)
    3dfe:	e054      	b.n	3eaa <_sercom_get_default_pad+0x142>
    3e00:	1cfb      	adds	r3, r7, #3
    3e02:	781b      	ldrb	r3, [r3, #0]
    3e04:	2b01      	cmp	r3, #1
    3e06:	d00a      	beq.n	3e1e <_sercom_get_default_pad+0xb6>
    3e08:	dc02      	bgt.n	3e10 <_sercom_get_default_pad+0xa8>
    3e0a:	2b00      	cmp	r3, #0
    3e0c:	d005      	beq.n	3e1a <_sercom_get_default_pad+0xb2>
    3e0e:	e04b      	b.n	3ea8 <_sercom_get_default_pad+0x140>
    3e10:	2b02      	cmp	r3, #2
    3e12:	d006      	beq.n	3e22 <_sercom_get_default_pad+0xba>
    3e14:	2b03      	cmp	r3, #3
    3e16:	d006      	beq.n	3e26 <_sercom_get_default_pad+0xbe>
    3e18:	e046      	b.n	3ea8 <_sercom_get_default_pad+0x140>
    3e1a:	4b32      	ldr	r3, [pc, #200]	; (3ee4 <_sercom_get_default_pad+0x17c>)
    3e1c:	e045      	b.n	3eaa <_sercom_get_default_pad+0x142>
    3e1e:	4b32      	ldr	r3, [pc, #200]	; (3ee8 <_sercom_get_default_pad+0x180>)
    3e20:	e043      	b.n	3eaa <_sercom_get_default_pad+0x142>
    3e22:	4b32      	ldr	r3, [pc, #200]	; (3eec <_sercom_get_default_pad+0x184>)
    3e24:	e041      	b.n	3eaa <_sercom_get_default_pad+0x142>
    3e26:	4b32      	ldr	r3, [pc, #200]	; (3ef0 <_sercom_get_default_pad+0x188>)
    3e28:	e03f      	b.n	3eaa <_sercom_get_default_pad+0x142>
    3e2a:	1cfb      	adds	r3, r7, #3
    3e2c:	781b      	ldrb	r3, [r3, #0]
    3e2e:	2b01      	cmp	r3, #1
    3e30:	d00a      	beq.n	3e48 <_sercom_get_default_pad+0xe0>
    3e32:	dc02      	bgt.n	3e3a <_sercom_get_default_pad+0xd2>
    3e34:	2b00      	cmp	r3, #0
    3e36:	d005      	beq.n	3e44 <_sercom_get_default_pad+0xdc>
    3e38:	e036      	b.n	3ea8 <_sercom_get_default_pad+0x140>
    3e3a:	2b02      	cmp	r3, #2
    3e3c:	d006      	beq.n	3e4c <_sercom_get_default_pad+0xe4>
    3e3e:	2b03      	cmp	r3, #3
    3e40:	d006      	beq.n	3e50 <_sercom_get_default_pad+0xe8>
    3e42:	e031      	b.n	3ea8 <_sercom_get_default_pad+0x140>
    3e44:	4b2b      	ldr	r3, [pc, #172]	; (3ef4 <_sercom_get_default_pad+0x18c>)
    3e46:	e030      	b.n	3eaa <_sercom_get_default_pad+0x142>
    3e48:	4b2b      	ldr	r3, [pc, #172]	; (3ef8 <_sercom_get_default_pad+0x190>)
    3e4a:	e02e      	b.n	3eaa <_sercom_get_default_pad+0x142>
    3e4c:	4b2b      	ldr	r3, [pc, #172]	; (3efc <_sercom_get_default_pad+0x194>)
    3e4e:	e02c      	b.n	3eaa <_sercom_get_default_pad+0x142>
    3e50:	4b2b      	ldr	r3, [pc, #172]	; (3f00 <_sercom_get_default_pad+0x198>)
    3e52:	e02a      	b.n	3eaa <_sercom_get_default_pad+0x142>
    3e54:	1cfb      	adds	r3, r7, #3
    3e56:	781b      	ldrb	r3, [r3, #0]
    3e58:	2b01      	cmp	r3, #1
    3e5a:	d00a      	beq.n	3e72 <_sercom_get_default_pad+0x10a>
    3e5c:	dc02      	bgt.n	3e64 <_sercom_get_default_pad+0xfc>
    3e5e:	2b00      	cmp	r3, #0
    3e60:	d005      	beq.n	3e6e <_sercom_get_default_pad+0x106>
    3e62:	e021      	b.n	3ea8 <_sercom_get_default_pad+0x140>
    3e64:	2b02      	cmp	r3, #2
    3e66:	d006      	beq.n	3e76 <_sercom_get_default_pad+0x10e>
    3e68:	2b03      	cmp	r3, #3
    3e6a:	d006      	beq.n	3e7a <_sercom_get_default_pad+0x112>
    3e6c:	e01c      	b.n	3ea8 <_sercom_get_default_pad+0x140>
    3e6e:	4b25      	ldr	r3, [pc, #148]	; (3f04 <_sercom_get_default_pad+0x19c>)
    3e70:	e01b      	b.n	3eaa <_sercom_get_default_pad+0x142>
    3e72:	4b25      	ldr	r3, [pc, #148]	; (3f08 <_sercom_get_default_pad+0x1a0>)
    3e74:	e019      	b.n	3eaa <_sercom_get_default_pad+0x142>
    3e76:	4b25      	ldr	r3, [pc, #148]	; (3f0c <_sercom_get_default_pad+0x1a4>)
    3e78:	e017      	b.n	3eaa <_sercom_get_default_pad+0x142>
    3e7a:	4b25      	ldr	r3, [pc, #148]	; (3f10 <_sercom_get_default_pad+0x1a8>)
    3e7c:	e015      	b.n	3eaa <_sercom_get_default_pad+0x142>
    3e7e:	1cfb      	adds	r3, r7, #3
    3e80:	781b      	ldrb	r3, [r3, #0]
    3e82:	2b01      	cmp	r3, #1
    3e84:	d00a      	beq.n	3e9c <_sercom_get_default_pad+0x134>
    3e86:	dc02      	bgt.n	3e8e <_sercom_get_default_pad+0x126>
    3e88:	2b00      	cmp	r3, #0
    3e8a:	d005      	beq.n	3e98 <_sercom_get_default_pad+0x130>
    3e8c:	e00c      	b.n	3ea8 <_sercom_get_default_pad+0x140>
    3e8e:	2b02      	cmp	r3, #2
    3e90:	d006      	beq.n	3ea0 <_sercom_get_default_pad+0x138>
    3e92:	2b03      	cmp	r3, #3
    3e94:	d006      	beq.n	3ea4 <_sercom_get_default_pad+0x13c>
    3e96:	e007      	b.n	3ea8 <_sercom_get_default_pad+0x140>
    3e98:	4b1e      	ldr	r3, [pc, #120]	; (3f14 <_sercom_get_default_pad+0x1ac>)
    3e9a:	e006      	b.n	3eaa <_sercom_get_default_pad+0x142>
    3e9c:	4b1e      	ldr	r3, [pc, #120]	; (3f18 <_sercom_get_default_pad+0x1b0>)
    3e9e:	e004      	b.n	3eaa <_sercom_get_default_pad+0x142>
    3ea0:	4b1e      	ldr	r3, [pc, #120]	; (3f1c <_sercom_get_default_pad+0x1b4>)
    3ea2:	e002      	b.n	3eaa <_sercom_get_default_pad+0x142>
    3ea4:	4b1e      	ldr	r3, [pc, #120]	; (3f20 <_sercom_get_default_pad+0x1b8>)
    3ea6:	e000      	b.n	3eaa <_sercom_get_default_pad+0x142>
    3ea8:	2300      	movs	r3, #0
    3eaa:	0018      	movs	r0, r3
    3eac:	46bd      	mov	sp, r7
    3eae:	b002      	add	sp, #8
    3eb0:	bd80      	pop	{r7, pc}
    3eb2:	46c0      	nop			; (mov r8, r8)
    3eb4:	42000800 	.word	0x42000800
    3eb8:	42000400 	.word	0x42000400
    3ebc:	42001000 	.word	0x42001000
    3ec0:	43000400 	.word	0x43000400
    3ec4:	42000c00 	.word	0x42000c00
    3ec8:	00040003 	.word	0x00040003
    3ecc:	00050003 	.word	0x00050003
    3ed0:	00060003 	.word	0x00060003
    3ed4:	00070003 	.word	0x00070003
    3ed8:	00010003 	.word	0x00010003
    3edc:	001e0003 	.word	0x001e0003
    3ee0:	001f0003 	.word	0x001f0003
    3ee4:	00080003 	.word	0x00080003
    3ee8:	00090003 	.word	0x00090003
    3eec:	000a0003 	.word	0x000a0003
    3ef0:	000b0003 	.word	0x000b0003
    3ef4:	00100003 	.word	0x00100003
    3ef8:	00110003 	.word	0x00110003
    3efc:	00120003 	.word	0x00120003
    3f00:	00130003 	.word	0x00130003
    3f04:	000c0003 	.word	0x000c0003
    3f08:	000d0003 	.word	0x000d0003
    3f0c:	000e0003 	.word	0x000e0003
    3f10:	000f0003 	.word	0x000f0003
    3f14:	00160003 	.word	0x00160003
    3f18:	00170003 	.word	0x00170003
    3f1c:	00180003 	.word	0x00180003
    3f20:	00190003 	.word	0x00190003

00003f24 <_sercom_get_sercom_inst_index>:
    3f24:	b590      	push	{r4, r7, lr}
    3f26:	b08b      	sub	sp, #44	; 0x2c
    3f28:	af00      	add	r7, sp, #0
    3f2a:	6078      	str	r0, [r7, #4]
    3f2c:	230c      	movs	r3, #12
    3f2e:	18fb      	adds	r3, r7, r3
    3f30:	4a0f      	ldr	r2, [pc, #60]	; (3f70 <_sercom_get_sercom_inst_index+0x4c>)
    3f32:	ca13      	ldmia	r2!, {r0, r1, r4}
    3f34:	c313      	stmia	r3!, {r0, r1, r4}
    3f36:	ca13      	ldmia	r2!, {r0, r1, r4}
    3f38:	c313      	stmia	r3!, {r0, r1, r4}
    3f3a:	2300      	movs	r3, #0
    3f3c:	627b      	str	r3, [r7, #36]	; 0x24
    3f3e:	e00e      	b.n	3f5e <_sercom_get_sercom_inst_index+0x3a>
    3f40:	230c      	movs	r3, #12
    3f42:	18fb      	adds	r3, r7, r3
    3f44:	6a7a      	ldr	r2, [r7, #36]	; 0x24
    3f46:	0092      	lsls	r2, r2, #2
    3f48:	58d3      	ldr	r3, [r2, r3]
    3f4a:	001a      	movs	r2, r3
    3f4c:	687b      	ldr	r3, [r7, #4]
    3f4e:	429a      	cmp	r2, r3
    3f50:	d102      	bne.n	3f58 <_sercom_get_sercom_inst_index+0x34>
    3f52:	6a7b      	ldr	r3, [r7, #36]	; 0x24
    3f54:	b2db      	uxtb	r3, r3
    3f56:	e006      	b.n	3f66 <_sercom_get_sercom_inst_index+0x42>
    3f58:	6a7b      	ldr	r3, [r7, #36]	; 0x24
    3f5a:	3301      	adds	r3, #1
    3f5c:	627b      	str	r3, [r7, #36]	; 0x24
    3f5e:	6a7b      	ldr	r3, [r7, #36]	; 0x24
    3f60:	2b05      	cmp	r3, #5
    3f62:	d9ed      	bls.n	3f40 <_sercom_get_sercom_inst_index+0x1c>
    3f64:	2300      	movs	r3, #0
    3f66:	0018      	movs	r0, r3
    3f68:	46bd      	mov	sp, r7
    3f6a:	b00b      	add	sp, #44	; 0x2c
    3f6c:	bd90      	pop	{r4, r7, pc}
    3f6e:	46c0      	nop			; (mov r8, r8)
    3f70:	00007534 	.word	0x00007534

00003f74 <delay_init>:
    3f74:	b580      	push	{r7, lr}
    3f76:	af00      	add	r7, sp, #0
    3f78:	46c0      	nop			; (mov r8, r8)
    3f7a:	46bd      	mov	sp, r7
    3f7c:	bd80      	pop	{r7, pc}

00003f7e <arch_ioport_pin_to_port_id>:
    3f7e:	b580      	push	{r7, lr}
    3f80:	b082      	sub	sp, #8
    3f82:	af00      	add	r7, sp, #0
    3f84:	6078      	str	r0, [r7, #4]
    3f86:	687b      	ldr	r3, [r7, #4]
    3f88:	095b      	lsrs	r3, r3, #5
    3f8a:	0018      	movs	r0, r3
    3f8c:	46bd      	mov	sp, r7
    3f8e:	b002      	add	sp, #8
    3f90:	bd80      	pop	{r7, pc}
	...

00003f94 <arch_ioport_port_to_base>:
    3f94:	b580      	push	{r7, lr}
    3f96:	b082      	sub	sp, #8
    3f98:	af00      	add	r7, sp, #0
    3f9a:	6078      	str	r0, [r7, #4]
    3f9c:	687b      	ldr	r3, [r7, #4]
    3f9e:	01db      	lsls	r3, r3, #7
    3fa0:	4a03      	ldr	r2, [pc, #12]	; (3fb0 <arch_ioport_port_to_base+0x1c>)
    3fa2:	4694      	mov	ip, r2
    3fa4:	4463      	add	r3, ip
    3fa6:	0018      	movs	r0, r3
    3fa8:	46bd      	mov	sp, r7
    3faa:	b002      	add	sp, #8
    3fac:	bd80      	pop	{r7, pc}
    3fae:	46c0      	nop			; (mov r8, r8)
    3fb0:	40002800 	.word	0x40002800

00003fb4 <arch_ioport_pin_to_mask>:
    3fb4:	b580      	push	{r7, lr}
    3fb6:	b082      	sub	sp, #8
    3fb8:	af00      	add	r7, sp, #0
    3fba:	6078      	str	r0, [r7, #4]
    3fbc:	687b      	ldr	r3, [r7, #4]
    3fbe:	221f      	movs	r2, #31
    3fc0:	4013      	ands	r3, r2
    3fc2:	2201      	movs	r2, #1
    3fc4:	409a      	lsls	r2, r3
    3fc6:	0013      	movs	r3, r2
    3fc8:	0018      	movs	r0, r3
    3fca:	46bd      	mov	sp, r7
    3fcc:	b002      	add	sp, #8
    3fce:	bd80      	pop	{r7, pc}

00003fd0 <arch_ioport_set_port_mode>:
    3fd0:	b580      	push	{r7, lr}
    3fd2:	b08a      	sub	sp, #40	; 0x28
    3fd4:	af00      	add	r7, sp, #0
    3fd6:	60f8      	str	r0, [r7, #12]
    3fd8:	60b9      	str	r1, [r7, #8]
    3fda:	607a      	str	r2, [r7, #4]
    3fdc:	68fb      	ldr	r3, [r7, #12]
    3fde:	0018      	movs	r0, r3
    3fe0:	4b2b      	ldr	r3, [pc, #172]	; (4090 <arch_ioport_set_port_mode+0xc0>)
    3fe2:	4798      	blx	r3
    3fe4:	0003      	movs	r3, r0
    3fe6:	623b      	str	r3, [r7, #32]
    3fe8:	2300      	movs	r3, #0
    3fea:	627b      	str	r3, [r7, #36]	; 0x24
    3fec:	2300      	movs	r3, #0
    3fee:	61fb      	str	r3, [r7, #28]
    3ff0:	6a7b      	ldr	r3, [r7, #36]	; 0x24
    3ff2:	2280      	movs	r2, #128	; 0x80
    3ff4:	0292      	lsls	r2, r2, #10
    3ff6:	4313      	orrs	r3, r2
    3ff8:	627b      	str	r3, [r7, #36]	; 0x24
    3ffa:	687b      	ldr	r3, [r7, #4]
    3ffc:	2220      	movs	r2, #32
    3ffe:	4013      	ands	r3, r2
    4000:	d103      	bne.n	400a <arch_ioport_set_port_mode+0x3a>
    4002:	687b      	ldr	r3, [r7, #4]
    4004:	2210      	movs	r2, #16
    4006:	4013      	ands	r3, r2
    4008:	d004      	beq.n	4014 <arch_ioport_set_port_mode+0x44>
    400a:	6a7b      	ldr	r3, [r7, #36]	; 0x24
    400c:	2280      	movs	r2, #128	; 0x80
    400e:	02d2      	lsls	r2, r2, #11
    4010:	4313      	orrs	r3, r2
    4012:	627b      	str	r3, [r7, #36]	; 0x24
    4014:	687b      	ldr	r3, [r7, #4]
    4016:	2280      	movs	r2, #128	; 0x80
    4018:	4013      	ands	r3, r2
    401a:	d004      	beq.n	4026 <arch_ioport_set_port_mode+0x56>
    401c:	6a7b      	ldr	r3, [r7, #36]	; 0x24
    401e:	2280      	movs	r2, #128	; 0x80
    4020:	03d2      	lsls	r2, r2, #15
    4022:	4313      	orrs	r3, r2
    4024:	627b      	str	r3, [r7, #36]	; 0x24
    4026:	687b      	ldr	r3, [r7, #4]
    4028:	061a      	lsls	r2, r3, #24
    402a:	23f0      	movs	r3, #240	; 0xf0
    402c:	051b      	lsls	r3, r3, #20
    402e:	4013      	ands	r3, r2
    4030:	61fb      	str	r3, [r7, #28]
    4032:	68bb      	ldr	r3, [r7, #8]
    4034:	041b      	lsls	r3, r3, #16
    4036:	0c1b      	lsrs	r3, r3, #16
    4038:	61bb      	str	r3, [r7, #24]
    403a:	68bb      	ldr	r3, [r7, #8]
    403c:	0c1b      	lsrs	r3, r3, #16
    403e:	617b      	str	r3, [r7, #20]
    4040:	69ba      	ldr	r2, [r7, #24]
    4042:	6a7b      	ldr	r3, [r7, #36]	; 0x24
    4044:	431a      	orrs	r2, r3
    4046:	69fb      	ldr	r3, [r7, #28]
    4048:	4313      	orrs	r3, r2
    404a:	22a0      	movs	r2, #160	; 0xa0
    404c:	05d2      	lsls	r2, r2, #23
    404e:	431a      	orrs	r2, r3
    4050:	6a3b      	ldr	r3, [r7, #32]
    4052:	629a      	str	r2, [r3, #40]	; 0x28
    4054:	697a      	ldr	r2, [r7, #20]
    4056:	6a7b      	ldr	r3, [r7, #36]	; 0x24
    4058:	431a      	orrs	r2, r3
    405a:	69fb      	ldr	r3, [r7, #28]
    405c:	4313      	orrs	r3, r2
    405e:	22d0      	movs	r2, #208	; 0xd0
    4060:	0612      	lsls	r2, r2, #24
    4062:	431a      	orrs	r2, r3
    4064:	6a3b      	ldr	r3, [r7, #32]
    4066:	629a      	str	r2, [r3, #40]	; 0x28
    4068:	687b      	ldr	r3, [r7, #4]
    406a:	2220      	movs	r2, #32
    406c:	4013      	ands	r3, r2
    406e:	d003      	beq.n	4078 <arch_ioport_set_port_mode+0xa8>
    4070:	6a3b      	ldr	r3, [r7, #32]
    4072:	68ba      	ldr	r2, [r7, #8]
    4074:	615a      	str	r2, [r3, #20]
    4076:	e006      	b.n	4086 <arch_ioport_set_port_mode+0xb6>
    4078:	687b      	ldr	r3, [r7, #4]
    407a:	2210      	movs	r2, #16
    407c:	4013      	ands	r3, r2
    407e:	d002      	beq.n	4086 <arch_ioport_set_port_mode+0xb6>
    4080:	6a3b      	ldr	r3, [r7, #32]
    4082:	68ba      	ldr	r2, [r7, #8]
    4084:	619a      	str	r2, [r3, #24]
    4086:	46c0      	nop			; (mov r8, r8)
    4088:	46bd      	mov	sp, r7
    408a:	b00a      	add	sp, #40	; 0x28
    408c:	bd80      	pop	{r7, pc}
    408e:	46c0      	nop			; (mov r8, r8)
    4090:	00003f95 	.word	0x00003f95

00004094 <arch_ioport_set_pin_mode>:
    4094:	b590      	push	{r4, r7, lr}
    4096:	b083      	sub	sp, #12
    4098:	af00      	add	r7, sp, #0
    409a:	6078      	str	r0, [r7, #4]
    409c:	6039      	str	r1, [r7, #0]
    409e:	687b      	ldr	r3, [r7, #4]
    40a0:	0018      	movs	r0, r3
    40a2:	4b08      	ldr	r3, [pc, #32]	; (40c4 <arch_ioport_set_pin_mode+0x30>)
    40a4:	4798      	blx	r3
    40a6:	0004      	movs	r4, r0
    40a8:	687b      	ldr	r3, [r7, #4]
    40aa:	0018      	movs	r0, r3
    40ac:	4b06      	ldr	r3, [pc, #24]	; (40c8 <arch_ioport_set_pin_mode+0x34>)
    40ae:	4798      	blx	r3
    40b0:	0001      	movs	r1, r0
    40b2:	683b      	ldr	r3, [r7, #0]
    40b4:	001a      	movs	r2, r3
    40b6:	0020      	movs	r0, r4
    40b8:	4b04      	ldr	r3, [pc, #16]	; (40cc <arch_ioport_set_pin_mode+0x38>)
    40ba:	4798      	blx	r3
    40bc:	46c0      	nop			; (mov r8, r8)
    40be:	46bd      	mov	sp, r7
    40c0:	b003      	add	sp, #12
    40c2:	bd90      	pop	{r4, r7, pc}
    40c4:	00003f7f 	.word	0x00003f7f
    40c8:	00003fb5 	.word	0x00003fb5
    40cc:	00003fd1 	.word	0x00003fd1

000040d0 <ioport_set_pin_mode>:
    40d0:	b580      	push	{r7, lr}
    40d2:	b082      	sub	sp, #8
    40d4:	af00      	add	r7, sp, #0
    40d6:	6078      	str	r0, [r7, #4]
    40d8:	6039      	str	r1, [r7, #0]
    40da:	683a      	ldr	r2, [r7, #0]
    40dc:	687b      	ldr	r3, [r7, #4]
    40de:	0011      	movs	r1, r2
    40e0:	0018      	movs	r0, r3
    40e2:	4b03      	ldr	r3, [pc, #12]	; (40f0 <ioport_set_pin_mode+0x20>)
    40e4:	4798      	blx	r3
    40e6:	46c0      	nop			; (mov r8, r8)
    40e8:	46bd      	mov	sp, r7
    40ea:	b002      	add	sp, #8
    40ec:	bd80      	pop	{r7, pc}
    40ee:	46c0      	nop			; (mov r8, r8)
    40f0:	00004095 	.word	0x00004095

000040f4 <system_board_init>:
    40f4:	b580      	push	{r7, lr}
    40f6:	af00      	add	r7, sp, #0
    40f8:	2102      	movs	r1, #2
    40fa:	2016      	movs	r0, #22
    40fc:	4b12      	ldr	r3, [pc, #72]	; (4148 <system_board_init+0x54>)
    40fe:	4798      	blx	r3
    4100:	2102      	movs	r1, #2
    4102:	2017      	movs	r0, #23
    4104:	4b10      	ldr	r3, [pc, #64]	; (4148 <system_board_init+0x54>)
    4106:	4798      	blx	r3
    4108:	2101      	movs	r1, #1
    410a:	2002      	movs	r0, #2
    410c:	4b0e      	ldr	r3, [pc, #56]	; (4148 <system_board_init+0x54>)
    410e:	4798      	blx	r3
    4110:	2101      	movs	r1, #1
    4112:	2028      	movs	r0, #40	; 0x28
    4114:	4b0c      	ldr	r3, [pc, #48]	; (4148 <system_board_init+0x54>)
    4116:	4798      	blx	r3
    4118:	2101      	movs	r1, #1
    411a:	2029      	movs	r0, #41	; 0x29
    411c:	4b0a      	ldr	r3, [pc, #40]	; (4148 <system_board_init+0x54>)
    411e:	4798      	blx	r3
    4120:	2101      	movs	r1, #1
    4122:	2004      	movs	r0, #4
    4124:	4b08      	ldr	r3, [pc, #32]	; (4148 <system_board_init+0x54>)
    4126:	4798      	blx	r3
    4128:	2101      	movs	r1, #1
    412a:	2005      	movs	r0, #5
    412c:	4b06      	ldr	r3, [pc, #24]	; (4148 <system_board_init+0x54>)
    412e:	4798      	blx	r3
    4130:	2101      	movs	r1, #1
    4132:	2022      	movs	r0, #34	; 0x22
    4134:	4b04      	ldr	r3, [pc, #16]	; (4148 <system_board_init+0x54>)
    4136:	4798      	blx	r3
    4138:	2104      	movs	r1, #4
    413a:	2014      	movs	r0, #20
    413c:	4b02      	ldr	r3, [pc, #8]	; (4148 <system_board_init+0x54>)
    413e:	4798      	blx	r3
    4140:	46c0      	nop			; (mov r8, r8)
    4142:	46bd      	mov	sp, r7
    4144:	bd80      	pop	{r7, pc}
    4146:	46c0      	nop			; (mov r8, r8)
    4148:	000040d1 	.word	0x000040d1

0000414c <cpu_irq_enter_critical>:
    414c:	b580      	push	{r7, lr}
    414e:	b082      	sub	sp, #8
    4150:	af00      	add	r7, sp, #0
    4152:	4b10      	ldr	r3, [pc, #64]	; (4194 <cpu_irq_enter_critical+0x48>)
    4154:	681b      	ldr	r3, [r3, #0]
    4156:	2b00      	cmp	r3, #0
    4158:	d112      	bne.n	4180 <cpu_irq_enter_critical+0x34>
    415a:	f3ef 8310 	mrs	r3, PRIMASK
    415e:	607b      	str	r3, [r7, #4]
    4160:	687b      	ldr	r3, [r7, #4]
    4162:	2b00      	cmp	r3, #0
    4164:	d109      	bne.n	417a <cpu_irq_enter_critical+0x2e>
    4166:	b672      	cpsid	i
    4168:	f3bf 8f5f 	dmb	sy
    416c:	4b0a      	ldr	r3, [pc, #40]	; (4198 <cpu_irq_enter_critical+0x4c>)
    416e:	2200      	movs	r2, #0
    4170:	701a      	strb	r2, [r3, #0]
    4172:	4b0a      	ldr	r3, [pc, #40]	; (419c <cpu_irq_enter_critical+0x50>)
    4174:	2201      	movs	r2, #1
    4176:	701a      	strb	r2, [r3, #0]
    4178:	e002      	b.n	4180 <cpu_irq_enter_critical+0x34>
    417a:	4b08      	ldr	r3, [pc, #32]	; (419c <cpu_irq_enter_critical+0x50>)
    417c:	2200      	movs	r2, #0
    417e:	701a      	strb	r2, [r3, #0]
    4180:	4b04      	ldr	r3, [pc, #16]	; (4194 <cpu_irq_enter_critical+0x48>)
    4182:	681b      	ldr	r3, [r3, #0]
    4184:	1c5a      	adds	r2, r3, #1
    4186:	4b03      	ldr	r3, [pc, #12]	; (4194 <cpu_irq_enter_critical+0x48>)
    4188:	601a      	str	r2, [r3, #0]
    418a:	46c0      	nop			; (mov r8, r8)
    418c:	46bd      	mov	sp, r7
    418e:	b002      	add	sp, #8
    4190:	bd80      	pop	{r7, pc}
    4192:	46c0      	nop			; (mov r8, r8)
    4194:	20000164 	.word	0x20000164
    4198:	2000000c 	.word	0x2000000c
    419c:	20000168 	.word	0x20000168

000041a0 <cpu_irq_leave_critical>:
    41a0:	b580      	push	{r7, lr}
    41a2:	af00      	add	r7, sp, #0
    41a4:	4b0b      	ldr	r3, [pc, #44]	; (41d4 <cpu_irq_leave_critical+0x34>)
    41a6:	681b      	ldr	r3, [r3, #0]
    41a8:	1e5a      	subs	r2, r3, #1
    41aa:	4b0a      	ldr	r3, [pc, #40]	; (41d4 <cpu_irq_leave_critical+0x34>)
    41ac:	601a      	str	r2, [r3, #0]
    41ae:	4b09      	ldr	r3, [pc, #36]	; (41d4 <cpu_irq_leave_critical+0x34>)
    41b0:	681b      	ldr	r3, [r3, #0]
    41b2:	2b00      	cmp	r3, #0
    41b4:	d10a      	bne.n	41cc <cpu_irq_leave_critical+0x2c>
    41b6:	4b08      	ldr	r3, [pc, #32]	; (41d8 <cpu_irq_leave_critical+0x38>)
    41b8:	781b      	ldrb	r3, [r3, #0]
    41ba:	b2db      	uxtb	r3, r3
    41bc:	2b00      	cmp	r3, #0
    41be:	d005      	beq.n	41cc <cpu_irq_leave_critical+0x2c>
    41c0:	4b06      	ldr	r3, [pc, #24]	; (41dc <cpu_irq_leave_critical+0x3c>)
    41c2:	2201      	movs	r2, #1
    41c4:	701a      	strb	r2, [r3, #0]
    41c6:	f3bf 8f5f 	dmb	sy
    41ca:	b662      	cpsie	i
    41cc:	46c0      	nop			; (mov r8, r8)
    41ce:	46bd      	mov	sp, r7
    41d0:	bd80      	pop	{r7, pc}
    41d2:	46c0      	nop			; (mov r8, r8)
    41d4:	20000164 	.word	0x20000164
    41d8:	20000168 	.word	0x20000168
    41dc:	2000000c 	.word	0x2000000c

000041e0 <system_gclk_gen_get_config_defaults>:
    41e0:	b580      	push	{r7, lr}
    41e2:	b082      	sub	sp, #8
    41e4:	af00      	add	r7, sp, #0
    41e6:	6078      	str	r0, [r7, #4]
    41e8:	687b      	ldr	r3, [r7, #4]
    41ea:	2201      	movs	r2, #1
    41ec:	605a      	str	r2, [r3, #4]
    41ee:	687b      	ldr	r3, [r7, #4]
    41f0:	2200      	movs	r2, #0
    41f2:	705a      	strb	r2, [r3, #1]
    41f4:	687b      	ldr	r3, [r7, #4]
    41f6:	2206      	movs	r2, #6
    41f8:	701a      	strb	r2, [r3, #0]
    41fa:	687b      	ldr	r3, [r7, #4]
    41fc:	2200      	movs	r2, #0
    41fe:	721a      	strb	r2, [r3, #8]
    4200:	687b      	ldr	r3, [r7, #4]
    4202:	2200      	movs	r2, #0
    4204:	725a      	strb	r2, [r3, #9]
    4206:	46c0      	nop			; (mov r8, r8)
    4208:	46bd      	mov	sp, r7
    420a:	b002      	add	sp, #8
    420c:	bd80      	pop	{r7, pc}

0000420e <system_main_clock_set_failure_detect>:
    420e:	b580      	push	{r7, lr}
    4210:	b082      	sub	sp, #8
    4212:	af00      	add	r7, sp, #0
    4214:	0002      	movs	r2, r0
    4216:	1dfb      	adds	r3, r7, #7
    4218:	701a      	strb	r2, [r3, #0]
    421a:	46c0      	nop			; (mov r8, r8)
    421c:	46bd      	mov	sp, r7
    421e:	b002      	add	sp, #8
    4220:	bd80      	pop	{r7, pc}
	...

00004224 <system_cpu_clock_set_divider>:
    4224:	b580      	push	{r7, lr}
    4226:	b082      	sub	sp, #8
    4228:	af00      	add	r7, sp, #0
    422a:	0002      	movs	r2, r0
    422c:	1dfb      	adds	r3, r7, #7
    422e:	701a      	strb	r2, [r3, #0]
    4230:	4a05      	ldr	r2, [pc, #20]	; (4248 <system_cpu_clock_set_divider+0x24>)
    4232:	1dfb      	adds	r3, r7, #7
    4234:	781b      	ldrb	r3, [r3, #0]
    4236:	2101      	movs	r1, #1
    4238:	4099      	lsls	r1, r3
    423a:	000b      	movs	r3, r1
    423c:	b2db      	uxtb	r3, r3
    423e:	7113      	strb	r3, [r2, #4]
    4240:	46c0      	nop			; (mov r8, r8)
    4242:	46bd      	mov	sp, r7
    4244:	b002      	add	sp, #8
    4246:	bd80      	pop	{r7, pc}
    4248:	40000400 	.word	0x40000400

0000424c <system_low_power_clock_set_divider>:
    424c:	b580      	push	{r7, lr}
    424e:	b082      	sub	sp, #8
    4250:	af00      	add	r7, sp, #0
    4252:	0002      	movs	r2, r0
    4254:	1dfb      	adds	r3, r7, #7
    4256:	701a      	strb	r2, [r3, #0]
    4258:	4a05      	ldr	r2, [pc, #20]	; (4270 <system_low_power_clock_set_divider+0x24>)
    425a:	1dfb      	adds	r3, r7, #7
    425c:	781b      	ldrb	r3, [r3, #0]
    425e:	2101      	movs	r1, #1
    4260:	4099      	lsls	r1, r3
    4262:	000b      	movs	r3, r1
    4264:	b2db      	uxtb	r3, r3
    4266:	7153      	strb	r3, [r2, #5]
    4268:	46c0      	nop			; (mov r8, r8)
    426a:	46bd      	mov	sp, r7
    426c:	b002      	add	sp, #8
    426e:	bd80      	pop	{r7, pc}
    4270:	40000400 	.word	0x40000400

00004274 <system_backup_clock_set_divider>:
    4274:	b580      	push	{r7, lr}
    4276:	b082      	sub	sp, #8
    4278:	af00      	add	r7, sp, #0
    427a:	0002      	movs	r2, r0
    427c:	1dfb      	adds	r3, r7, #7
    427e:	701a      	strb	r2, [r3, #0]
    4280:	4a05      	ldr	r2, [pc, #20]	; (4298 <system_backup_clock_set_divider+0x24>)
    4282:	1dfb      	adds	r3, r7, #7
    4284:	781b      	ldrb	r3, [r3, #0]
    4286:	2101      	movs	r1, #1
    4288:	4099      	lsls	r1, r3
    428a:	000b      	movs	r3, r1
    428c:	b2db      	uxtb	r3, r3
    428e:	7193      	strb	r3, [r2, #6]
    4290:	46c0      	nop			; (mov r8, r8)
    4292:	46bd      	mov	sp, r7
    4294:	b002      	add	sp, #8
    4296:	bd80      	pop	{r7, pc}
    4298:	40000400 	.word	0x40000400

0000429c <system_cpu_clock_get_hz>:
    429c:	b580      	push	{r7, lr}
    429e:	af00      	add	r7, sp, #0
    42a0:	2000      	movs	r0, #0
    42a2:	4b07      	ldr	r3, [pc, #28]	; (42c0 <system_cpu_clock_get_hz+0x24>)
    42a4:	4798      	blx	r3
    42a6:	0002      	movs	r2, r0
    42a8:	4b06      	ldr	r3, [pc, #24]	; (42c4 <system_cpu_clock_get_hz+0x28>)
    42aa:	791b      	ldrb	r3, [r3, #4]
    42ac:	b2db      	uxtb	r3, r3
    42ae:	0019      	movs	r1, r3
    42b0:	4b05      	ldr	r3, [pc, #20]	; (42c8 <system_cpu_clock_get_hz+0x2c>)
    42b2:	0010      	movs	r0, r2
    42b4:	4798      	blx	r3
    42b6:	0003      	movs	r3, r0
    42b8:	0018      	movs	r0, r3
    42ba:	46bd      	mov	sp, r7
    42bc:	bd80      	pop	{r7, pc}
    42be:	46c0      	nop			; (mov r8, r8)
    42c0:	0000478d 	.word	0x0000478d
    42c4:	40000400 	.word	0x40000400
    42c8:	000050a1 	.word	0x000050a1

000042cc <system_flash_set_waitstates>:
    42cc:	b580      	push	{r7, lr}
    42ce:	b082      	sub	sp, #8
    42d0:	af00      	add	r7, sp, #0
    42d2:	0002      	movs	r2, r0
    42d4:	1dfb      	adds	r3, r7, #7
    42d6:	701a      	strb	r2, [r3, #0]
    42d8:	4a08      	ldr	r2, [pc, #32]	; (42fc <system_flash_set_waitstates+0x30>)
    42da:	1dfb      	adds	r3, r7, #7
    42dc:	781b      	ldrb	r3, [r3, #0]
    42de:	210f      	movs	r1, #15
    42e0:	400b      	ands	r3, r1
    42e2:	b2d9      	uxtb	r1, r3
    42e4:	6853      	ldr	r3, [r2, #4]
    42e6:	200f      	movs	r0, #15
    42e8:	4001      	ands	r1, r0
    42ea:	0049      	lsls	r1, r1, #1
    42ec:	201e      	movs	r0, #30
    42ee:	4383      	bics	r3, r0
    42f0:	430b      	orrs	r3, r1
    42f2:	6053      	str	r3, [r2, #4]
    42f4:	46c0      	nop			; (mov r8, r8)
    42f6:	46bd      	mov	sp, r7
    42f8:	b002      	add	sp, #8
    42fa:	bd80      	pop	{r7, pc}
    42fc:	41004000 	.word	0x41004000

00004300 <system_switch_performance_level>:
    4300:	b580      	push	{r7, lr}
    4302:	b082      	sub	sp, #8
    4304:	af00      	add	r7, sp, #0
    4306:	0002      	movs	r2, r0
    4308:	1dfb      	adds	r3, r7, #7
    430a:	701a      	strb	r2, [r3, #0]
    430c:	2380      	movs	r3, #128	; 0x80
    430e:	05db      	lsls	r3, r3, #23
    4310:	789b      	ldrb	r3, [r3, #2]
    4312:	b2db      	uxtb	r3, r3
    4314:	1dfa      	adds	r2, r7, #7
    4316:	7812      	ldrb	r2, [r2, #0]
    4318:	429a      	cmp	r2, r3
    431a:	d101      	bne.n	4320 <system_switch_performance_level+0x20>
    431c:	2300      	movs	r3, #0
    431e:	e019      	b.n	4354 <system_switch_performance_level+0x54>
    4320:	2380      	movs	r3, #128	; 0x80
    4322:	05db      	lsls	r3, r3, #23
    4324:	789b      	ldrb	r3, [r3, #2]
    4326:	b2db      	uxtb	r3, r3
    4328:	b25b      	sxtb	r3, r3
    432a:	2b00      	cmp	r3, #0
    432c:	da01      	bge.n	4332 <system_switch_performance_level+0x32>
    432e:	2317      	movs	r3, #23
    4330:	e010      	b.n	4354 <system_switch_performance_level+0x54>
    4332:	2380      	movs	r3, #128	; 0x80
    4334:	05db      	lsls	r3, r3, #23
    4336:	2201      	movs	r2, #1
    4338:	719a      	strb	r2, [r3, #6]
    433a:	2380      	movs	r3, #128	; 0x80
    433c:	05db      	lsls	r3, r3, #23
    433e:	1dfa      	adds	r2, r7, #7
    4340:	7812      	ldrb	r2, [r2, #0]
    4342:	709a      	strb	r2, [r3, #2]
    4344:	46c0      	nop			; (mov r8, r8)
    4346:	2380      	movs	r3, #128	; 0x80
    4348:	05db      	lsls	r3, r3, #23
    434a:	799b      	ldrb	r3, [r3, #6]
    434c:	b2db      	uxtb	r3, r3
    434e:	2b00      	cmp	r3, #0
    4350:	d0f9      	beq.n	4346 <system_switch_performance_level+0x46>
    4352:	2300      	movs	r3, #0
    4354:	0018      	movs	r0, r3
    4356:	46bd      	mov	sp, r7
    4358:	b002      	add	sp, #8
    435a:	bd80      	pop	{r7, pc}

0000435c <_system_dfll_wait_for_sync>:
    435c:	b580      	push	{r7, lr}
    435e:	af00      	add	r7, sp, #0
    4360:	46c0      	nop			; (mov r8, r8)
    4362:	4b04      	ldr	r3, [pc, #16]	; (4374 <_system_dfll_wait_for_sync+0x18>)
    4364:	68da      	ldr	r2, [r3, #12]
    4366:	2380      	movs	r3, #128	; 0x80
    4368:	005b      	lsls	r3, r3, #1
    436a:	4013      	ands	r3, r2
    436c:	d0f9      	beq.n	4362 <_system_dfll_wait_for_sync+0x6>
    436e:	46c0      	nop			; (mov r8, r8)
    4370:	46bd      	mov	sp, r7
    4372:	bd80      	pop	{r7, pc}
    4374:	40000c00 	.word	0x40000c00

00004378 <system_clock_source_get_hz>:
    4378:	b580      	push	{r7, lr}
    437a:	b082      	sub	sp, #8
    437c:	af00      	add	r7, sp, #0
    437e:	0002      	movs	r2, r0
    4380:	1dfb      	adds	r3, r7, #7
    4382:	701a      	strb	r2, [r3, #0]
    4384:	1dfb      	adds	r3, r7, #7
    4386:	781b      	ldrb	r3, [r3, #0]
    4388:	2b08      	cmp	r3, #8
    438a:	d842      	bhi.n	4412 <system_clock_source_get_hz+0x9a>
    438c:	009a      	lsls	r2, r3, #2
    438e:	4b23      	ldr	r3, [pc, #140]	; (441c <system_clock_source_get_hz+0xa4>)
    4390:	18d3      	adds	r3, r2, r3
    4392:	681b      	ldr	r3, [r3, #0]
    4394:	469f      	mov	pc, r3
    4396:	4b22      	ldr	r3, [pc, #136]	; (4420 <system_clock_source_get_hz+0xa8>)
    4398:	691b      	ldr	r3, [r3, #16]
    439a:	e03b      	b.n	4414 <system_clock_source_get_hz+0x9c>
    439c:	4b21      	ldr	r3, [pc, #132]	; (4424 <system_clock_source_get_hz+0xac>)
    439e:	7d1b      	ldrb	r3, [r3, #20]
    43a0:	071b      	lsls	r3, r3, #28
    43a2:	0f9b      	lsrs	r3, r3, #30
    43a4:	b2db      	uxtb	r3, r3
    43a6:	3301      	adds	r3, #1
    43a8:	001a      	movs	r2, r3
    43aa:	4b1f      	ldr	r3, [pc, #124]	; (4428 <system_clock_source_get_hz+0xb0>)
    43ac:	4353      	muls	r3, r2
    43ae:	e031      	b.n	4414 <system_clock_source_get_hz+0x9c>
    43b0:	2380      	movs	r3, #128	; 0x80
    43b2:	021b      	lsls	r3, r3, #8
    43b4:	e02e      	b.n	4414 <system_clock_source_get_hz+0x9c>
    43b6:	2380      	movs	r3, #128	; 0x80
    43b8:	021b      	lsls	r3, r3, #8
    43ba:	e02b      	b.n	4414 <system_clock_source_get_hz+0x9c>
    43bc:	4b18      	ldr	r3, [pc, #96]	; (4420 <system_clock_source_get_hz+0xa8>)
    43be:	695b      	ldr	r3, [r3, #20]
    43c0:	e028      	b.n	4414 <system_clock_source_get_hz+0x9c>
    43c2:	4b17      	ldr	r3, [pc, #92]	; (4420 <system_clock_source_get_hz+0xa8>)
    43c4:	681b      	ldr	r3, [r3, #0]
    43c6:	2202      	movs	r2, #2
    43c8:	4013      	ands	r3, r2
    43ca:	d101      	bne.n	43d0 <system_clock_source_get_hz+0x58>
    43cc:	2300      	movs	r3, #0
    43ce:	e021      	b.n	4414 <system_clock_source_get_hz+0x9c>
    43d0:	4b16      	ldr	r3, [pc, #88]	; (442c <system_clock_source_get_hz+0xb4>)
    43d2:	4798      	blx	r3
    43d4:	4b12      	ldr	r3, [pc, #72]	; (4420 <system_clock_source_get_hz+0xa8>)
    43d6:	681b      	ldr	r3, [r3, #0]
    43d8:	2224      	movs	r2, #36	; 0x24
    43da:	4013      	ands	r3, r2
    43dc:	2b04      	cmp	r3, #4
    43de:	d109      	bne.n	43f4 <system_clock_source_get_hz+0x7c>
    43e0:	2000      	movs	r0, #0
    43e2:	4b13      	ldr	r3, [pc, #76]	; (4430 <system_clock_source_get_hz+0xb8>)
    43e4:	4798      	blx	r3
    43e6:	0002      	movs	r2, r0
    43e8:	4b0d      	ldr	r3, [pc, #52]	; (4420 <system_clock_source_get_hz+0xa8>)
    43ea:	689b      	ldr	r3, [r3, #8]
    43ec:	041b      	lsls	r3, r3, #16
    43ee:	0c1b      	lsrs	r3, r3, #16
    43f0:	4353      	muls	r3, r2
    43f2:	e00f      	b.n	4414 <system_clock_source_get_hz+0x9c>
    43f4:	4b0f      	ldr	r3, [pc, #60]	; (4434 <system_clock_source_get_hz+0xbc>)
    43f6:	e00d      	b.n	4414 <system_clock_source_get_hz+0x9c>
    43f8:	4a0a      	ldr	r2, [pc, #40]	; (4424 <system_clock_source_get_hz+0xac>)
    43fa:	2328      	movs	r3, #40	; 0x28
    43fc:	5cd3      	ldrb	r3, [r2, r3]
    43fe:	b2db      	uxtb	r3, r3
    4400:	001a      	movs	r2, r3
    4402:	2302      	movs	r3, #2
    4404:	4013      	ands	r3, r2
    4406:	d101      	bne.n	440c <system_clock_source_get_hz+0x94>
    4408:	2300      	movs	r3, #0
    440a:	e003      	b.n	4414 <system_clock_source_get_hz+0x9c>
    440c:	4b04      	ldr	r3, [pc, #16]	; (4420 <system_clock_source_get_hz+0xa8>)
    440e:	68db      	ldr	r3, [r3, #12]
    4410:	e000      	b.n	4414 <system_clock_source_get_hz+0x9c>
    4412:	2300      	movs	r3, #0
    4414:	0018      	movs	r0, r3
    4416:	46bd      	mov	sp, r7
    4418:	b002      	add	sp, #8
    441a:	bd80      	pop	{r7, pc}
    441c:	0000754c 	.word	0x0000754c
    4420:	2000016c 	.word	0x2000016c
    4424:	40000c00 	.word	0x40000c00
    4428:	003d0900 	.word	0x003d0900
    442c:	0000435d 	.word	0x0000435d
    4430:	0000493d 	.word	0x0000493d
    4434:	02dc6c00 	.word	0x02dc6c00

00004438 <system_clock_init>:
    4438:	b580      	push	{r7, lr}
    443a:	b0a0      	sub	sp, #128	; 0x80
    443c:	af00      	add	r7, sp, #0
    443e:	4b26      	ldr	r3, [pc, #152]	; (44d8 <system_clock_init+0xa0>)
    4440:	2280      	movs	r2, #128	; 0x80
    4442:	0052      	lsls	r2, r2, #1
    4444:	609a      	str	r2, [r3, #8]
    4446:	4b25      	ldr	r3, [pc, #148]	; (44dc <system_clock_init+0xa4>)
    4448:	2203      	movs	r2, #3
    444a:	609a      	str	r2, [r3, #8]
    444c:	2000      	movs	r0, #0
    444e:	4b24      	ldr	r3, [pc, #144]	; (44e0 <system_clock_init+0xa8>)
    4450:	4798      	blx	r3
    4452:	2002      	movs	r0, #2
    4454:	4b23      	ldr	r3, [pc, #140]	; (44e4 <system_clock_init+0xac>)
    4456:	4798      	blx	r3
    4458:	4a1f      	ldr	r2, [pc, #124]	; (44d8 <system_clock_init+0xa0>)
    445a:	7d13      	ldrb	r3, [r2, #20]
    445c:	2180      	movs	r1, #128	; 0x80
    445e:	4249      	negs	r1, r1
    4460:	430b      	orrs	r3, r1
    4462:	7513      	strb	r3, [r2, #20]
    4464:	4a1c      	ldr	r2, [pc, #112]	; (44d8 <system_clock_init+0xa0>)
    4466:	7d13      	ldrb	r3, [r2, #20]
    4468:	2140      	movs	r1, #64	; 0x40
    446a:	438b      	bics	r3, r1
    446c:	7513      	strb	r3, [r2, #20]
    446e:	4b1e      	ldr	r3, [pc, #120]	; (44e8 <system_clock_init+0xb0>)
    4470:	4798      	blx	r3
    4472:	2000      	movs	r0, #0
    4474:	4b1d      	ldr	r3, [pc, #116]	; (44ec <system_clock_init+0xb4>)
    4476:	4798      	blx	r3
    4478:	2000      	movs	r0, #0
    447a:	4b1d      	ldr	r3, [pc, #116]	; (44f0 <system_clock_init+0xb8>)
    447c:	4798      	blx	r3
    447e:	2000      	movs	r0, #0
    4480:	4b1c      	ldr	r3, [pc, #112]	; (44f4 <system_clock_init+0xbc>)
    4482:	4798      	blx	r3
    4484:	2000      	movs	r0, #0
    4486:	4b1c      	ldr	r3, [pc, #112]	; (44f8 <system_clock_init+0xc0>)
    4488:	4798      	blx	r3
    448a:	1d3b      	adds	r3, r7, #4
    448c:	0018      	movs	r0, r3
    448e:	4b1b      	ldr	r3, [pc, #108]	; (44fc <system_clock_init+0xc4>)
    4490:	4798      	blx	r3
    4492:	1d3b      	adds	r3, r7, #4
    4494:	2206      	movs	r2, #6
    4496:	701a      	strb	r2, [r3, #0]
    4498:	1d3b      	adds	r3, r7, #4
    449a:	2201      	movs	r2, #1
    449c:	605a      	str	r2, [r3, #4]
    449e:	1d3b      	adds	r3, r7, #4
    44a0:	2200      	movs	r2, #0
    44a2:	721a      	strb	r2, [r3, #8]
    44a4:	1d3b      	adds	r3, r7, #4
    44a6:	2200      	movs	r2, #0
    44a8:	725a      	strb	r2, [r3, #9]
    44aa:	1d3b      	adds	r3, r7, #4
    44ac:	0019      	movs	r1, r3
    44ae:	2000      	movs	r0, #0
    44b0:	4b13      	ldr	r3, [pc, #76]	; (4500 <system_clock_init+0xc8>)
    44b2:	4798      	blx	r3
    44b4:	2000      	movs	r0, #0
    44b6:	4b13      	ldr	r3, [pc, #76]	; (4504 <system_clock_init+0xcc>)
    44b8:	4798      	blx	r3
    44ba:	4b13      	ldr	r3, [pc, #76]	; (4508 <system_clock_init+0xd0>)
    44bc:	4798      	blx	r3
    44be:	0003      	movs	r3, r0
    44c0:	67fb      	str	r3, [r7, #124]	; 0x7c
    44c2:	6ffb      	ldr	r3, [r7, #124]	; 0x7c
    44c4:	4a11      	ldr	r2, [pc, #68]	; (450c <system_clock_init+0xd4>)
    44c6:	4293      	cmp	r3, r2
    44c8:	d802      	bhi.n	44d0 <system_clock_init+0x98>
    44ca:	2000      	movs	r0, #0
    44cc:	4b05      	ldr	r3, [pc, #20]	; (44e4 <system_clock_init+0xac>)
    44ce:	4798      	blx	r3
    44d0:	46c0      	nop			; (mov r8, r8)
    44d2:	46bd      	mov	sp, r7
    44d4:	b020      	add	sp, #128	; 0x80
    44d6:	bd80      	pop	{r7, pc}
    44d8:	40000c00 	.word	0x40000c00
    44dc:	40001400 	.word	0x40001400
    44e0:	000042cd 	.word	0x000042cd
    44e4:	00004301 	.word	0x00004301
    44e8:	000045f1 	.word	0x000045f1
    44ec:	00004275 	.word	0x00004275
    44f0:	0000424d 	.word	0x0000424d
    44f4:	00004225 	.word	0x00004225
    44f8:	0000420f 	.word	0x0000420f
    44fc:	000041e1 	.word	0x000041e1
    4500:	00004621 	.word	0x00004621
    4504:	00004731 	.word	0x00004731
    4508:	0000429d 	.word	0x0000429d
    450c:	00b71b00 	.word	0x00b71b00

00004510 <system_apb_clock_set_mask>:
    4510:	b580      	push	{r7, lr}
    4512:	b082      	sub	sp, #8
    4514:	af00      	add	r7, sp, #0
    4516:	0002      	movs	r2, r0
    4518:	6039      	str	r1, [r7, #0]
    451a:	1dfb      	adds	r3, r7, #7
    451c:	701a      	strb	r2, [r3, #0]
    451e:	1dfb      	adds	r3, r7, #7
    4520:	781b      	ldrb	r3, [r3, #0]
    4522:	2b04      	cmp	r3, #4
    4524:	d827      	bhi.n	4576 <system_apb_clock_set_mask+0x66>
    4526:	009a      	lsls	r2, r3, #2
    4528:	4b16      	ldr	r3, [pc, #88]	; (4584 <system_apb_clock_set_mask+0x74>)
    452a:	18d3      	adds	r3, r2, r3
    452c:	681b      	ldr	r3, [r3, #0]
    452e:	469f      	mov	pc, r3
    4530:	4b15      	ldr	r3, [pc, #84]	; (4588 <system_apb_clock_set_mask+0x78>)
    4532:	4a15      	ldr	r2, [pc, #84]	; (4588 <system_apb_clock_set_mask+0x78>)
    4534:	6951      	ldr	r1, [r2, #20]
    4536:	683a      	ldr	r2, [r7, #0]
    4538:	430a      	orrs	r2, r1
    453a:	615a      	str	r2, [r3, #20]
    453c:	e01d      	b.n	457a <system_apb_clock_set_mask+0x6a>
    453e:	4b12      	ldr	r3, [pc, #72]	; (4588 <system_apb_clock_set_mask+0x78>)
    4540:	4a11      	ldr	r2, [pc, #68]	; (4588 <system_apb_clock_set_mask+0x78>)
    4542:	6991      	ldr	r1, [r2, #24]
    4544:	683a      	ldr	r2, [r7, #0]
    4546:	430a      	orrs	r2, r1
    4548:	619a      	str	r2, [r3, #24]
    454a:	e016      	b.n	457a <system_apb_clock_set_mask+0x6a>
    454c:	4b0e      	ldr	r3, [pc, #56]	; (4588 <system_apb_clock_set_mask+0x78>)
    454e:	4a0e      	ldr	r2, [pc, #56]	; (4588 <system_apb_clock_set_mask+0x78>)
    4550:	69d1      	ldr	r1, [r2, #28]
    4552:	683a      	ldr	r2, [r7, #0]
    4554:	430a      	orrs	r2, r1
    4556:	61da      	str	r2, [r3, #28]
    4558:	e00f      	b.n	457a <system_apb_clock_set_mask+0x6a>
    455a:	4b0b      	ldr	r3, [pc, #44]	; (4588 <system_apb_clock_set_mask+0x78>)
    455c:	4a0a      	ldr	r2, [pc, #40]	; (4588 <system_apb_clock_set_mask+0x78>)
    455e:	6a11      	ldr	r1, [r2, #32]
    4560:	683a      	ldr	r2, [r7, #0]
    4562:	430a      	orrs	r2, r1
    4564:	621a      	str	r2, [r3, #32]
    4566:	e008      	b.n	457a <system_apb_clock_set_mask+0x6a>
    4568:	4b07      	ldr	r3, [pc, #28]	; (4588 <system_apb_clock_set_mask+0x78>)
    456a:	4a07      	ldr	r2, [pc, #28]	; (4588 <system_apb_clock_set_mask+0x78>)
    456c:	6a51      	ldr	r1, [r2, #36]	; 0x24
    456e:	683a      	ldr	r2, [r7, #0]
    4570:	430a      	orrs	r2, r1
    4572:	625a      	str	r2, [r3, #36]	; 0x24
    4574:	e001      	b.n	457a <system_apb_clock_set_mask+0x6a>
    4576:	2317      	movs	r3, #23
    4578:	e000      	b.n	457c <system_apb_clock_set_mask+0x6c>
    457a:	2300      	movs	r3, #0
    457c:	0018      	movs	r0, r3
    457e:	46bd      	mov	sp, r7
    4580:	b002      	add	sp, #8
    4582:	bd80      	pop	{r7, pc}
    4584:	00007570 	.word	0x00007570
    4588:	40000400 	.word	0x40000400

0000458c <system_interrupt_enter_critical_section>:
    458c:	b580      	push	{r7, lr}
    458e:	af00      	add	r7, sp, #0
    4590:	4b02      	ldr	r3, [pc, #8]	; (459c <system_interrupt_enter_critical_section+0x10>)
    4592:	4798      	blx	r3
    4594:	46c0      	nop			; (mov r8, r8)
    4596:	46bd      	mov	sp, r7
    4598:	bd80      	pop	{r7, pc}
    459a:	46c0      	nop			; (mov r8, r8)
    459c:	0000414d 	.word	0x0000414d

000045a0 <system_interrupt_leave_critical_section>:
    45a0:	b580      	push	{r7, lr}
    45a2:	af00      	add	r7, sp, #0
    45a4:	4b02      	ldr	r3, [pc, #8]	; (45b0 <system_interrupt_leave_critical_section+0x10>)
    45a6:	4798      	blx	r3
    45a8:	46c0      	nop			; (mov r8, r8)
    45aa:	46bd      	mov	sp, r7
    45ac:	bd80      	pop	{r7, pc}
    45ae:	46c0      	nop			; (mov r8, r8)
    45b0:	000041a1 	.word	0x000041a1

000045b4 <system_gclk_is_syncing>:
    45b4:	b580      	push	{r7, lr}
    45b6:	b082      	sub	sp, #8
    45b8:	af00      	add	r7, sp, #0
    45ba:	0002      	movs	r2, r0
    45bc:	1dfb      	adds	r3, r7, #7
    45be:	701a      	strb	r2, [r3, #0]
    45c0:	4b09      	ldr	r3, [pc, #36]	; (45e8 <system_gclk_is_syncing+0x34>)
    45c2:	685b      	ldr	r3, [r3, #4]
    45c4:	1dfa      	adds	r2, r7, #7
    45c6:	7812      	ldrb	r2, [r2, #0]
    45c8:	2101      	movs	r1, #1
    45ca:	4091      	lsls	r1, r2
    45cc:	000a      	movs	r2, r1
    45ce:	0092      	lsls	r2, r2, #2
    45d0:	4013      	ands	r3, r2
    45d2:	4a06      	ldr	r2, [pc, #24]	; (45ec <system_gclk_is_syncing+0x38>)
    45d4:	4013      	ands	r3, r2
    45d6:	d001      	beq.n	45dc <system_gclk_is_syncing+0x28>
    45d8:	2301      	movs	r3, #1
    45da:	e000      	b.n	45de <system_gclk_is_syncing+0x2a>
    45dc:	2300      	movs	r3, #0
    45de:	0018      	movs	r0, r3
    45e0:	46bd      	mov	sp, r7
    45e2:	b002      	add	sp, #8
    45e4:	bd80      	pop	{r7, pc}
    45e6:	46c0      	nop			; (mov r8, r8)
    45e8:	40001800 	.word	0x40001800
    45ec:	000007fc 	.word	0x000007fc

000045f0 <system_gclk_init>:
    45f0:	b580      	push	{r7, lr}
    45f2:	af00      	add	r7, sp, #0
    45f4:	2140      	movs	r1, #64	; 0x40
    45f6:	2000      	movs	r0, #0
    45f8:	4b07      	ldr	r3, [pc, #28]	; (4618 <system_gclk_init+0x28>)
    45fa:	4798      	blx	r3
    45fc:	4b07      	ldr	r3, [pc, #28]	; (461c <system_gclk_init+0x2c>)
    45fe:	2201      	movs	r2, #1
    4600:	701a      	strb	r2, [r3, #0]
    4602:	46c0      	nop			; (mov r8, r8)
    4604:	4b05      	ldr	r3, [pc, #20]	; (461c <system_gclk_init+0x2c>)
    4606:	781b      	ldrb	r3, [r3, #0]
    4608:	b2db      	uxtb	r3, r3
    460a:	001a      	movs	r2, r3
    460c:	2301      	movs	r3, #1
    460e:	4013      	ands	r3, r2
    4610:	d1f8      	bne.n	4604 <system_gclk_init+0x14>
    4612:	46c0      	nop			; (mov r8, r8)
    4614:	46bd      	mov	sp, r7
    4616:	bd80      	pop	{r7, pc}
    4618:	00004511 	.word	0x00004511
    461c:	40001800 	.word	0x40001800

00004620 <system_gclk_gen_set_config>:
    4620:	b580      	push	{r7, lr}
    4622:	b086      	sub	sp, #24
    4624:	af00      	add	r7, sp, #0
    4626:	0002      	movs	r2, r0
    4628:	6039      	str	r1, [r7, #0]
    462a:	1dfb      	adds	r3, r7, #7
    462c:	701a      	strb	r2, [r3, #0]
    462e:	683b      	ldr	r3, [r7, #0]
    4630:	781b      	ldrb	r3, [r3, #0]
    4632:	617b      	str	r3, [r7, #20]
    4634:	683b      	ldr	r3, [r7, #0]
    4636:	785b      	ldrb	r3, [r3, #1]
    4638:	2b00      	cmp	r3, #0
    463a:	d004      	beq.n	4646 <system_gclk_gen_set_config+0x26>
    463c:	697b      	ldr	r3, [r7, #20]
    463e:	2280      	movs	r2, #128	; 0x80
    4640:	00d2      	lsls	r2, r2, #3
    4642:	4313      	orrs	r3, r2
    4644:	617b      	str	r3, [r7, #20]
    4646:	683b      	ldr	r3, [r7, #0]
    4648:	7a5b      	ldrb	r3, [r3, #9]
    464a:	2b00      	cmp	r3, #0
    464c:	d004      	beq.n	4658 <system_gclk_gen_set_config+0x38>
    464e:	697b      	ldr	r3, [r7, #20]
    4650:	2280      	movs	r2, #128	; 0x80
    4652:	0112      	lsls	r2, r2, #4
    4654:	4313      	orrs	r3, r2
    4656:	617b      	str	r3, [r7, #20]
    4658:	683b      	ldr	r3, [r7, #0]
    465a:	685b      	ldr	r3, [r3, #4]
    465c:	2b01      	cmp	r3, #1
    465e:	d92c      	bls.n	46ba <system_gclk_gen_set_config+0x9a>
    4660:	683b      	ldr	r3, [r7, #0]
    4662:	685a      	ldr	r2, [r3, #4]
    4664:	683b      	ldr	r3, [r7, #0]
    4666:	685b      	ldr	r3, [r3, #4]
    4668:	3b01      	subs	r3, #1
    466a:	4013      	ands	r3, r2
    466c:	d11a      	bne.n	46a4 <system_gclk_gen_set_config+0x84>
    466e:	2300      	movs	r3, #0
    4670:	613b      	str	r3, [r7, #16]
    4672:	2302      	movs	r3, #2
    4674:	60fb      	str	r3, [r7, #12]
    4676:	e005      	b.n	4684 <system_gclk_gen_set_config+0x64>
    4678:	693b      	ldr	r3, [r7, #16]
    467a:	3301      	adds	r3, #1
    467c:	613b      	str	r3, [r7, #16]
    467e:	68fb      	ldr	r3, [r7, #12]
    4680:	005b      	lsls	r3, r3, #1
    4682:	60fb      	str	r3, [r7, #12]
    4684:	683b      	ldr	r3, [r7, #0]
    4686:	685a      	ldr	r2, [r3, #4]
    4688:	68fb      	ldr	r3, [r7, #12]
    468a:	429a      	cmp	r2, r3
    468c:	d8f4      	bhi.n	4678 <system_gclk_gen_set_config+0x58>
    468e:	693b      	ldr	r3, [r7, #16]
    4690:	041b      	lsls	r3, r3, #16
    4692:	697a      	ldr	r2, [r7, #20]
    4694:	4313      	orrs	r3, r2
    4696:	617b      	str	r3, [r7, #20]
    4698:	697b      	ldr	r3, [r7, #20]
    469a:	2280      	movs	r2, #128	; 0x80
    469c:	0152      	lsls	r2, r2, #5
    469e:	4313      	orrs	r3, r2
    46a0:	617b      	str	r3, [r7, #20]
    46a2:	e00a      	b.n	46ba <system_gclk_gen_set_config+0x9a>
    46a4:	683b      	ldr	r3, [r7, #0]
    46a6:	685b      	ldr	r3, [r3, #4]
    46a8:	041b      	lsls	r3, r3, #16
    46aa:	697a      	ldr	r2, [r7, #20]
    46ac:	4313      	orrs	r3, r2
    46ae:	617b      	str	r3, [r7, #20]
    46b0:	697b      	ldr	r3, [r7, #20]
    46b2:	2280      	movs	r2, #128	; 0x80
    46b4:	0092      	lsls	r2, r2, #2
    46b6:	4313      	orrs	r3, r2
    46b8:	617b      	str	r3, [r7, #20]
    46ba:	683b      	ldr	r3, [r7, #0]
    46bc:	7a1b      	ldrb	r3, [r3, #8]
    46be:	2b00      	cmp	r3, #0
    46c0:	d004      	beq.n	46cc <system_gclk_gen_set_config+0xac>
    46c2:	697b      	ldr	r3, [r7, #20]
    46c4:	2280      	movs	r2, #128	; 0x80
    46c6:	0192      	lsls	r2, r2, #6
    46c8:	4313      	orrs	r3, r2
    46ca:	617b      	str	r3, [r7, #20]
    46cc:	46c0      	nop			; (mov r8, r8)
    46ce:	1dfb      	adds	r3, r7, #7
    46d0:	781b      	ldrb	r3, [r3, #0]
    46d2:	0018      	movs	r0, r3
    46d4:	4b12      	ldr	r3, [pc, #72]	; (4720 <system_gclk_gen_set_config+0x100>)
    46d6:	4798      	blx	r3
    46d8:	1e03      	subs	r3, r0, #0
    46da:	d1f8      	bne.n	46ce <system_gclk_gen_set_config+0xae>
    46dc:	4b11      	ldr	r3, [pc, #68]	; (4724 <system_gclk_gen_set_config+0x104>)
    46de:	4798      	blx	r3
    46e0:	4811      	ldr	r0, [pc, #68]	; (4728 <system_gclk_gen_set_config+0x108>)
    46e2:	1dfb      	adds	r3, r7, #7
    46e4:	781b      	ldrb	r3, [r3, #0]
    46e6:	4910      	ldr	r1, [pc, #64]	; (4728 <system_gclk_gen_set_config+0x108>)
    46e8:	1dfa      	adds	r2, r7, #7
    46ea:	7812      	ldrb	r2, [r2, #0]
    46ec:	3208      	adds	r2, #8
    46ee:	0092      	lsls	r2, r2, #2
    46f0:	5851      	ldr	r1, [r2, r1]
    46f2:	2280      	movs	r2, #128	; 0x80
    46f4:	0052      	lsls	r2, r2, #1
    46f6:	4011      	ands	r1, r2
    46f8:	697a      	ldr	r2, [r7, #20]
    46fa:	430a      	orrs	r2, r1
    46fc:	3308      	adds	r3, #8
    46fe:	009b      	lsls	r3, r3, #2
    4700:	501a      	str	r2, [r3, r0]
    4702:	46c0      	nop			; (mov r8, r8)
    4704:	1dfb      	adds	r3, r7, #7
    4706:	781b      	ldrb	r3, [r3, #0]
    4708:	0018      	movs	r0, r3
    470a:	4b05      	ldr	r3, [pc, #20]	; (4720 <system_gclk_gen_set_config+0x100>)
    470c:	4798      	blx	r3
    470e:	1e03      	subs	r3, r0, #0
    4710:	d1f8      	bne.n	4704 <system_gclk_gen_set_config+0xe4>
    4712:	4b06      	ldr	r3, [pc, #24]	; (472c <system_gclk_gen_set_config+0x10c>)
    4714:	4798      	blx	r3
    4716:	46c0      	nop			; (mov r8, r8)
    4718:	46bd      	mov	sp, r7
    471a:	b006      	add	sp, #24
    471c:	bd80      	pop	{r7, pc}
    471e:	46c0      	nop			; (mov r8, r8)
    4720:	000045b5 	.word	0x000045b5
    4724:	0000458d 	.word	0x0000458d
    4728:	40001800 	.word	0x40001800
    472c:	000045a1 	.word	0x000045a1

00004730 <system_gclk_gen_enable>:
    4730:	b580      	push	{r7, lr}
    4732:	b082      	sub	sp, #8
    4734:	af00      	add	r7, sp, #0
    4736:	0002      	movs	r2, r0
    4738:	1dfb      	adds	r3, r7, #7
    473a:	701a      	strb	r2, [r3, #0]
    473c:	46c0      	nop			; (mov r8, r8)
    473e:	1dfb      	adds	r3, r7, #7
    4740:	781b      	ldrb	r3, [r3, #0]
    4742:	0018      	movs	r0, r3
    4744:	4b0d      	ldr	r3, [pc, #52]	; (477c <system_gclk_gen_enable+0x4c>)
    4746:	4798      	blx	r3
    4748:	1e03      	subs	r3, r0, #0
    474a:	d1f8      	bne.n	473e <system_gclk_gen_enable+0xe>
    474c:	4b0c      	ldr	r3, [pc, #48]	; (4780 <system_gclk_gen_enable+0x50>)
    474e:	4798      	blx	r3
    4750:	480c      	ldr	r0, [pc, #48]	; (4784 <system_gclk_gen_enable+0x54>)
    4752:	1dfb      	adds	r3, r7, #7
    4754:	781b      	ldrb	r3, [r3, #0]
    4756:	490b      	ldr	r1, [pc, #44]	; (4784 <system_gclk_gen_enable+0x54>)
    4758:	1dfa      	adds	r2, r7, #7
    475a:	7812      	ldrb	r2, [r2, #0]
    475c:	3208      	adds	r2, #8
    475e:	0092      	lsls	r2, r2, #2
    4760:	5852      	ldr	r2, [r2, r1]
    4762:	2180      	movs	r1, #128	; 0x80
    4764:	0049      	lsls	r1, r1, #1
    4766:	430a      	orrs	r2, r1
    4768:	3308      	adds	r3, #8
    476a:	009b      	lsls	r3, r3, #2
    476c:	501a      	str	r2, [r3, r0]
    476e:	4b06      	ldr	r3, [pc, #24]	; (4788 <system_gclk_gen_enable+0x58>)
    4770:	4798      	blx	r3
    4772:	46c0      	nop			; (mov r8, r8)
    4774:	46bd      	mov	sp, r7
    4776:	b002      	add	sp, #8
    4778:	bd80      	pop	{r7, pc}
    477a:	46c0      	nop			; (mov r8, r8)
    477c:	000045b5 	.word	0x000045b5
    4780:	0000458d 	.word	0x0000458d
    4784:	40001800 	.word	0x40001800
    4788:	000045a1 	.word	0x000045a1

0000478c <system_gclk_gen_get_hz>:
    478c:	b580      	push	{r7, lr}
    478e:	b086      	sub	sp, #24
    4790:	af00      	add	r7, sp, #0
    4792:	0002      	movs	r2, r0
    4794:	1dfb      	adds	r3, r7, #7
    4796:	701a      	strb	r2, [r3, #0]
    4798:	46c0      	nop			; (mov r8, r8)
    479a:	1dfb      	adds	r3, r7, #7
    479c:	781b      	ldrb	r3, [r3, #0]
    479e:	0018      	movs	r0, r3
    47a0:	4b24      	ldr	r3, [pc, #144]	; (4834 <system_gclk_gen_get_hz+0xa8>)
    47a2:	4798      	blx	r3
    47a4:	1e03      	subs	r3, r0, #0
    47a6:	d1f8      	bne.n	479a <system_gclk_gen_get_hz+0xe>
    47a8:	4b23      	ldr	r3, [pc, #140]	; (4838 <system_gclk_gen_get_hz+0xac>)
    47aa:	4798      	blx	r3
    47ac:	4a23      	ldr	r2, [pc, #140]	; (483c <system_gclk_gen_get_hz+0xb0>)
    47ae:	1dfb      	adds	r3, r7, #7
    47b0:	781b      	ldrb	r3, [r3, #0]
    47b2:	3308      	adds	r3, #8
    47b4:	009b      	lsls	r3, r3, #2
    47b6:	589b      	ldr	r3, [r3, r2]
    47b8:	071b      	lsls	r3, r3, #28
    47ba:	0f1b      	lsrs	r3, r3, #28
    47bc:	b2db      	uxtb	r3, r3
    47be:	0018      	movs	r0, r3
    47c0:	4b1f      	ldr	r3, [pc, #124]	; (4840 <system_gclk_gen_get_hz+0xb4>)
    47c2:	4798      	blx	r3
    47c4:	0003      	movs	r3, r0
    47c6:	617b      	str	r3, [r7, #20]
    47c8:	4a1c      	ldr	r2, [pc, #112]	; (483c <system_gclk_gen_get_hz+0xb0>)
    47ca:	1dfb      	adds	r3, r7, #7
    47cc:	781b      	ldrb	r3, [r3, #0]
    47ce:	3308      	adds	r3, #8
    47d0:	009b      	lsls	r3, r3, #2
    47d2:	589b      	ldr	r3, [r3, r2]
    47d4:	04db      	lsls	r3, r3, #19
    47d6:	0fdb      	lsrs	r3, r3, #31
    47d8:	b2da      	uxtb	r2, r3
    47da:	2313      	movs	r3, #19
    47dc:	18fb      	adds	r3, r7, r3
    47de:	701a      	strb	r2, [r3, #0]
    47e0:	4a16      	ldr	r2, [pc, #88]	; (483c <system_gclk_gen_get_hz+0xb0>)
    47e2:	1dfb      	adds	r3, r7, #7
    47e4:	781b      	ldrb	r3, [r3, #0]
    47e6:	3308      	adds	r3, #8
    47e8:	009b      	lsls	r3, r3, #2
    47ea:	589b      	ldr	r3, [r3, r2]
    47ec:	0c1b      	lsrs	r3, r3, #16
    47ee:	b29b      	uxth	r3, r3
    47f0:	60fb      	str	r3, [r7, #12]
    47f2:	4b14      	ldr	r3, [pc, #80]	; (4844 <system_gclk_gen_get_hz+0xb8>)
    47f4:	4798      	blx	r3
    47f6:	2313      	movs	r3, #19
    47f8:	18fb      	adds	r3, r7, r3
    47fa:	781b      	ldrb	r3, [r3, #0]
    47fc:	2b00      	cmp	r3, #0
    47fe:	d109      	bne.n	4814 <system_gclk_gen_get_hz+0x88>
    4800:	68fb      	ldr	r3, [r7, #12]
    4802:	2b01      	cmp	r3, #1
    4804:	d906      	bls.n	4814 <system_gclk_gen_get_hz+0x88>
    4806:	4b10      	ldr	r3, [pc, #64]	; (4848 <system_gclk_gen_get_hz+0xbc>)
    4808:	68f9      	ldr	r1, [r7, #12]
    480a:	6978      	ldr	r0, [r7, #20]
    480c:	4798      	blx	r3
    480e:	0003      	movs	r3, r0
    4810:	617b      	str	r3, [r7, #20]
    4812:	e00a      	b.n	482a <system_gclk_gen_get_hz+0x9e>
    4814:	2313      	movs	r3, #19
    4816:	18fb      	adds	r3, r7, r3
    4818:	781b      	ldrb	r3, [r3, #0]
    481a:	2b00      	cmp	r3, #0
    481c:	d005      	beq.n	482a <system_gclk_gen_get_hz+0x9e>
    481e:	68fb      	ldr	r3, [r7, #12]
    4820:	3301      	adds	r3, #1
    4822:	697a      	ldr	r2, [r7, #20]
    4824:	40da      	lsrs	r2, r3
    4826:	0013      	movs	r3, r2
    4828:	617b      	str	r3, [r7, #20]
    482a:	697b      	ldr	r3, [r7, #20]
    482c:	0018      	movs	r0, r3
    482e:	46bd      	mov	sp, r7
    4830:	b006      	add	sp, #24
    4832:	bd80      	pop	{r7, pc}
    4834:	000045b5 	.word	0x000045b5
    4838:	0000458d 	.word	0x0000458d
    483c:	40001800 	.word	0x40001800
    4840:	00004379 	.word	0x00004379
    4844:	000045a1 	.word	0x000045a1
    4848:	000050a1 	.word	0x000050a1

0000484c <system_gclk_chan_set_config>:
    484c:	b580      	push	{r7, lr}
    484e:	b082      	sub	sp, #8
    4850:	af00      	add	r7, sp, #0
    4852:	0002      	movs	r2, r0
    4854:	6039      	str	r1, [r7, #0]
    4856:	1dfb      	adds	r3, r7, #7
    4858:	701a      	strb	r2, [r3, #0]
    485a:	1dfb      	adds	r3, r7, #7
    485c:	781b      	ldrb	r3, [r3, #0]
    485e:	0018      	movs	r0, r3
    4860:	4b08      	ldr	r3, [pc, #32]	; (4884 <system_gclk_chan_set_config+0x38>)
    4862:	4798      	blx	r3
    4864:	4908      	ldr	r1, [pc, #32]	; (4888 <system_gclk_chan_set_config+0x3c>)
    4866:	1dfb      	adds	r3, r7, #7
    4868:	781b      	ldrb	r3, [r3, #0]
    486a:	683a      	ldr	r2, [r7, #0]
    486c:	7812      	ldrb	r2, [r2, #0]
    486e:	0010      	movs	r0, r2
    4870:	220f      	movs	r2, #15
    4872:	4002      	ands	r2, r0
    4874:	3320      	adds	r3, #32
    4876:	009b      	lsls	r3, r3, #2
    4878:	505a      	str	r2, [r3, r1]
    487a:	46c0      	nop			; (mov r8, r8)
    487c:	46bd      	mov	sp, r7
    487e:	b002      	add	sp, #8
    4880:	bd80      	pop	{r7, pc}
    4882:	46c0      	nop			; (mov r8, r8)
    4884:	000048e5 	.word	0x000048e5
    4888:	40001800 	.word	0x40001800

0000488c <system_gclk_chan_enable>:
    488c:	b580      	push	{r7, lr}
    488e:	b082      	sub	sp, #8
    4890:	af00      	add	r7, sp, #0
    4892:	0002      	movs	r2, r0
    4894:	1dfb      	adds	r3, r7, #7
    4896:	701a      	strb	r2, [r3, #0]
    4898:	4b0f      	ldr	r3, [pc, #60]	; (48d8 <system_gclk_chan_enable+0x4c>)
    489a:	4798      	blx	r3
    489c:	490f      	ldr	r1, [pc, #60]	; (48dc <system_gclk_chan_enable+0x50>)
    489e:	1dfb      	adds	r3, r7, #7
    48a0:	781b      	ldrb	r3, [r3, #0]
    48a2:	480e      	ldr	r0, [pc, #56]	; (48dc <system_gclk_chan_enable+0x50>)
    48a4:	1dfa      	adds	r2, r7, #7
    48a6:	7812      	ldrb	r2, [r2, #0]
    48a8:	3220      	adds	r2, #32
    48aa:	0092      	lsls	r2, r2, #2
    48ac:	5812      	ldr	r2, [r2, r0]
    48ae:	2040      	movs	r0, #64	; 0x40
    48b0:	4302      	orrs	r2, r0
    48b2:	3320      	adds	r3, #32
    48b4:	009b      	lsls	r3, r3, #2
    48b6:	505a      	str	r2, [r3, r1]
    48b8:	46c0      	nop			; (mov r8, r8)
    48ba:	4a08      	ldr	r2, [pc, #32]	; (48dc <system_gclk_chan_enable+0x50>)
    48bc:	1dfb      	adds	r3, r7, #7
    48be:	781b      	ldrb	r3, [r3, #0]
    48c0:	3320      	adds	r3, #32
    48c2:	009b      	lsls	r3, r3, #2
    48c4:	589b      	ldr	r3, [r3, r2]
    48c6:	2240      	movs	r2, #64	; 0x40
    48c8:	4013      	ands	r3, r2
    48ca:	d0f6      	beq.n	48ba <system_gclk_chan_enable+0x2e>
    48cc:	4b04      	ldr	r3, [pc, #16]	; (48e0 <system_gclk_chan_enable+0x54>)
    48ce:	4798      	blx	r3
    48d0:	46c0      	nop			; (mov r8, r8)
    48d2:	46bd      	mov	sp, r7
    48d4:	b002      	add	sp, #8
    48d6:	bd80      	pop	{r7, pc}
    48d8:	0000458d 	.word	0x0000458d
    48dc:	40001800 	.word	0x40001800
    48e0:	000045a1 	.word	0x000045a1

000048e4 <system_gclk_chan_disable>:
    48e4:	b580      	push	{r7, lr}
    48e6:	b082      	sub	sp, #8
    48e8:	af00      	add	r7, sp, #0
    48ea:	0002      	movs	r2, r0
    48ec:	1dfb      	adds	r3, r7, #7
    48ee:	701a      	strb	r2, [r3, #0]
    48f0:	4b0f      	ldr	r3, [pc, #60]	; (4930 <system_gclk_chan_disable+0x4c>)
    48f2:	4798      	blx	r3
    48f4:	490f      	ldr	r1, [pc, #60]	; (4934 <system_gclk_chan_disable+0x50>)
    48f6:	1dfb      	adds	r3, r7, #7
    48f8:	781b      	ldrb	r3, [r3, #0]
    48fa:	480e      	ldr	r0, [pc, #56]	; (4934 <system_gclk_chan_disable+0x50>)
    48fc:	1dfa      	adds	r2, r7, #7
    48fe:	7812      	ldrb	r2, [r2, #0]
    4900:	3220      	adds	r2, #32
    4902:	0092      	lsls	r2, r2, #2
    4904:	5812      	ldr	r2, [r2, r0]
    4906:	2040      	movs	r0, #64	; 0x40
    4908:	4382      	bics	r2, r0
    490a:	3320      	adds	r3, #32
    490c:	009b      	lsls	r3, r3, #2
    490e:	505a      	str	r2, [r3, r1]
    4910:	46c0      	nop			; (mov r8, r8)
    4912:	4a08      	ldr	r2, [pc, #32]	; (4934 <system_gclk_chan_disable+0x50>)
    4914:	1dfb      	adds	r3, r7, #7
    4916:	781b      	ldrb	r3, [r3, #0]
    4918:	3320      	adds	r3, #32
    491a:	009b      	lsls	r3, r3, #2
    491c:	589b      	ldr	r3, [r3, r2]
    491e:	2240      	movs	r2, #64	; 0x40
    4920:	4013      	ands	r3, r2
    4922:	d1f6      	bne.n	4912 <system_gclk_chan_disable+0x2e>
    4924:	4b04      	ldr	r3, [pc, #16]	; (4938 <system_gclk_chan_disable+0x54>)
    4926:	4798      	blx	r3
    4928:	46c0      	nop			; (mov r8, r8)
    492a:	46bd      	mov	sp, r7
    492c:	b002      	add	sp, #8
    492e:	bd80      	pop	{r7, pc}
    4930:	0000458d 	.word	0x0000458d
    4934:	40001800 	.word	0x40001800
    4938:	000045a1 	.word	0x000045a1

0000493c <system_gclk_chan_get_hz>:
    493c:	b580      	push	{r7, lr}
    493e:	b084      	sub	sp, #16
    4940:	af00      	add	r7, sp, #0
    4942:	0002      	movs	r2, r0
    4944:	1dfb      	adds	r3, r7, #7
    4946:	701a      	strb	r2, [r3, #0]
    4948:	4b0d      	ldr	r3, [pc, #52]	; (4980 <system_gclk_chan_get_hz+0x44>)
    494a:	4798      	blx	r3
    494c:	4a0d      	ldr	r2, [pc, #52]	; (4984 <system_gclk_chan_get_hz+0x48>)
    494e:	1dfb      	adds	r3, r7, #7
    4950:	781b      	ldrb	r3, [r3, #0]
    4952:	3320      	adds	r3, #32
    4954:	009b      	lsls	r3, r3, #2
    4956:	589b      	ldr	r3, [r3, r2]
    4958:	071b      	lsls	r3, r3, #28
    495a:	0f1b      	lsrs	r3, r3, #28
    495c:	b2da      	uxtb	r2, r3
    495e:	230f      	movs	r3, #15
    4960:	18fb      	adds	r3, r7, r3
    4962:	701a      	strb	r2, [r3, #0]
    4964:	4b08      	ldr	r3, [pc, #32]	; (4988 <system_gclk_chan_get_hz+0x4c>)
    4966:	4798      	blx	r3
    4968:	230f      	movs	r3, #15
    496a:	18fb      	adds	r3, r7, r3
    496c:	781b      	ldrb	r3, [r3, #0]
    496e:	0018      	movs	r0, r3
    4970:	4b06      	ldr	r3, [pc, #24]	; (498c <system_gclk_chan_get_hz+0x50>)
    4972:	4798      	blx	r3
    4974:	0003      	movs	r3, r0
    4976:	0018      	movs	r0, r3
    4978:	46bd      	mov	sp, r7
    497a:	b004      	add	sp, #16
    497c:	bd80      	pop	{r7, pc}
    497e:	46c0      	nop			; (mov r8, r8)
    4980:	0000458d 	.word	0x0000458d
    4984:	40001800 	.word	0x40001800
    4988:	000045a1 	.word	0x000045a1
    498c:	0000478d 	.word	0x0000478d

00004990 <system_pinmux_get_group_from_gpio_pin>:
    4990:	b580      	push	{r7, lr}
    4992:	b084      	sub	sp, #16
    4994:	af00      	add	r7, sp, #0
    4996:	0002      	movs	r2, r0
    4998:	1dfb      	adds	r3, r7, #7
    499a:	701a      	strb	r2, [r3, #0]
    499c:	230f      	movs	r3, #15
    499e:	18fb      	adds	r3, r7, r3
    49a0:	1dfa      	adds	r2, r7, #7
    49a2:	7812      	ldrb	r2, [r2, #0]
    49a4:	09d2      	lsrs	r2, r2, #7
    49a6:	701a      	strb	r2, [r3, #0]
    49a8:	230e      	movs	r3, #14
    49aa:	18fb      	adds	r3, r7, r3
    49ac:	1dfa      	adds	r2, r7, #7
    49ae:	7812      	ldrb	r2, [r2, #0]
    49b0:	0952      	lsrs	r2, r2, #5
    49b2:	701a      	strb	r2, [r3, #0]
    49b4:	4b0d      	ldr	r3, [pc, #52]	; (49ec <system_pinmux_get_group_from_gpio_pin+0x5c>)
    49b6:	60bb      	str	r3, [r7, #8]
    49b8:	230f      	movs	r3, #15
    49ba:	18fb      	adds	r3, r7, r3
    49bc:	781b      	ldrb	r3, [r3, #0]
    49be:	2b00      	cmp	r3, #0
    49c0:	d10f      	bne.n	49e2 <system_pinmux_get_group_from_gpio_pin+0x52>
    49c2:	230f      	movs	r3, #15
    49c4:	18fb      	adds	r3, r7, r3
    49c6:	781b      	ldrb	r3, [r3, #0]
    49c8:	009b      	lsls	r3, r3, #2
    49ca:	2210      	movs	r2, #16
    49cc:	4694      	mov	ip, r2
    49ce:	44bc      	add	ip, r7
    49d0:	4463      	add	r3, ip
    49d2:	3b08      	subs	r3, #8
    49d4:	681a      	ldr	r2, [r3, #0]
    49d6:	230e      	movs	r3, #14
    49d8:	18fb      	adds	r3, r7, r3
    49da:	781b      	ldrb	r3, [r3, #0]
    49dc:	01db      	lsls	r3, r3, #7
    49de:	18d3      	adds	r3, r2, r3
    49e0:	e000      	b.n	49e4 <system_pinmux_get_group_from_gpio_pin+0x54>
    49e2:	2300      	movs	r3, #0
    49e4:	0018      	movs	r0, r3
    49e6:	46bd      	mov	sp, r7
    49e8:	b004      	add	sp, #16
    49ea:	bd80      	pop	{r7, pc}
    49ec:	40002800 	.word	0x40002800

000049f0 <_system_pinmux_config>:
    49f0:	b580      	push	{r7, lr}
    49f2:	b088      	sub	sp, #32
    49f4:	af00      	add	r7, sp, #0
    49f6:	60f8      	str	r0, [r7, #12]
    49f8:	60b9      	str	r1, [r7, #8]
    49fa:	607a      	str	r2, [r7, #4]
    49fc:	2300      	movs	r3, #0
    49fe:	61fb      	str	r3, [r7, #28]
    4a00:	687b      	ldr	r3, [r7, #4]
    4a02:	78db      	ldrb	r3, [r3, #3]
    4a04:	2201      	movs	r2, #1
    4a06:	4053      	eors	r3, r2
    4a08:	b2db      	uxtb	r3, r3
    4a0a:	2b00      	cmp	r3, #0
    4a0c:	d035      	beq.n	4a7a <_system_pinmux_config+0x8a>
    4a0e:	687b      	ldr	r3, [r7, #4]
    4a10:	781b      	ldrb	r3, [r3, #0]
    4a12:	2b80      	cmp	r3, #128	; 0x80
    4a14:	d00b      	beq.n	4a2e <_system_pinmux_config+0x3e>
    4a16:	69fb      	ldr	r3, [r7, #28]
    4a18:	2280      	movs	r2, #128	; 0x80
    4a1a:	0252      	lsls	r2, r2, #9
    4a1c:	4313      	orrs	r3, r2
    4a1e:	61fb      	str	r3, [r7, #28]
    4a20:	687b      	ldr	r3, [r7, #4]
    4a22:	781b      	ldrb	r3, [r3, #0]
    4a24:	061b      	lsls	r3, r3, #24
    4a26:	001a      	movs	r2, r3
    4a28:	69fb      	ldr	r3, [r7, #28]
    4a2a:	4313      	orrs	r3, r2
    4a2c:	61fb      	str	r3, [r7, #28]
    4a2e:	687b      	ldr	r3, [r7, #4]
    4a30:	785b      	ldrb	r3, [r3, #1]
    4a32:	2b00      	cmp	r3, #0
    4a34:	d003      	beq.n	4a3e <_system_pinmux_config+0x4e>
    4a36:	687b      	ldr	r3, [r7, #4]
    4a38:	785b      	ldrb	r3, [r3, #1]
    4a3a:	2b02      	cmp	r3, #2
    4a3c:	d110      	bne.n	4a60 <_system_pinmux_config+0x70>
    4a3e:	69fb      	ldr	r3, [r7, #28]
    4a40:	2280      	movs	r2, #128	; 0x80
    4a42:	0292      	lsls	r2, r2, #10
    4a44:	4313      	orrs	r3, r2
    4a46:	61fb      	str	r3, [r7, #28]
    4a48:	687b      	ldr	r3, [r7, #4]
    4a4a:	789b      	ldrb	r3, [r3, #2]
    4a4c:	2b00      	cmp	r3, #0
    4a4e:	d004      	beq.n	4a5a <_system_pinmux_config+0x6a>
    4a50:	69fb      	ldr	r3, [r7, #28]
    4a52:	2280      	movs	r2, #128	; 0x80
    4a54:	02d2      	lsls	r2, r2, #11
    4a56:	4313      	orrs	r3, r2
    4a58:	61fb      	str	r3, [r7, #28]
    4a5a:	68fb      	ldr	r3, [r7, #12]
    4a5c:	68ba      	ldr	r2, [r7, #8]
    4a5e:	605a      	str	r2, [r3, #4]
    4a60:	687b      	ldr	r3, [r7, #4]
    4a62:	785b      	ldrb	r3, [r3, #1]
    4a64:	2b01      	cmp	r3, #1
    4a66:	d003      	beq.n	4a70 <_system_pinmux_config+0x80>
    4a68:	687b      	ldr	r3, [r7, #4]
    4a6a:	785b      	ldrb	r3, [r3, #1]
    4a6c:	2b02      	cmp	r3, #2
    4a6e:	d107      	bne.n	4a80 <_system_pinmux_config+0x90>
    4a70:	69fb      	ldr	r3, [r7, #28]
    4a72:	4a22      	ldr	r2, [pc, #136]	; (4afc <_system_pinmux_config+0x10c>)
    4a74:	4013      	ands	r3, r2
    4a76:	61fb      	str	r3, [r7, #28]
    4a78:	e002      	b.n	4a80 <_system_pinmux_config+0x90>
    4a7a:	68fb      	ldr	r3, [r7, #12]
    4a7c:	68ba      	ldr	r2, [r7, #8]
    4a7e:	605a      	str	r2, [r3, #4]
    4a80:	68bb      	ldr	r3, [r7, #8]
    4a82:	041b      	lsls	r3, r3, #16
    4a84:	0c1b      	lsrs	r3, r3, #16
    4a86:	61bb      	str	r3, [r7, #24]
    4a88:	68bb      	ldr	r3, [r7, #8]
    4a8a:	0c1b      	lsrs	r3, r3, #16
    4a8c:	617b      	str	r3, [r7, #20]
    4a8e:	69ba      	ldr	r2, [r7, #24]
    4a90:	69fb      	ldr	r3, [r7, #28]
    4a92:	4313      	orrs	r3, r2
    4a94:	22a0      	movs	r2, #160	; 0xa0
    4a96:	05d2      	lsls	r2, r2, #23
    4a98:	431a      	orrs	r2, r3
    4a9a:	68fb      	ldr	r3, [r7, #12]
    4a9c:	629a      	str	r2, [r3, #40]	; 0x28
    4a9e:	697a      	ldr	r2, [r7, #20]
    4aa0:	69fb      	ldr	r3, [r7, #28]
    4aa2:	4313      	orrs	r3, r2
    4aa4:	22d0      	movs	r2, #208	; 0xd0
    4aa6:	0612      	lsls	r2, r2, #24
    4aa8:	431a      	orrs	r2, r3
    4aaa:	68fb      	ldr	r3, [r7, #12]
    4aac:	629a      	str	r2, [r3, #40]	; 0x28
    4aae:	687b      	ldr	r3, [r7, #4]
    4ab0:	78db      	ldrb	r3, [r3, #3]
    4ab2:	2201      	movs	r2, #1
    4ab4:	4053      	eors	r3, r2
    4ab6:	b2db      	uxtb	r3, r3
    4ab8:	2b00      	cmp	r3, #0
    4aba:	d01a      	beq.n	4af2 <_system_pinmux_config+0x102>
    4abc:	69fa      	ldr	r2, [r7, #28]
    4abe:	2380      	movs	r3, #128	; 0x80
    4ac0:	02db      	lsls	r3, r3, #11
    4ac2:	4013      	ands	r3, r2
    4ac4:	d00a      	beq.n	4adc <_system_pinmux_config+0xec>
    4ac6:	687b      	ldr	r3, [r7, #4]
    4ac8:	789b      	ldrb	r3, [r3, #2]
    4aca:	2b01      	cmp	r3, #1
    4acc:	d103      	bne.n	4ad6 <_system_pinmux_config+0xe6>
    4ace:	68fb      	ldr	r3, [r7, #12]
    4ad0:	68ba      	ldr	r2, [r7, #8]
    4ad2:	619a      	str	r2, [r3, #24]
    4ad4:	e002      	b.n	4adc <_system_pinmux_config+0xec>
    4ad6:	68fb      	ldr	r3, [r7, #12]
    4ad8:	68ba      	ldr	r2, [r7, #8]
    4ada:	615a      	str	r2, [r3, #20]
    4adc:	687b      	ldr	r3, [r7, #4]
    4ade:	785b      	ldrb	r3, [r3, #1]
    4ae0:	2b01      	cmp	r3, #1
    4ae2:	d003      	beq.n	4aec <_system_pinmux_config+0xfc>
    4ae4:	687b      	ldr	r3, [r7, #4]
    4ae6:	785b      	ldrb	r3, [r3, #1]
    4ae8:	2b02      	cmp	r3, #2
    4aea:	d102      	bne.n	4af2 <_system_pinmux_config+0x102>
    4aec:	68fb      	ldr	r3, [r7, #12]
    4aee:	68ba      	ldr	r2, [r7, #8]
    4af0:	609a      	str	r2, [r3, #8]
    4af2:	46c0      	nop			; (mov r8, r8)
    4af4:	46bd      	mov	sp, r7
    4af6:	b008      	add	sp, #32
    4af8:	bd80      	pop	{r7, pc}
    4afa:	46c0      	nop			; (mov r8, r8)
    4afc:	fffbffff 	.word	0xfffbffff

00004b00 <system_pinmux_pin_set_config>:
    4b00:	b580      	push	{r7, lr}
    4b02:	b084      	sub	sp, #16
    4b04:	af00      	add	r7, sp, #0
    4b06:	0002      	movs	r2, r0
    4b08:	6039      	str	r1, [r7, #0]
    4b0a:	1dfb      	adds	r3, r7, #7
    4b0c:	701a      	strb	r2, [r3, #0]
    4b0e:	1dfb      	adds	r3, r7, #7
    4b10:	781b      	ldrb	r3, [r3, #0]
    4b12:	0018      	movs	r0, r3
    4b14:	4b0a      	ldr	r3, [pc, #40]	; (4b40 <system_pinmux_pin_set_config+0x40>)
    4b16:	4798      	blx	r3
    4b18:	0003      	movs	r3, r0
    4b1a:	60fb      	str	r3, [r7, #12]
    4b1c:	1dfb      	adds	r3, r7, #7
    4b1e:	781b      	ldrb	r3, [r3, #0]
    4b20:	221f      	movs	r2, #31
    4b22:	4013      	ands	r3, r2
    4b24:	2201      	movs	r2, #1
    4b26:	409a      	lsls	r2, r3
    4b28:	0013      	movs	r3, r2
    4b2a:	60bb      	str	r3, [r7, #8]
    4b2c:	683a      	ldr	r2, [r7, #0]
    4b2e:	68b9      	ldr	r1, [r7, #8]
    4b30:	68fb      	ldr	r3, [r7, #12]
    4b32:	0018      	movs	r0, r3
    4b34:	4b03      	ldr	r3, [pc, #12]	; (4b44 <system_pinmux_pin_set_config+0x44>)
    4b36:	4798      	blx	r3
    4b38:	46c0      	nop			; (mov r8, r8)
    4b3a:	46bd      	mov	sp, r7
    4b3c:	b004      	add	sp, #16
    4b3e:	bd80      	pop	{r7, pc}
    4b40:	00004991 	.word	0x00004991
    4b44:	000049f1 	.word	0x000049f1

00004b48 <_system_dummy_init>:
    4b48:	b580      	push	{r7, lr}
    4b4a:	af00      	add	r7, sp, #0
    4b4c:	46c0      	nop			; (mov r8, r8)
    4b4e:	46bd      	mov	sp, r7
    4b50:	bd80      	pop	{r7, pc}
	...

00004b54 <system_init>:
    4b54:	b580      	push	{r7, lr}
    4b56:	af00      	add	r7, sp, #0
    4b58:	4b06      	ldr	r3, [pc, #24]	; (4b74 <system_init+0x20>)
    4b5a:	4798      	blx	r3
    4b5c:	4b06      	ldr	r3, [pc, #24]	; (4b78 <system_init+0x24>)
    4b5e:	4798      	blx	r3
    4b60:	4b06      	ldr	r3, [pc, #24]	; (4b7c <system_init+0x28>)
    4b62:	4798      	blx	r3
    4b64:	4b06      	ldr	r3, [pc, #24]	; (4b80 <system_init+0x2c>)
    4b66:	4798      	blx	r3
    4b68:	4b06      	ldr	r3, [pc, #24]	; (4b84 <system_init+0x30>)
    4b6a:	4798      	blx	r3
    4b6c:	46c0      	nop			; (mov r8, r8)
    4b6e:	46bd      	mov	sp, r7
    4b70:	bd80      	pop	{r7, pc}
    4b72:	46c0      	nop			; (mov r8, r8)
    4b74:	00004439 	.word	0x00004439
    4b78:	000040f5 	.word	0x000040f5
    4b7c:	00004b49 	.word	0x00004b49
    4b80:	00004b49 	.word	0x00004b49
    4b84:	00004b49 	.word	0x00004b49

00004b88 <Reset_Handler>:
    4b88:	b580      	push	{r7, lr}
    4b8a:	b082      	sub	sp, #8
    4b8c:	af00      	add	r7, sp, #0
    4b8e:	4b19      	ldr	r3, [pc, #100]	; (4bf4 <Reset_Handler+0x6c>)
    4b90:	607b      	str	r3, [r7, #4]
    4b92:	4b19      	ldr	r3, [pc, #100]	; (4bf8 <Reset_Handler+0x70>)
    4b94:	603b      	str	r3, [r7, #0]
    4b96:	687a      	ldr	r2, [r7, #4]
    4b98:	683b      	ldr	r3, [r7, #0]
    4b9a:	429a      	cmp	r2, r3
    4b9c:	d00c      	beq.n	4bb8 <Reset_Handler+0x30>
    4b9e:	e007      	b.n	4bb0 <Reset_Handler+0x28>
    4ba0:	683b      	ldr	r3, [r7, #0]
    4ba2:	1d1a      	adds	r2, r3, #4
    4ba4:	603a      	str	r2, [r7, #0]
    4ba6:	687a      	ldr	r2, [r7, #4]
    4ba8:	1d11      	adds	r1, r2, #4
    4baa:	6079      	str	r1, [r7, #4]
    4bac:	6812      	ldr	r2, [r2, #0]
    4bae:	601a      	str	r2, [r3, #0]
    4bb0:	683a      	ldr	r2, [r7, #0]
    4bb2:	4b12      	ldr	r3, [pc, #72]	; (4bfc <Reset_Handler+0x74>)
    4bb4:	429a      	cmp	r2, r3
    4bb6:	d3f3      	bcc.n	4ba0 <Reset_Handler+0x18>
    4bb8:	4b11      	ldr	r3, [pc, #68]	; (4c00 <Reset_Handler+0x78>)
    4bba:	603b      	str	r3, [r7, #0]
    4bbc:	e004      	b.n	4bc8 <Reset_Handler+0x40>
    4bbe:	683b      	ldr	r3, [r7, #0]
    4bc0:	1d1a      	adds	r2, r3, #4
    4bc2:	603a      	str	r2, [r7, #0]
    4bc4:	2200      	movs	r2, #0
    4bc6:	601a      	str	r2, [r3, #0]
    4bc8:	683a      	ldr	r2, [r7, #0]
    4bca:	4b0e      	ldr	r3, [pc, #56]	; (4c04 <Reset_Handler+0x7c>)
    4bcc:	429a      	cmp	r2, r3
    4bce:	d3f6      	bcc.n	4bbe <Reset_Handler+0x36>
    4bd0:	4b0d      	ldr	r3, [pc, #52]	; (4c08 <Reset_Handler+0x80>)
    4bd2:	607b      	str	r3, [r7, #4]
    4bd4:	4b0d      	ldr	r3, [pc, #52]	; (4c0c <Reset_Handler+0x84>)
    4bd6:	687a      	ldr	r2, [r7, #4]
    4bd8:	21ff      	movs	r1, #255	; 0xff
    4bda:	438a      	bics	r2, r1
    4bdc:	609a      	str	r2, [r3, #8]
    4bde:	4a0c      	ldr	r2, [pc, #48]	; (4c10 <Reset_Handler+0x88>)
    4be0:	6853      	ldr	r3, [r2, #4]
    4be2:	2180      	movs	r1, #128	; 0x80
    4be4:	430b      	orrs	r3, r1
    4be6:	6053      	str	r3, [r2, #4]
    4be8:	4b0a      	ldr	r3, [pc, #40]	; (4c14 <Reset_Handler+0x8c>)
    4bea:	4798      	blx	r3
    4bec:	4b0a      	ldr	r3, [pc, #40]	; (4c18 <Reset_Handler+0x90>)
    4bee:	4798      	blx	r3
    4bf0:	e7fe      	b.n	4bf0 <Reset_Handler+0x68>
    4bf2:	46c0      	nop			; (mov r8, r8)
    4bf4:	0000762c 	.word	0x0000762c
    4bf8:	20000000 	.word	0x20000000
    4bfc:	20000010 	.word	0x20000010
    4c00:	20000010 	.word	0x20000010
    4c04:	200001a4 	.word	0x200001a4
    4c08:	00000000 	.word	0x00000000
    4c0c:	e000ed00 	.word	0xe000ed00
    4c10:	41004000 	.word	0x41004000
    4c14:	00007251 	.word	0x00007251
    4c18:	00004e79 	.word	0x00004e79

00004c1c <Dummy_Handler>:
    4c1c:	b580      	push	{r7, lr}
    4c1e:	af00      	add	r7, sp, #0
    4c20:	e7fe      	b.n	4c20 <Dummy_Handler+0x4>

00004c22 <system_voltage_regulator_get_config_defaults>:
    4c22:	b580      	push	{r7, lr}
    4c24:	b082      	sub	sp, #8
    4c26:	af00      	add	r7, sp, #0
    4c28:	6078      	str	r0, [r7, #4]
    4c2a:	687b      	ldr	r3, [r7, #4]
    4c2c:	2200      	movs	r2, #0
    4c2e:	701a      	strb	r2, [r3, #0]
    4c30:	687b      	ldr	r3, [r7, #4]
    4c32:	2200      	movs	r2, #0
    4c34:	705a      	strb	r2, [r3, #1]
    4c36:	687b      	ldr	r3, [r7, #4]
    4c38:	2200      	movs	r2, #0
    4c3a:	709a      	strb	r2, [r3, #2]
    4c3c:	687b      	ldr	r3, [r7, #4]
    4c3e:	2200      	movs	r2, #0
    4c40:	70da      	strb	r2, [r3, #3]
    4c42:	687b      	ldr	r3, [r7, #4]
    4c44:	2200      	movs	r2, #0
    4c46:	711a      	strb	r2, [r3, #4]
    4c48:	687b      	ldr	r3, [r7, #4]
    4c4a:	2200      	movs	r2, #0
    4c4c:	715a      	strb	r2, [r3, #5]
    4c4e:	46c0      	nop			; (mov r8, r8)
    4c50:	46bd      	mov	sp, r7
    4c52:	b002      	add	sp, #8
    4c54:	bd80      	pop	{r7, pc}
	...

00004c58 <system_voltage_regulator_set_config>:
    4c58:	b580      	push	{r7, lr}
    4c5a:	b082      	sub	sp, #8
    4c5c:	af00      	add	r7, sp, #0
    4c5e:	6078      	str	r0, [r7, #4]
    4c60:	4a2b      	ldr	r2, [pc, #172]	; (4d10 <system_voltage_regulator_set_config+0xb8>)
    4c62:	687b      	ldr	r3, [r7, #4]
    4c64:	7819      	ldrb	r1, [r3, #0]
    4c66:	6993      	ldr	r3, [r2, #24]
    4c68:	0609      	lsls	r1, r1, #24
    4c6a:	021b      	lsls	r3, r3, #8
    4c6c:	0a1b      	lsrs	r3, r3, #8
    4c6e:	430b      	orrs	r3, r1
    4c70:	6193      	str	r3, [r2, #24]
    4c72:	4a27      	ldr	r2, [pc, #156]	; (4d10 <system_voltage_regulator_set_config+0xb8>)
    4c74:	687b      	ldr	r3, [r7, #4]
    4c76:	785b      	ldrb	r3, [r3, #1]
    4c78:	1c19      	adds	r1, r3, #0
    4c7a:	230f      	movs	r3, #15
    4c7c:	400b      	ands	r3, r1
    4c7e:	b2d9      	uxtb	r1, r3
    4c80:	6993      	ldr	r3, [r2, #24]
    4c82:	200f      	movs	r0, #15
    4c84:	4001      	ands	r1, r0
    4c86:	0409      	lsls	r1, r1, #16
    4c88:	4822      	ldr	r0, [pc, #136]	; (4d14 <system_voltage_regulator_set_config+0xbc>)
    4c8a:	4003      	ands	r3, r0
    4c8c:	430b      	orrs	r3, r1
    4c8e:	6193      	str	r3, [r2, #24]
    4c90:	4a1f      	ldr	r2, [pc, #124]	; (4d10 <system_voltage_regulator_set_config+0xb8>)
    4c92:	687b      	ldr	r3, [r7, #4]
    4c94:	7899      	ldrb	r1, [r3, #2]
    4c96:	6993      	ldr	r3, [r2, #24]
    4c98:	2001      	movs	r0, #1
    4c9a:	4001      	ands	r1, r0
    4c9c:	0189      	lsls	r1, r1, #6
    4c9e:	2040      	movs	r0, #64	; 0x40
    4ca0:	4383      	bics	r3, r0
    4ca2:	430b      	orrs	r3, r1
    4ca4:	6193      	str	r3, [r2, #24]
    4ca6:	4a1a      	ldr	r2, [pc, #104]	; (4d10 <system_voltage_regulator_set_config+0xb8>)
    4ca8:	687b      	ldr	r3, [r7, #4]
    4caa:	78db      	ldrb	r3, [r3, #3]
    4cac:	1c19      	adds	r1, r3, #0
    4cae:	2303      	movs	r3, #3
    4cb0:	400b      	ands	r3, r1
    4cb2:	b2d9      	uxtb	r1, r3
    4cb4:	6993      	ldr	r3, [r2, #24]
    4cb6:	2003      	movs	r0, #3
    4cb8:	4001      	ands	r1, r0
    4cba:	0089      	lsls	r1, r1, #2
    4cbc:	200c      	movs	r0, #12
    4cbe:	4383      	bics	r3, r0
    4cc0:	430b      	orrs	r3, r1
    4cc2:	6193      	str	r3, [r2, #24]
    4cc4:	4a12      	ldr	r2, [pc, #72]	; (4d10 <system_voltage_regulator_set_config+0xb8>)
    4cc6:	687b      	ldr	r3, [r7, #4]
    4cc8:	791b      	ldrb	r3, [r3, #4]
    4cca:	1c19      	adds	r1, r3, #0
    4ccc:	2301      	movs	r3, #1
    4cce:	400b      	ands	r3, r1
    4cd0:	b2d9      	uxtb	r1, r3
    4cd2:	6993      	ldr	r3, [r2, #24]
    4cd4:	2001      	movs	r0, #1
    4cd6:	4001      	ands	r1, r0
    4cd8:	0209      	lsls	r1, r1, #8
    4cda:	480f      	ldr	r0, [pc, #60]	; (4d18 <system_voltage_regulator_set_config+0xc0>)
    4cdc:	4003      	ands	r3, r0
    4cde:	430b      	orrs	r3, r1
    4ce0:	6193      	str	r3, [r2, #24]
    4ce2:	4a0b      	ldr	r2, [pc, #44]	; (4d10 <system_voltage_regulator_set_config+0xb8>)
    4ce4:	687b      	ldr	r3, [r7, #4]
    4ce6:	7959      	ldrb	r1, [r3, #5]
    4ce8:	6993      	ldr	r3, [r2, #24]
    4cea:	2001      	movs	r0, #1
    4cec:	4001      	ands	r1, r0
    4cee:	0149      	lsls	r1, r1, #5
    4cf0:	2020      	movs	r0, #32
    4cf2:	4383      	bics	r3, r0
    4cf4:	430b      	orrs	r3, r1
    4cf6:	6193      	str	r3, [r2, #24]
    4cf8:	46c0      	nop			; (mov r8, r8)
    4cfa:	4b05      	ldr	r3, [pc, #20]	; (4d10 <system_voltage_regulator_set_config+0xb8>)
    4cfc:	68da      	ldr	r2, [r3, #12]
    4cfe:	2380      	movs	r3, #128	; 0x80
    4d00:	005b      	lsls	r3, r3, #1
    4d02:	4013      	ands	r3, r2
    4d04:	d0f9      	beq.n	4cfa <system_voltage_regulator_set_config+0xa2>
    4d06:	46c0      	nop			; (mov r8, r8)
    4d08:	46bd      	mov	sp, r7
    4d0a:	b002      	add	sp, #8
    4d0c:	bd80      	pop	{r7, pc}
    4d0e:	46c0      	nop			; (mov r8, r8)
    4d10:	40001400 	.word	0x40001400
    4d14:	fff0ffff 	.word	0xfff0ffff
    4d18:	fffffeff 	.word	0xfffffeff

00004d1c <system_switch_performance_level>:
    4d1c:	b580      	push	{r7, lr}
    4d1e:	b082      	sub	sp, #8
    4d20:	af00      	add	r7, sp, #0
    4d22:	0002      	movs	r2, r0
    4d24:	1dfb      	adds	r3, r7, #7
    4d26:	701a      	strb	r2, [r3, #0]
    4d28:	2380      	movs	r3, #128	; 0x80
    4d2a:	05db      	lsls	r3, r3, #23
    4d2c:	789b      	ldrb	r3, [r3, #2]
    4d2e:	b2db      	uxtb	r3, r3
    4d30:	1dfa      	adds	r2, r7, #7
    4d32:	7812      	ldrb	r2, [r2, #0]
    4d34:	429a      	cmp	r2, r3
    4d36:	d101      	bne.n	4d3c <system_switch_performance_level+0x20>
    4d38:	2300      	movs	r3, #0
    4d3a:	e019      	b.n	4d70 <system_switch_performance_level+0x54>
    4d3c:	2380      	movs	r3, #128	; 0x80
    4d3e:	05db      	lsls	r3, r3, #23
    4d40:	789b      	ldrb	r3, [r3, #2]
    4d42:	b2db      	uxtb	r3, r3
    4d44:	b25b      	sxtb	r3, r3
    4d46:	2b00      	cmp	r3, #0
    4d48:	da01      	bge.n	4d4e <system_switch_performance_level+0x32>
    4d4a:	2317      	movs	r3, #23
    4d4c:	e010      	b.n	4d70 <system_switch_performance_level+0x54>
    4d4e:	2380      	movs	r3, #128	; 0x80
    4d50:	05db      	lsls	r3, r3, #23
    4d52:	2201      	movs	r2, #1
    4d54:	719a      	strb	r2, [r3, #6]
    4d56:	2380      	movs	r3, #128	; 0x80
    4d58:	05db      	lsls	r3, r3, #23
    4d5a:	1dfa      	adds	r2, r7, #7
    4d5c:	7812      	ldrb	r2, [r2, #0]
    4d5e:	709a      	strb	r2, [r3, #2]
    4d60:	46c0      	nop			; (mov r8, r8)
    4d62:	2380      	movs	r3, #128	; 0x80
    4d64:	05db      	lsls	r3, r3, #23
    4d66:	799b      	ldrb	r3, [r3, #6]
    4d68:	b2db      	uxtb	r3, r3
    4d6a:	2b00      	cmp	r3, #0
    4d6c:	d0f9      	beq.n	4d62 <system_switch_performance_level+0x46>
    4d6e:	2300      	movs	r3, #0
    4d70:	0018      	movs	r0, r3
    4d72:	46bd      	mov	sp, r7
    4d74:	b002      	add	sp, #8
    4d76:	bd80      	pop	{r7, pc}

00004d78 <system_performance_level_disable>:
    4d78:	b580      	push	{r7, lr}
    4d7a:	af00      	add	r7, sp, #0
    4d7c:	2380      	movs	r3, #128	; 0x80
    4d7e:	05db      	lsls	r3, r3, #23
    4d80:	2280      	movs	r2, #128	; 0x80
    4d82:	05d2      	lsls	r2, r2, #23
    4d84:	7892      	ldrb	r2, [r2, #2]
    4d86:	b2d2      	uxtb	r2, r2
    4d88:	2180      	movs	r1, #128	; 0x80
    4d8a:	4249      	negs	r1, r1
    4d8c:	430a      	orrs	r2, r1
    4d8e:	b2d2      	uxtb	r2, r2
    4d90:	709a      	strb	r2, [r3, #2]
    4d92:	46c0      	nop			; (mov r8, r8)
    4d94:	46bd      	mov	sp, r7
    4d96:	bd80      	pop	{r7, pc}

00004d98 <system_interrupt_enable_global>:
    4d98:	b580      	push	{r7, lr}
    4d9a:	af00      	add	r7, sp, #0
    4d9c:	4b04      	ldr	r3, [pc, #16]	; (4db0 <system_interrupt_enable_global+0x18>)
    4d9e:	2201      	movs	r2, #1
    4da0:	701a      	strb	r2, [r3, #0]
    4da2:	f3bf 8f5f 	dmb	sy
    4da6:	b662      	cpsie	i
    4da8:	46c0      	nop			; (mov r8, r8)
    4daa:	46bd      	mov	sp, r7
    4dac:	bd80      	pop	{r7, pc}
    4dae:	46c0      	nop			; (mov r8, r8)
    4db0:	2000000c 	.word	0x2000000c

00004db4 <bod33_disable>:
    4db4:	b580      	push	{r7, lr}
    4db6:	af00      	add	r7, sp, #0
    4db8:	4b07      	ldr	r3, [pc, #28]	; (4dd8 <bod33_disable+0x24>)
    4dba:	2207      	movs	r2, #7
    4dbc:	601a      	str	r2, [r3, #0]
    4dbe:	4b06      	ldr	r3, [pc, #24]	; (4dd8 <bod33_disable+0x24>)
    4dc0:	2207      	movs	r2, #7
    4dc2:	609a      	str	r2, [r3, #8]
    4dc4:	4b04      	ldr	r3, [pc, #16]	; (4dd8 <bod33_disable+0x24>)
    4dc6:	4a04      	ldr	r2, [pc, #16]	; (4dd8 <bod33_disable+0x24>)
    4dc8:	6912      	ldr	r2, [r2, #16]
    4dca:	2102      	movs	r1, #2
    4dcc:	438a      	bics	r2, r1
    4dce:	611a      	str	r2, [r3, #16]
    4dd0:	2300      	movs	r3, #0
    4dd2:	0018      	movs	r0, r3
    4dd4:	46bd      	mov	sp, r7
    4dd6:	bd80      	pop	{r7, pc}
    4dd8:	40001400 	.word	0x40001400

00004ddc <bod12_disable>:
    4ddc:	b580      	push	{r7, lr}
    4dde:	af00      	add	r7, sp, #0
    4de0:	4b07      	ldr	r3, [pc, #28]	; (4e00 <bod12_disable+0x24>)
    4de2:	2238      	movs	r2, #56	; 0x38
    4de4:	601a      	str	r2, [r3, #0]
    4de6:	4b06      	ldr	r3, [pc, #24]	; (4e00 <bod12_disable+0x24>)
    4de8:	2238      	movs	r2, #56	; 0x38
    4dea:	609a      	str	r2, [r3, #8]
    4dec:	4b04      	ldr	r3, [pc, #16]	; (4e00 <bod12_disable+0x24>)
    4dee:	4a04      	ldr	r2, [pc, #16]	; (4e00 <bod12_disable+0x24>)
    4df0:	6952      	ldr	r2, [r2, #20]
    4df2:	2102      	movs	r1, #2
    4df4:	438a      	bics	r2, r1
    4df6:	615a      	str	r2, [r3, #20]
    4df8:	2300      	movs	r3, #0
    4dfa:	0018      	movs	r0, r3
    4dfc:	46bd      	mov	sp, r7
    4dfe:	bd80      	pop	{r7, pc}
    4e00:	40001400 	.word	0x40001400

00004e04 <flash_led>:
    4e04:	b5f8      	push	{r3, r4, r5, r6, r7, lr}
    4e06:	af00      	add	r7, sp, #0
    4e08:	20a0      	movs	r0, #160	; 0xa0
    4e0a:	4b14      	ldr	r3, [pc, #80]	; (4e5c <flash_led+0x58>)
    4e0c:	4798      	blx	r3
    4e0e:	2000      	movs	r0, #0
    4e10:	4b13      	ldr	r3, [pc, #76]	; (4e60 <flash_led+0x5c>)
    4e12:	4798      	blx	r3
    4e14:	0003      	movs	r3, r0
    4e16:	001d      	movs	r5, r3
    4e18:	2300      	movs	r3, #0
    4e1a:	001e      	movs	r6, r3
    4e1c:	4c11      	ldr	r4, [pc, #68]	; (4e64 <flash_led+0x60>)
    4e1e:	2232      	movs	r2, #50	; 0x32
    4e20:	2300      	movs	r3, #0
    4e22:	0028      	movs	r0, r5
    4e24:	0031      	movs	r1, r6
    4e26:	47a0      	blx	r4
    4e28:	0003      	movs	r3, r0
    4e2a:	000c      	movs	r4, r1
    4e2c:	0019      	movs	r1, r3
    4e2e:	0022      	movs	r2, r4
    4e30:	4b0d      	ldr	r3, [pc, #52]	; (4e68 <flash_led+0x64>)
    4e32:	2400      	movs	r4, #0
    4e34:	18c9      	adds	r1, r1, r3
    4e36:	4162      	adcs	r2, r4
    4e38:	0008      	movs	r0, r1
    4e3a:	0011      	movs	r1, r2
    4e3c:	4c0b      	ldr	r4, [pc, #44]	; (4e6c <flash_led+0x68>)
    4e3e:	4a0c      	ldr	r2, [pc, #48]	; (4e70 <flash_led+0x6c>)
    4e40:	2300      	movs	r3, #0
    4e42:	47a0      	blx	r4
    4e44:	0003      	movs	r3, r0
    4e46:	000c      	movs	r4, r1
    4e48:	0018      	movs	r0, r3
    4e4a:	4b0a      	ldr	r3, [pc, #40]	; (4e74 <flash_led+0x70>)
    4e4c:	4798      	blx	r3
    4e4e:	2000      	movs	r0, #0
    4e50:	4b02      	ldr	r3, [pc, #8]	; (4e5c <flash_led+0x58>)
    4e52:	4798      	blx	r3
    4e54:	46c0      	nop			; (mov r8, r8)
    4e56:	46bd      	mov	sp, r7
    4e58:	bdf8      	pop	{r3, r4, r5, r6, r7, pc}
    4e5a:	46c0      	nop			; (mov r8, r8)
    4e5c:	00002da9 	.word	0x00002da9
    4e60:	0000478d 	.word	0x0000478d
    4e64:	00005415 	.word	0x00005415
    4e68:	006acfbf 	.word	0x006acfbf
    4e6c:	000053d5 	.word	0x000053d5
    4e70:	006acfc0 	.word	0x006acfc0
    4e74:	20000001 	.word	0x20000001

00004e78 <main>:
    4e78:	b5f0      	push	{r4, r5, r6, r7, lr}
    4e7a:	b091      	sub	sp, #68	; 0x44
    4e7c:	af00      	add	r7, sp, #0
    4e7e:	4b67      	ldr	r3, [pc, #412]	; (501c <main+0x1a4>)
    4e80:	4798      	blx	r3
    4e82:	4b67      	ldr	r3, [pc, #412]	; (5020 <main+0x1a8>)
    4e84:	4798      	blx	r3
    4e86:	4b67      	ldr	r3, [pc, #412]	; (5024 <main+0x1ac>)
    4e88:	4798      	blx	r3
    4e8a:	2000      	movs	r0, #0
    4e8c:	4b66      	ldr	r3, [pc, #408]	; (5028 <main+0x1b0>)
    4e8e:	4798      	blx	r3
    4e90:	4b66      	ldr	r3, [pc, #408]	; (502c <main+0x1b4>)
    4e92:	4798      	blx	r3
    4e94:	2318      	movs	r3, #24
    4e96:	2210      	movs	r2, #16
    4e98:	4694      	mov	ip, r2
    4e9a:	44bc      	add	ip, r7
    4e9c:	4463      	add	r3, ip
    4e9e:	0018      	movs	r0, r3
    4ea0:	4b63      	ldr	r3, [pc, #396]	; (5030 <main+0x1b8>)
    4ea2:	4798      	blx	r3
    4ea4:	2318      	movs	r3, #24
    4ea6:	2210      	movs	r2, #16
    4ea8:	4694      	mov	ip, r2
    4eaa:	44bc      	add	ip, r7
    4eac:	4463      	add	r3, ip
    4eae:	2201      	movs	r2, #1
    4eb0:	70da      	strb	r2, [r3, #3]
    4eb2:	2318      	movs	r3, #24
    4eb4:	2210      	movs	r2, #16
    4eb6:	4694      	mov	ip, r2
    4eb8:	44bc      	add	ip, r7
    4eba:	4463      	add	r3, ip
    4ebc:	2201      	movs	r2, #1
    4ebe:	711a      	strb	r2, [r3, #4]
    4ec0:	2318      	movs	r3, #24
    4ec2:	2210      	movs	r2, #16
    4ec4:	4694      	mov	ip, r2
    4ec6:	44bc      	add	ip, r7
    4ec8:	4463      	add	r3, ip
    4eca:	2201      	movs	r2, #1
    4ecc:	715a      	strb	r2, [r3, #5]
    4ece:	2318      	movs	r3, #24
    4ed0:	2210      	movs	r2, #16
    4ed2:	4694      	mov	ip, r2
    4ed4:	44bc      	add	ip, r7
    4ed6:	4463      	add	r3, ip
    4ed8:	0018      	movs	r0, r3
    4eda:	4b56      	ldr	r3, [pc, #344]	; (5034 <main+0x1bc>)
    4edc:	4798      	blx	r3
    4ede:	4b56      	ldr	r3, [pc, #344]	; (5038 <main+0x1c0>)
    4ee0:	4798      	blx	r3
    4ee2:	4b56      	ldr	r3, [pc, #344]	; (503c <main+0x1c4>)
    4ee4:	4798      	blx	r3
    4ee6:	4b56      	ldr	r3, [pc, #344]	; (5040 <main+0x1c8>)
    4ee8:	4798      	blx	r3
    4eea:	4b56      	ldr	r3, [pc, #344]	; (5044 <main+0x1cc>)
    4eec:	4798      	blx	r3
    4eee:	4b56      	ldr	r3, [pc, #344]	; (5048 <main+0x1d0>)
    4ef0:	4798      	blx	r3
    4ef2:	4b56      	ldr	r3, [pc, #344]	; (504c <main+0x1d4>)
    4ef4:	0018      	movs	r0, r3
    4ef6:	4b56      	ldr	r3, [pc, #344]	; (5050 <main+0x1d8>)
    4ef8:	4798      	blx	r3
    4efa:	4b56      	ldr	r3, [pc, #344]	; (5054 <main+0x1dc>)
    4efc:	4798      	blx	r3
    4efe:	4b56      	ldr	r3, [pc, #344]	; (5058 <main+0x1e0>)
    4f00:	4798      	blx	r3
    4f02:	4b56      	ldr	r3, [pc, #344]	; (505c <main+0x1e4>)
    4f04:	4798      	blx	r3
    4f06:	4b56      	ldr	r3, [pc, #344]	; (5060 <main+0x1e8>)
    4f08:	4798      	blx	r3
    4f0a:	2300      	movs	r3, #0
    4f0c:	63fb      	str	r3, [r7, #60]	; 0x3c
    4f0e:	e007      	b.n	4f20 <main+0xa8>
    4f10:	20c8      	movs	r0, #200	; 0xc8
    4f12:	4b54      	ldr	r3, [pc, #336]	; (5064 <main+0x1ec>)
    4f14:	4798      	blx	r3
    4f16:	4b54      	ldr	r3, [pc, #336]	; (5068 <main+0x1f0>)
    4f18:	4798      	blx	r3
    4f1a:	6bfb      	ldr	r3, [r7, #60]	; 0x3c
    4f1c:	3301      	adds	r3, #1
    4f1e:	63fb      	str	r3, [r7, #60]	; 0x3c
    4f20:	6bfb      	ldr	r3, [r7, #60]	; 0x3c
    4f22:	2b02      	cmp	r3, #2
    4f24:	ddf4      	ble.n	4f10 <main+0x98>
    4f26:	4b49      	ldr	r3, [pc, #292]	; (504c <main+0x1d4>)
    4f28:	63bb      	str	r3, [r7, #56]	; 0x38
    4f2a:	6bfb      	ldr	r3, [r7, #60]	; 0x3c
    4f2c:	1c5a      	adds	r2, r3, #1
    4f2e:	4b4f      	ldr	r3, [pc, #316]	; (506c <main+0x1f4>)
    4f30:	2103      	movs	r1, #3
    4f32:	0010      	movs	r0, r2
    4f34:	4798      	blx	r3
    4f36:	1e0b      	subs	r3, r1, #0
    4f38:	d104      	bne.n	4f44 <main+0xcc>
    4f3a:	6bbb      	ldr	r3, [r7, #56]	; 0x38
    4f3c:	0018      	movs	r0, r3
    4f3e:	4b44      	ldr	r3, [pc, #272]	; (5050 <main+0x1d8>)
    4f40:	4798      	blx	r3
    4f42:	e04a      	b.n	4fda <main+0x162>
    4f44:	6bfb      	ldr	r3, [r7, #60]	; 0x3c
    4f46:	1c9a      	adds	r2, r3, #2
    4f48:	4b48      	ldr	r3, [pc, #288]	; (506c <main+0x1f4>)
    4f4a:	2103      	movs	r1, #3
    4f4c:	0010      	movs	r0, r2
    4f4e:	4798      	blx	r3
    4f50:	1e0b      	subs	r3, r1, #0
    4f52:	d104      	bne.n	4f5e <main+0xe6>
    4f54:	6bbb      	ldr	r3, [r7, #56]	; 0x38
    4f56:	0018      	movs	r0, r3
    4f58:	4b42      	ldr	r3, [pc, #264]	; (5064 <main+0x1ec>)
    4f5a:	4798      	blx	r3
    4f5c:	e03d      	b.n	4fda <main+0x162>
    4f5e:	6bbb      	ldr	r3, [r7, #56]	; 0x38
    4f60:	2b00      	cmp	r3, #0
    4f62:	d024      	beq.n	4fae <main+0x136>
    4f64:	6bbb      	ldr	r3, [r7, #56]	; 0x38
    4f66:	60bb      	str	r3, [r7, #8]
    4f68:	2300      	movs	r3, #0
    4f6a:	60fb      	str	r3, [r7, #12]
    4f6c:	2000      	movs	r0, #0
    4f6e:	4b40      	ldr	r3, [pc, #256]	; (5070 <main+0x1f8>)
    4f70:	4798      	blx	r3
    4f72:	0003      	movs	r3, r0
    4f74:	603b      	str	r3, [r7, #0]
    4f76:	2300      	movs	r3, #0
    4f78:	607b      	str	r3, [r7, #4]
    4f7a:	4c3e      	ldr	r4, [pc, #248]	; (5074 <main+0x1fc>)
    4f7c:	683a      	ldr	r2, [r7, #0]
    4f7e:	687b      	ldr	r3, [r7, #4]
    4f80:	68b8      	ldr	r0, [r7, #8]
    4f82:	68f9      	ldr	r1, [r7, #12]
    4f84:	47a0      	blx	r4
    4f86:	0003      	movs	r3, r0
    4f88:	000c      	movs	r4, r1
    4f8a:	0019      	movs	r1, r3
    4f8c:	0022      	movs	r2, r4
    4f8e:	4b3a      	ldr	r3, [pc, #232]	; (5078 <main+0x200>)
    4f90:	2400      	movs	r4, #0
    4f92:	18c9      	adds	r1, r1, r3
    4f94:	4162      	adcs	r2, r4
    4f96:	0008      	movs	r0, r1
    4f98:	0011      	movs	r1, r2
    4f9a:	4c38      	ldr	r4, [pc, #224]	; (507c <main+0x204>)
    4f9c:	4a38      	ldr	r2, [pc, #224]	; (5080 <main+0x208>)
    4f9e:	2300      	movs	r3, #0
    4fa0:	47a0      	blx	r4
    4fa2:	0003      	movs	r3, r0
    4fa4:	000c      	movs	r4, r1
    4fa6:	0018      	movs	r0, r3
    4fa8:	4b36      	ldr	r3, [pc, #216]	; (5084 <main+0x20c>)
    4faa:	4798      	blx	r3
    4fac:	e015      	b.n	4fda <main+0x162>
    4fae:	2000      	movs	r0, #0
    4fb0:	4b2f      	ldr	r3, [pc, #188]	; (5070 <main+0x1f8>)
    4fb2:	4798      	blx	r3
    4fb4:	0003      	movs	r3, r0
    4fb6:	001d      	movs	r5, r3
    4fb8:	2300      	movs	r3, #0
    4fba:	001e      	movs	r6, r3
    4fbc:	4b32      	ldr	r3, [pc, #200]	; (5088 <main+0x210>)
    4fbe:	2400      	movs	r4, #0
    4fc0:	195b      	adds	r3, r3, r5
    4fc2:	4174      	adcs	r4, r6
    4fc4:	0018      	movs	r0, r3
    4fc6:	0021      	movs	r1, r4
    4fc8:	4c2c      	ldr	r4, [pc, #176]	; (507c <main+0x204>)
    4fca:	4a30      	ldr	r2, [pc, #192]	; (508c <main+0x214>)
    4fcc:	2300      	movs	r3, #0
    4fce:	47a0      	blx	r4
    4fd0:	0003      	movs	r3, r0
    4fd2:	000c      	movs	r4, r1
    4fd4:	0018      	movs	r0, r3
    4fd6:	4b2b      	ldr	r3, [pc, #172]	; (5084 <main+0x20c>)
    4fd8:	4798      	blx	r3
    4fda:	230c      	movs	r3, #12
    4fdc:	2210      	movs	r2, #16
    4fde:	4694      	mov	ip, r2
    4fe0:	44bc      	add	ip, r7
    4fe2:	4463      	add	r3, ip
    4fe4:	0018      	movs	r0, r3
    4fe6:	4b2a      	ldr	r3, [pc, #168]	; (5090 <main+0x218>)
    4fe8:	4798      	blx	r3
    4fea:	2314      	movs	r3, #20
    4fec:	18fb      	adds	r3, r7, r3
    4fee:	0018      	movs	r0, r3
    4ff0:	4b28      	ldr	r3, [pc, #160]	; (5094 <main+0x21c>)
    4ff2:	4798      	blx	r3
    4ff4:	2326      	movs	r3, #38	; 0x26
    4ff6:	2210      	movs	r2, #16
    4ff8:	18ba      	adds	r2, r7, r2
    4ffa:	18d4      	adds	r4, r2, r3
    4ffc:	2002      	movs	r0, #2
    4ffe:	4b26      	ldr	r3, [pc, #152]	; (5098 <main+0x220>)
    5000:	4798      	blx	r3
    5002:	0003      	movs	r3, r0
    5004:	8023      	strh	r3, [r4, #0]
    5006:	4b25      	ldr	r3, [pc, #148]	; (509c <main+0x224>)
    5008:	4798      	blx	r3
    500a:	0003      	movs	r3, r0
    500c:	633b      	str	r3, [r7, #48]	; 0x30
    500e:	4b16      	ldr	r3, [pc, #88]	; (5068 <main+0x1f0>)
    5010:	4798      	blx	r3
    5012:	6bfb      	ldr	r3, [r7, #60]	; 0x3c
    5014:	3301      	adds	r3, #1
    5016:	63fb      	str	r3, [r7, #60]	; 0x3c
    5018:	e785      	b.n	4f26 <main+0xae>
    501a:	46c0      	nop			; (mov r8, r8)
    501c:	00004b55 	.word	0x00004b55
    5020:	00003f75 	.word	0x00003f75
    5024:	00004d99 	.word	0x00004d99
    5028:	00004d1d 	.word	0x00004d1d
    502c:	00004d79 	.word	0x00004d79
    5030:	00004c23 	.word	0x00004c23
    5034:	00004c59 	.word	0x00004c59
    5038:	00004db5 	.word	0x00004db5
    503c:	00004ddd 	.word	0x00004ddd
    5040:	00002e85 	.word	0x00002e85
    5044:	00002ab9 	.word	0x00002ab9
    5048:	00002d25 	.word	0x00002d25
    504c:	00001388 	.word	0x00001388
    5050:	00002f49 	.word	0x00002f49
    5054:	0000388d 	.word	0x0000388d
    5058:	00003ae5 	.word	0x00003ae5
    505c:	000030e5 	.word	0x000030e5
    5060:	00000181 	.word	0x00000181
    5064:	00002eed 	.word	0x00002eed
    5068:	00004e05 	.word	0x00004e05
    506c:	00005381 	.word	0x00005381
    5070:	0000478d 	.word	0x0000478d
    5074:	00005415 	.word	0x00005415
    5078:	00001b57 	.word	0x00001b57
    507c:	000053d5 	.word	0x000053d5
    5080:	00001b58 	.word	0x00001b58
    5084:	20000001 	.word	0x20000001
    5088:	006acfbf 	.word	0x006acfbf
    508c:	006acfc0 	.word	0x006acfc0
    5090:	00003bcd 	.word	0x00003bcd
    5094:	00003619 	.word	0x00003619
    5098:	00002b19 	.word	0x00002b19
    509c:	00000201 	.word	0x00000201

000050a0 <__udivsi3>:
    50a0:	2200      	movs	r2, #0
    50a2:	0843      	lsrs	r3, r0, #1
    50a4:	428b      	cmp	r3, r1
    50a6:	d374      	bcc.n	5192 <__udivsi3+0xf2>
    50a8:	0903      	lsrs	r3, r0, #4
    50aa:	428b      	cmp	r3, r1
    50ac:	d35f      	bcc.n	516e <__udivsi3+0xce>
    50ae:	0a03      	lsrs	r3, r0, #8
    50b0:	428b      	cmp	r3, r1
    50b2:	d344      	bcc.n	513e <__udivsi3+0x9e>
    50b4:	0b03      	lsrs	r3, r0, #12
    50b6:	428b      	cmp	r3, r1
    50b8:	d328      	bcc.n	510c <__udivsi3+0x6c>
    50ba:	0c03      	lsrs	r3, r0, #16
    50bc:	428b      	cmp	r3, r1
    50be:	d30d      	bcc.n	50dc <__udivsi3+0x3c>
    50c0:	22ff      	movs	r2, #255	; 0xff
    50c2:	0209      	lsls	r1, r1, #8
    50c4:	ba12      	rev	r2, r2
    50c6:	0c03      	lsrs	r3, r0, #16
    50c8:	428b      	cmp	r3, r1
    50ca:	d302      	bcc.n	50d2 <__udivsi3+0x32>
    50cc:	1212      	asrs	r2, r2, #8
    50ce:	0209      	lsls	r1, r1, #8
    50d0:	d065      	beq.n	519e <__udivsi3+0xfe>
    50d2:	0b03      	lsrs	r3, r0, #12
    50d4:	428b      	cmp	r3, r1
    50d6:	d319      	bcc.n	510c <__udivsi3+0x6c>
    50d8:	e000      	b.n	50dc <__udivsi3+0x3c>
    50da:	0a09      	lsrs	r1, r1, #8
    50dc:	0bc3      	lsrs	r3, r0, #15
    50de:	428b      	cmp	r3, r1
    50e0:	d301      	bcc.n	50e6 <__udivsi3+0x46>
    50e2:	03cb      	lsls	r3, r1, #15
    50e4:	1ac0      	subs	r0, r0, r3
    50e6:	4152      	adcs	r2, r2
    50e8:	0b83      	lsrs	r3, r0, #14
    50ea:	428b      	cmp	r3, r1
    50ec:	d301      	bcc.n	50f2 <__udivsi3+0x52>
    50ee:	038b      	lsls	r3, r1, #14
    50f0:	1ac0      	subs	r0, r0, r3
    50f2:	4152      	adcs	r2, r2
    50f4:	0b43      	lsrs	r3, r0, #13
    50f6:	428b      	cmp	r3, r1
    50f8:	d301      	bcc.n	50fe <__udivsi3+0x5e>
    50fa:	034b      	lsls	r3, r1, #13
    50fc:	1ac0      	subs	r0, r0, r3
    50fe:	4152      	adcs	r2, r2
    5100:	0b03      	lsrs	r3, r0, #12
    5102:	428b      	cmp	r3, r1
    5104:	d301      	bcc.n	510a <__udivsi3+0x6a>
    5106:	030b      	lsls	r3, r1, #12
    5108:	1ac0      	subs	r0, r0, r3
    510a:	4152      	adcs	r2, r2
    510c:	0ac3      	lsrs	r3, r0, #11
    510e:	428b      	cmp	r3, r1
    5110:	d301      	bcc.n	5116 <__udivsi3+0x76>
    5112:	02cb      	lsls	r3, r1, #11
    5114:	1ac0      	subs	r0, r0, r3
    5116:	4152      	adcs	r2, r2
    5118:	0a83      	lsrs	r3, r0, #10
    511a:	428b      	cmp	r3, r1
    511c:	d301      	bcc.n	5122 <__udivsi3+0x82>
    511e:	028b      	lsls	r3, r1, #10
    5120:	1ac0      	subs	r0, r0, r3
    5122:	4152      	adcs	r2, r2
    5124:	0a43      	lsrs	r3, r0, #9
    5126:	428b      	cmp	r3, r1
    5128:	d301      	bcc.n	512e <__udivsi3+0x8e>
    512a:	024b      	lsls	r3, r1, #9
    512c:	1ac0      	subs	r0, r0, r3
    512e:	4152      	adcs	r2, r2
    5130:	0a03      	lsrs	r3, r0, #8
    5132:	428b      	cmp	r3, r1
    5134:	d301      	bcc.n	513a <__udivsi3+0x9a>
    5136:	020b      	lsls	r3, r1, #8
    5138:	1ac0      	subs	r0, r0, r3
    513a:	4152      	adcs	r2, r2
    513c:	d2cd      	bcs.n	50da <__udivsi3+0x3a>
    513e:	09c3      	lsrs	r3, r0, #7
    5140:	428b      	cmp	r3, r1
    5142:	d301      	bcc.n	5148 <__udivsi3+0xa8>
    5144:	01cb      	lsls	r3, r1, #7
    5146:	1ac0      	subs	r0, r0, r3
    5148:	4152      	adcs	r2, r2
    514a:	0983      	lsrs	r3, r0, #6
    514c:	428b      	cmp	r3, r1
    514e:	d301      	bcc.n	5154 <__udivsi3+0xb4>
    5150:	018b      	lsls	r3, r1, #6
    5152:	1ac0      	subs	r0, r0, r3
    5154:	4152      	adcs	r2, r2
    5156:	0943      	lsrs	r3, r0, #5
    5158:	428b      	cmp	r3, r1
    515a:	d301      	bcc.n	5160 <__udivsi3+0xc0>
    515c:	014b      	lsls	r3, r1, #5
    515e:	1ac0      	subs	r0, r0, r3
    5160:	4152      	adcs	r2, r2
    5162:	0903      	lsrs	r3, r0, #4
    5164:	428b      	cmp	r3, r1
    5166:	d301      	bcc.n	516c <__udivsi3+0xcc>
    5168:	010b      	lsls	r3, r1, #4
    516a:	1ac0      	subs	r0, r0, r3
    516c:	4152      	adcs	r2, r2
    516e:	08c3      	lsrs	r3, r0, #3
    5170:	428b      	cmp	r3, r1
    5172:	d301      	bcc.n	5178 <__udivsi3+0xd8>
    5174:	00cb      	lsls	r3, r1, #3
    5176:	1ac0      	subs	r0, r0, r3
    5178:	4152      	adcs	r2, r2
    517a:	0883      	lsrs	r3, r0, #2
    517c:	428b      	cmp	r3, r1
    517e:	d301      	bcc.n	5184 <__udivsi3+0xe4>
    5180:	008b      	lsls	r3, r1, #2
    5182:	1ac0      	subs	r0, r0, r3
    5184:	4152      	adcs	r2, r2
    5186:	0843      	lsrs	r3, r0, #1
    5188:	428b      	cmp	r3, r1
    518a:	d301      	bcc.n	5190 <__udivsi3+0xf0>
    518c:	004b      	lsls	r3, r1, #1
    518e:	1ac0      	subs	r0, r0, r3
    5190:	4152      	adcs	r2, r2
    5192:	1a41      	subs	r1, r0, r1
    5194:	d200      	bcs.n	5198 <__udivsi3+0xf8>
    5196:	4601      	mov	r1, r0
    5198:	4152      	adcs	r2, r2
    519a:	4610      	mov	r0, r2
    519c:	4770      	bx	lr
    519e:	e7ff      	b.n	51a0 <__udivsi3+0x100>
    51a0:	b501      	push	{r0, lr}
    51a2:	2000      	movs	r0, #0
    51a4:	f000 f8f0 	bl	5388 <__aeabi_idiv0>
    51a8:	bd02      	pop	{r1, pc}
    51aa:	46c0      	nop			; (mov r8, r8)

000051ac <__aeabi_uidivmod>:
    51ac:	2900      	cmp	r1, #0
    51ae:	d0f7      	beq.n	51a0 <__udivsi3+0x100>
    51b0:	e776      	b.n	50a0 <__udivsi3>
    51b2:	4770      	bx	lr

000051b4 <__divsi3>:
    51b4:	4603      	mov	r3, r0
    51b6:	430b      	orrs	r3, r1
    51b8:	d47f      	bmi.n	52ba <__divsi3+0x106>
    51ba:	2200      	movs	r2, #0
    51bc:	0843      	lsrs	r3, r0, #1
    51be:	428b      	cmp	r3, r1
    51c0:	d374      	bcc.n	52ac <__divsi3+0xf8>
    51c2:	0903      	lsrs	r3, r0, #4
    51c4:	428b      	cmp	r3, r1
    51c6:	d35f      	bcc.n	5288 <__divsi3+0xd4>
    51c8:	0a03      	lsrs	r3, r0, #8
    51ca:	428b      	cmp	r3, r1
    51cc:	d344      	bcc.n	5258 <__divsi3+0xa4>
    51ce:	0b03      	lsrs	r3, r0, #12
    51d0:	428b      	cmp	r3, r1
    51d2:	d328      	bcc.n	5226 <__divsi3+0x72>
    51d4:	0c03      	lsrs	r3, r0, #16
    51d6:	428b      	cmp	r3, r1
    51d8:	d30d      	bcc.n	51f6 <__divsi3+0x42>
    51da:	22ff      	movs	r2, #255	; 0xff
    51dc:	0209      	lsls	r1, r1, #8
    51de:	ba12      	rev	r2, r2
    51e0:	0c03      	lsrs	r3, r0, #16
    51e2:	428b      	cmp	r3, r1
    51e4:	d302      	bcc.n	51ec <__divsi3+0x38>
    51e6:	1212      	asrs	r2, r2, #8
    51e8:	0209      	lsls	r1, r1, #8
    51ea:	d065      	beq.n	52b8 <__divsi3+0x104>
    51ec:	0b03      	lsrs	r3, r0, #12
    51ee:	428b      	cmp	r3, r1
    51f0:	d319      	bcc.n	5226 <__divsi3+0x72>
    51f2:	e000      	b.n	51f6 <__divsi3+0x42>
    51f4:	0a09      	lsrs	r1, r1, #8
    51f6:	0bc3      	lsrs	r3, r0, #15
    51f8:	428b      	cmp	r3, r1
    51fa:	d301      	bcc.n	5200 <__divsi3+0x4c>
    51fc:	03cb      	lsls	r3, r1, #15
    51fe:	1ac0      	subs	r0, r0, r3
    5200:	4152      	adcs	r2, r2
    5202:	0b83      	lsrs	r3, r0, #14
    5204:	428b      	cmp	r3, r1
    5206:	d301      	bcc.n	520c <__divsi3+0x58>
    5208:	038b      	lsls	r3, r1, #14
    520a:	1ac0      	subs	r0, r0, r3
    520c:	4152      	adcs	r2, r2
    520e:	0b43      	lsrs	r3, r0, #13
    5210:	428b      	cmp	r3, r1
    5212:	d301      	bcc.n	5218 <__divsi3+0x64>
    5214:	034b      	lsls	r3, r1, #13
    5216:	1ac0      	subs	r0, r0, r3
    5218:	4152      	adcs	r2, r2
    521a:	0b03      	lsrs	r3, r0, #12
    521c:	428b      	cmp	r3, r1
    521e:	d301      	bcc.n	5224 <__divsi3+0x70>
    5220:	030b      	lsls	r3, r1, #12
    5222:	1ac0      	subs	r0, r0, r3
    5224:	4152      	adcs	r2, r2
    5226:	0ac3      	lsrs	r3, r0, #11
    5228:	428b      	cmp	r3, r1
    522a:	d301      	bcc.n	5230 <__divsi3+0x7c>
    522c:	02cb      	lsls	r3, r1, #11
    522e:	1ac0      	subs	r0, r0, r3
    5230:	4152      	adcs	r2, r2
    5232:	0a83      	lsrs	r3, r0, #10
    5234:	428b      	cmp	r3, r1
    5236:	d301      	bcc.n	523c <__divsi3+0x88>
    5238:	028b      	lsls	r3, r1, #10
    523a:	1ac0      	subs	r0, r0, r3
    523c:	4152      	adcs	r2, r2
    523e:	0a43      	lsrs	r3, r0, #9
    5240:	428b      	cmp	r3, r1
    5242:	d301      	bcc.n	5248 <__divsi3+0x94>
    5244:	024b      	lsls	r3, r1, #9
    5246:	1ac0      	subs	r0, r0, r3
    5248:	4152      	adcs	r2, r2
    524a:	0a03      	lsrs	r3, r0, #8
    524c:	428b      	cmp	r3, r1
    524e:	d301      	bcc.n	5254 <__divsi3+0xa0>
    5250:	020b      	lsls	r3, r1, #8
    5252:	1ac0      	subs	r0, r0, r3
    5254:	4152      	adcs	r2, r2
    5256:	d2cd      	bcs.n	51f4 <__divsi3+0x40>
    5258:	09c3      	lsrs	r3, r0, #7
    525a:	428b      	cmp	r3, r1
    525c:	d301      	bcc.n	5262 <__divsi3+0xae>
    525e:	01cb      	lsls	r3, r1, #7
    5260:	1ac0      	subs	r0, r0, r3
    5262:	4152      	adcs	r2, r2
    5264:	0983      	lsrs	r3, r0, #6
    5266:	428b      	cmp	r3, r1
    5268:	d301      	bcc.n	526e <__divsi3+0xba>
    526a:	018b      	lsls	r3, r1, #6
    526c:	1ac0      	subs	r0, r0, r3
    526e:	4152      	adcs	r2, r2
    5270:	0943      	lsrs	r3, r0, #5
    5272:	428b      	cmp	r3, r1
    5274:	d301      	bcc.n	527a <__divsi3+0xc6>
    5276:	014b      	lsls	r3, r1, #5
    5278:	1ac0      	subs	r0, r0, r3
    527a:	4152      	adcs	r2, r2
    527c:	0903      	lsrs	r3, r0, #4
    527e:	428b      	cmp	r3, r1
    5280:	d301      	bcc.n	5286 <__divsi3+0xd2>
    5282:	010b      	lsls	r3, r1, #4
    5284:	1ac0      	subs	r0, r0, r3
    5286:	4152      	adcs	r2, r2
    5288:	08c3      	lsrs	r3, r0, #3
    528a:	428b      	cmp	r3, r1
    528c:	d301      	bcc.n	5292 <__divsi3+0xde>
    528e:	00cb      	lsls	r3, r1, #3
    5290:	1ac0      	subs	r0, r0, r3
    5292:	4152      	adcs	r2, r2
    5294:	0883      	lsrs	r3, r0, #2
    5296:	428b      	cmp	r3, r1
    5298:	d301      	bcc.n	529e <__divsi3+0xea>
    529a:	008b      	lsls	r3, r1, #2
    529c:	1ac0      	subs	r0, r0, r3
    529e:	4152      	adcs	r2, r2
    52a0:	0843      	lsrs	r3, r0, #1
    52a2:	428b      	cmp	r3, r1
    52a4:	d301      	bcc.n	52aa <__divsi3+0xf6>
    52a6:	004b      	lsls	r3, r1, #1
    52a8:	1ac0      	subs	r0, r0, r3
    52aa:	4152      	adcs	r2, r2
    52ac:	1a41      	subs	r1, r0, r1
    52ae:	d200      	bcs.n	52b2 <__divsi3+0xfe>
    52b0:	4601      	mov	r1, r0
    52b2:	4152      	adcs	r2, r2
    52b4:	4610      	mov	r0, r2
    52b6:	4770      	bx	lr
    52b8:	e05d      	b.n	5376 <__divsi3+0x1c2>
    52ba:	0fca      	lsrs	r2, r1, #31
    52bc:	d000      	beq.n	52c0 <__divsi3+0x10c>
    52be:	4249      	negs	r1, r1
    52c0:	1003      	asrs	r3, r0, #32
    52c2:	d300      	bcc.n	52c6 <__divsi3+0x112>
    52c4:	4240      	negs	r0, r0
    52c6:	4053      	eors	r3, r2
    52c8:	2200      	movs	r2, #0
    52ca:	469c      	mov	ip, r3
    52cc:	0903      	lsrs	r3, r0, #4
    52ce:	428b      	cmp	r3, r1
    52d0:	d32d      	bcc.n	532e <__divsi3+0x17a>
    52d2:	0a03      	lsrs	r3, r0, #8
    52d4:	428b      	cmp	r3, r1
    52d6:	d312      	bcc.n	52fe <__divsi3+0x14a>
    52d8:	22fc      	movs	r2, #252	; 0xfc
    52da:	0189      	lsls	r1, r1, #6
    52dc:	ba12      	rev	r2, r2
    52de:	0a03      	lsrs	r3, r0, #8
    52e0:	428b      	cmp	r3, r1
    52e2:	d30c      	bcc.n	52fe <__divsi3+0x14a>
    52e4:	0189      	lsls	r1, r1, #6
    52e6:	1192      	asrs	r2, r2, #6
    52e8:	428b      	cmp	r3, r1
    52ea:	d308      	bcc.n	52fe <__divsi3+0x14a>
    52ec:	0189      	lsls	r1, r1, #6
    52ee:	1192      	asrs	r2, r2, #6
    52f0:	428b      	cmp	r3, r1
    52f2:	d304      	bcc.n	52fe <__divsi3+0x14a>
    52f4:	0189      	lsls	r1, r1, #6
    52f6:	d03a      	beq.n	536e <__divsi3+0x1ba>
    52f8:	1192      	asrs	r2, r2, #6
    52fa:	e000      	b.n	52fe <__divsi3+0x14a>
    52fc:	0989      	lsrs	r1, r1, #6
    52fe:	09c3      	lsrs	r3, r0, #7
    5300:	428b      	cmp	r3, r1
    5302:	d301      	bcc.n	5308 <__divsi3+0x154>
    5304:	01cb      	lsls	r3, r1, #7
    5306:	1ac0      	subs	r0, r0, r3
    5308:	4152      	adcs	r2, r2
    530a:	0983      	lsrs	r3, r0, #6
    530c:	428b      	cmp	r3, r1
    530e:	d301      	bcc.n	5314 <__divsi3+0x160>
    5310:	018b      	lsls	r3, r1, #6
    5312:	1ac0      	subs	r0, r0, r3
    5314:	4152      	adcs	r2, r2
    5316:	0943      	lsrs	r3, r0, #5
    5318:	428b      	cmp	r3, r1
    531a:	d301      	bcc.n	5320 <__divsi3+0x16c>
    531c:	014b      	lsls	r3, r1, #5
    531e:	1ac0      	subs	r0, r0, r3
    5320:	4152      	adcs	r2, r2
    5322:	0903      	lsrs	r3, r0, #4
    5324:	428b      	cmp	r3, r1
    5326:	d301      	bcc.n	532c <__divsi3+0x178>
    5328:	010b      	lsls	r3, r1, #4
    532a:	1ac0      	subs	r0, r0, r3
    532c:	4152      	adcs	r2, r2
    532e:	08c3      	lsrs	r3, r0, #3
    5330:	428b      	cmp	r3, r1
    5332:	d301      	bcc.n	5338 <__divsi3+0x184>
    5334:	00cb      	lsls	r3, r1, #3
    5336:	1ac0      	subs	r0, r0, r3
    5338:	4152      	adcs	r2, r2
    533a:	0883      	lsrs	r3, r0, #2
    533c:	428b      	cmp	r3, r1
    533e:	d301      	bcc.n	5344 <__divsi3+0x190>
    5340:	008b      	lsls	r3, r1, #2
    5342:	1ac0      	subs	r0, r0, r3
    5344:	4152      	adcs	r2, r2
    5346:	d2d9      	bcs.n	52fc <__divsi3+0x148>
    5348:	0843      	lsrs	r3, r0, #1
    534a:	428b      	cmp	r3, r1
    534c:	d301      	bcc.n	5352 <__divsi3+0x19e>
    534e:	004b      	lsls	r3, r1, #1
    5350:	1ac0      	subs	r0, r0, r3
    5352:	4152      	adcs	r2, r2
    5354:	1a41      	subs	r1, r0, r1
    5356:	d200      	bcs.n	535a <__divsi3+0x1a6>
    5358:	4601      	mov	r1, r0
    535a:	4663      	mov	r3, ip
    535c:	4152      	adcs	r2, r2
    535e:	105b      	asrs	r3, r3, #1
    5360:	4610      	mov	r0, r2
    5362:	d301      	bcc.n	5368 <__divsi3+0x1b4>
    5364:	4240      	negs	r0, r0
    5366:	2b00      	cmp	r3, #0
    5368:	d500      	bpl.n	536c <__divsi3+0x1b8>
    536a:	4249      	negs	r1, r1
    536c:	4770      	bx	lr
    536e:	4663      	mov	r3, ip
    5370:	105b      	asrs	r3, r3, #1
    5372:	d300      	bcc.n	5376 <__divsi3+0x1c2>
    5374:	4240      	negs	r0, r0
    5376:	b501      	push	{r0, lr}
    5378:	2000      	movs	r0, #0
    537a:	f000 f805 	bl	5388 <__aeabi_idiv0>
    537e:	bd02      	pop	{r1, pc}

00005380 <__aeabi_idivmod>:
    5380:	2900      	cmp	r1, #0
    5382:	d0f8      	beq.n	5376 <__divsi3+0x1c2>
    5384:	e716      	b.n	51b4 <__divsi3>
    5386:	4770      	bx	lr

00005388 <__aeabi_idiv0>:
    5388:	4770      	bx	lr
    538a:	46c0      	nop			; (mov r8, r8)

0000538c <__aeabi_ldivmod>:
    538c:	2b00      	cmp	r3, #0
    538e:	d115      	bne.n	53bc <__aeabi_ldivmod+0x30>
    5390:	2a00      	cmp	r2, #0
    5392:	d113      	bne.n	53bc <__aeabi_ldivmod+0x30>
    5394:	2900      	cmp	r1, #0
    5396:	db06      	blt.n	53a6 <__aeabi_ldivmod+0x1a>
    5398:	dc01      	bgt.n	539e <__aeabi_ldivmod+0x12>
    539a:	2800      	cmp	r0, #0
    539c:	d006      	beq.n	53ac <__aeabi_ldivmod+0x20>
    539e:	2000      	movs	r0, #0
    53a0:	43c0      	mvns	r0, r0
    53a2:	0841      	lsrs	r1, r0, #1
    53a4:	e002      	b.n	53ac <__aeabi_ldivmod+0x20>
    53a6:	2180      	movs	r1, #128	; 0x80
    53a8:	0609      	lsls	r1, r1, #24
    53aa:	2000      	movs	r0, #0
    53ac:	b407      	push	{r0, r1, r2}
    53ae:	4802      	ldr	r0, [pc, #8]	; (53b8 <__aeabi_ldivmod+0x2c>)
    53b0:	a101      	add	r1, pc, #4	; (adr r1, 53b8 <__aeabi_ldivmod+0x2c>)
    53b2:	1840      	adds	r0, r0, r1
    53b4:	9002      	str	r0, [sp, #8]
    53b6:	bd03      	pop	{r0, r1, pc}
    53b8:	ffffffd1 	.word	0xffffffd1
    53bc:	b403      	push	{r0, r1}
    53be:	4668      	mov	r0, sp
    53c0:	b501      	push	{r0, lr}
    53c2:	9802      	ldr	r0, [sp, #8]
    53c4:	f000 f910 	bl	55e8 <__gnu_ldivmod_helper>
    53c8:	9b01      	ldr	r3, [sp, #4]
    53ca:	469e      	mov	lr, r3
    53cc:	b002      	add	sp, #8
    53ce:	bc0c      	pop	{r2, r3}
    53d0:	4770      	bx	lr
    53d2:	46c0      	nop			; (mov r8, r8)

000053d4 <__aeabi_uldivmod>:
    53d4:	2b00      	cmp	r3, #0
    53d6:	d111      	bne.n	53fc <__aeabi_uldivmod+0x28>
    53d8:	2a00      	cmp	r2, #0
    53da:	d10f      	bne.n	53fc <__aeabi_uldivmod+0x28>
    53dc:	2900      	cmp	r1, #0
    53de:	d100      	bne.n	53e2 <__aeabi_uldivmod+0xe>
    53e0:	2800      	cmp	r0, #0
    53e2:	d002      	beq.n	53ea <__aeabi_uldivmod+0x16>
    53e4:	2100      	movs	r1, #0
    53e6:	43c9      	mvns	r1, r1
    53e8:	1c08      	adds	r0, r1, #0
    53ea:	b407      	push	{r0, r1, r2}
    53ec:	4802      	ldr	r0, [pc, #8]	; (53f8 <__aeabi_uldivmod+0x24>)
    53ee:	a102      	add	r1, pc, #8	; (adr r1, 53f8 <__aeabi_uldivmod+0x24>)
    53f0:	1840      	adds	r0, r0, r1
    53f2:	9002      	str	r0, [sp, #8]
    53f4:	bd03      	pop	{r0, r1, pc}
    53f6:	46c0      	nop			; (mov r8, r8)
    53f8:	ffffff91 	.word	0xffffff91
    53fc:	b403      	push	{r0, r1}
    53fe:	4668      	mov	r0, sp
    5400:	b501      	push	{r0, lr}
    5402:	9802      	ldr	r0, [sp, #8]
    5404:	f000 f830 	bl	5468 <__udivmoddi4>
    5408:	9b01      	ldr	r3, [sp, #4]
    540a:	469e      	mov	lr, r3
    540c:	b002      	add	sp, #8
    540e:	bc0c      	pop	{r2, r3}
    5410:	4770      	bx	lr
    5412:	46c0      	nop			; (mov r8, r8)

00005414 <__aeabi_lmul>:
    5414:	b5f0      	push	{r4, r5, r6, r7, lr}
    5416:	46ce      	mov	lr, r9
    5418:	4647      	mov	r7, r8
    541a:	0415      	lsls	r5, r2, #16
    541c:	0c2d      	lsrs	r5, r5, #16
    541e:	002e      	movs	r6, r5
    5420:	b580      	push	{r7, lr}
    5422:	0407      	lsls	r7, r0, #16
    5424:	0c14      	lsrs	r4, r2, #16
    5426:	0c3f      	lsrs	r7, r7, #16
    5428:	4699      	mov	r9, r3
    542a:	0c03      	lsrs	r3, r0, #16
    542c:	437e      	muls	r6, r7
    542e:	435d      	muls	r5, r3
    5430:	4367      	muls	r7, r4
    5432:	4363      	muls	r3, r4
    5434:	197f      	adds	r7, r7, r5
    5436:	0c34      	lsrs	r4, r6, #16
    5438:	19e4      	adds	r4, r4, r7
    543a:	469c      	mov	ip, r3
    543c:	42a5      	cmp	r5, r4
    543e:	d903      	bls.n	5448 <__aeabi_lmul+0x34>
    5440:	2380      	movs	r3, #128	; 0x80
    5442:	025b      	lsls	r3, r3, #9
    5444:	4698      	mov	r8, r3
    5446:	44c4      	add	ip, r8
    5448:	464b      	mov	r3, r9
    544a:	4351      	muls	r1, r2
    544c:	4343      	muls	r3, r0
    544e:	0436      	lsls	r6, r6, #16
    5450:	0c36      	lsrs	r6, r6, #16
    5452:	0c25      	lsrs	r5, r4, #16
    5454:	0424      	lsls	r4, r4, #16
    5456:	4465      	add	r5, ip
    5458:	19a4      	adds	r4, r4, r6
    545a:	1859      	adds	r1, r3, r1
    545c:	1949      	adds	r1, r1, r5
    545e:	0020      	movs	r0, r4
    5460:	bc0c      	pop	{r2, r3}
    5462:	4690      	mov	r8, r2
    5464:	4699      	mov	r9, r3
    5466:	bdf0      	pop	{r4, r5, r6, r7, pc}

00005468 <__udivmoddi4>:
    5468:	b5f0      	push	{r4, r5, r6, r7, lr}
    546a:	4657      	mov	r7, sl
    546c:	464e      	mov	r6, r9
    546e:	4645      	mov	r5, r8
    5470:	46de      	mov	lr, fp
    5472:	b5e0      	push	{r5, r6, r7, lr}
    5474:	0004      	movs	r4, r0
    5476:	b083      	sub	sp, #12
    5478:	000d      	movs	r5, r1
    547a:	4692      	mov	sl, r2
    547c:	4699      	mov	r9, r3
    547e:	428b      	cmp	r3, r1
    5480:	d82f      	bhi.n	54e2 <__udivmoddi4+0x7a>
    5482:	d02c      	beq.n	54de <__udivmoddi4+0x76>
    5484:	4649      	mov	r1, r9
    5486:	4650      	mov	r0, sl
    5488:	f001 fdfa 	bl	7080 <__clzdi2>
    548c:	0029      	movs	r1, r5
    548e:	0006      	movs	r6, r0
    5490:	0020      	movs	r0, r4
    5492:	f001 fdf5 	bl	7080 <__clzdi2>
    5496:	1a33      	subs	r3, r6, r0
    5498:	4698      	mov	r8, r3
    549a:	3b20      	subs	r3, #32
    549c:	469b      	mov	fp, r3
    549e:	d500      	bpl.n	54a2 <__udivmoddi4+0x3a>
    54a0:	e074      	b.n	558c <__udivmoddi4+0x124>
    54a2:	4653      	mov	r3, sl
    54a4:	465a      	mov	r2, fp
    54a6:	4093      	lsls	r3, r2
    54a8:	001f      	movs	r7, r3
    54aa:	4653      	mov	r3, sl
    54ac:	4642      	mov	r2, r8
    54ae:	4093      	lsls	r3, r2
    54b0:	001e      	movs	r6, r3
    54b2:	42af      	cmp	r7, r5
    54b4:	d829      	bhi.n	550a <__udivmoddi4+0xa2>
    54b6:	d026      	beq.n	5506 <__udivmoddi4+0x9e>
    54b8:	465b      	mov	r3, fp
    54ba:	1ba4      	subs	r4, r4, r6
    54bc:	41bd      	sbcs	r5, r7
    54be:	2b00      	cmp	r3, #0
    54c0:	da00      	bge.n	54c4 <__udivmoddi4+0x5c>
    54c2:	e079      	b.n	55b8 <__udivmoddi4+0x150>
    54c4:	2200      	movs	r2, #0
    54c6:	2300      	movs	r3, #0
    54c8:	9200      	str	r2, [sp, #0]
    54ca:	9301      	str	r3, [sp, #4]
    54cc:	2301      	movs	r3, #1
    54ce:	465a      	mov	r2, fp
    54d0:	4093      	lsls	r3, r2
    54d2:	9301      	str	r3, [sp, #4]
    54d4:	2301      	movs	r3, #1
    54d6:	4642      	mov	r2, r8
    54d8:	4093      	lsls	r3, r2
    54da:	9300      	str	r3, [sp, #0]
    54dc:	e019      	b.n	5512 <__udivmoddi4+0xaa>
    54de:	4282      	cmp	r2, r0
    54e0:	d9d0      	bls.n	5484 <__udivmoddi4+0x1c>
    54e2:	2200      	movs	r2, #0
    54e4:	2300      	movs	r3, #0
    54e6:	9200      	str	r2, [sp, #0]
    54e8:	9301      	str	r3, [sp, #4]
    54ea:	9b0c      	ldr	r3, [sp, #48]	; 0x30
    54ec:	2b00      	cmp	r3, #0
    54ee:	d001      	beq.n	54f4 <__udivmoddi4+0x8c>
    54f0:	601c      	str	r4, [r3, #0]
    54f2:	605d      	str	r5, [r3, #4]
    54f4:	9800      	ldr	r0, [sp, #0]
    54f6:	9901      	ldr	r1, [sp, #4]
    54f8:	b003      	add	sp, #12
    54fa:	bc3c      	pop	{r2, r3, r4, r5}
    54fc:	4690      	mov	r8, r2
    54fe:	4699      	mov	r9, r3
    5500:	46a2      	mov	sl, r4
    5502:	46ab      	mov	fp, r5
    5504:	bdf0      	pop	{r4, r5, r6, r7, pc}
    5506:	42a3      	cmp	r3, r4
    5508:	d9d6      	bls.n	54b8 <__udivmoddi4+0x50>
    550a:	2200      	movs	r2, #0
    550c:	2300      	movs	r3, #0
    550e:	9200      	str	r2, [sp, #0]
    5510:	9301      	str	r3, [sp, #4]
    5512:	4643      	mov	r3, r8
    5514:	2b00      	cmp	r3, #0
    5516:	d0e8      	beq.n	54ea <__udivmoddi4+0x82>
    5518:	07fb      	lsls	r3, r7, #31
    551a:	0872      	lsrs	r2, r6, #1
    551c:	431a      	orrs	r2, r3
    551e:	4646      	mov	r6, r8
    5520:	087b      	lsrs	r3, r7, #1
    5522:	e00e      	b.n	5542 <__udivmoddi4+0xda>
    5524:	42ab      	cmp	r3, r5
    5526:	d101      	bne.n	552c <__udivmoddi4+0xc4>
    5528:	42a2      	cmp	r2, r4
    552a:	d80c      	bhi.n	5546 <__udivmoddi4+0xde>
    552c:	1aa4      	subs	r4, r4, r2
    552e:	419d      	sbcs	r5, r3
    5530:	2001      	movs	r0, #1
    5532:	1924      	adds	r4, r4, r4
    5534:	416d      	adcs	r5, r5
    5536:	2100      	movs	r1, #0
    5538:	3e01      	subs	r6, #1
    553a:	1824      	adds	r4, r4, r0
    553c:	414d      	adcs	r5, r1
    553e:	2e00      	cmp	r6, #0
    5540:	d006      	beq.n	5550 <__udivmoddi4+0xe8>
    5542:	42ab      	cmp	r3, r5
    5544:	d9ee      	bls.n	5524 <__udivmoddi4+0xbc>
    5546:	3e01      	subs	r6, #1
    5548:	1924      	adds	r4, r4, r4
    554a:	416d      	adcs	r5, r5
    554c:	2e00      	cmp	r6, #0
    554e:	d1f8      	bne.n	5542 <__udivmoddi4+0xda>
    5550:	465b      	mov	r3, fp
    5552:	9800      	ldr	r0, [sp, #0]
    5554:	9901      	ldr	r1, [sp, #4]
    5556:	1900      	adds	r0, r0, r4
    5558:	4169      	adcs	r1, r5
    555a:	2b00      	cmp	r3, #0
    555c:	db22      	blt.n	55a4 <__udivmoddi4+0x13c>
    555e:	002b      	movs	r3, r5
    5560:	465a      	mov	r2, fp
    5562:	40d3      	lsrs	r3, r2
    5564:	002a      	movs	r2, r5
    5566:	4644      	mov	r4, r8
    5568:	40e2      	lsrs	r2, r4
    556a:	001c      	movs	r4, r3
    556c:	465b      	mov	r3, fp
    556e:	0015      	movs	r5, r2
    5570:	2b00      	cmp	r3, #0
    5572:	db2c      	blt.n	55ce <__udivmoddi4+0x166>
    5574:	0026      	movs	r6, r4
    5576:	409e      	lsls	r6, r3
    5578:	0033      	movs	r3, r6
    557a:	0026      	movs	r6, r4
    557c:	4647      	mov	r7, r8
    557e:	40be      	lsls	r6, r7
    5580:	0032      	movs	r2, r6
    5582:	1a80      	subs	r0, r0, r2
    5584:	4199      	sbcs	r1, r3
    5586:	9000      	str	r0, [sp, #0]
    5588:	9101      	str	r1, [sp, #4]
    558a:	e7ae      	b.n	54ea <__udivmoddi4+0x82>
    558c:	4642      	mov	r2, r8
    558e:	2320      	movs	r3, #32
    5590:	1a9b      	subs	r3, r3, r2
    5592:	4652      	mov	r2, sl
    5594:	40da      	lsrs	r2, r3
    5596:	4641      	mov	r1, r8
    5598:	0013      	movs	r3, r2
    559a:	464a      	mov	r2, r9
    559c:	408a      	lsls	r2, r1
    559e:	0017      	movs	r7, r2
    55a0:	431f      	orrs	r7, r3
    55a2:	e782      	b.n	54aa <__udivmoddi4+0x42>
    55a4:	4642      	mov	r2, r8
    55a6:	2320      	movs	r3, #32
    55a8:	1a9b      	subs	r3, r3, r2
    55aa:	002a      	movs	r2, r5
    55ac:	4646      	mov	r6, r8
    55ae:	409a      	lsls	r2, r3
    55b0:	0023      	movs	r3, r4
    55b2:	40f3      	lsrs	r3, r6
    55b4:	4313      	orrs	r3, r2
    55b6:	e7d5      	b.n	5564 <__udivmoddi4+0xfc>
    55b8:	4642      	mov	r2, r8
    55ba:	2320      	movs	r3, #32
    55bc:	2100      	movs	r1, #0
    55be:	1a9b      	subs	r3, r3, r2
    55c0:	2200      	movs	r2, #0
    55c2:	9100      	str	r1, [sp, #0]
    55c4:	9201      	str	r2, [sp, #4]
    55c6:	2201      	movs	r2, #1
    55c8:	40da      	lsrs	r2, r3
    55ca:	9201      	str	r2, [sp, #4]
    55cc:	e782      	b.n	54d4 <__udivmoddi4+0x6c>
    55ce:	4642      	mov	r2, r8
    55d0:	2320      	movs	r3, #32
    55d2:	0026      	movs	r6, r4
    55d4:	1a9b      	subs	r3, r3, r2
    55d6:	40de      	lsrs	r6, r3
    55d8:	002f      	movs	r7, r5
    55da:	46b4      	mov	ip, r6
    55dc:	4097      	lsls	r7, r2
    55de:	4666      	mov	r6, ip
    55e0:	003b      	movs	r3, r7
    55e2:	4333      	orrs	r3, r6
    55e4:	e7c9      	b.n	557a <__udivmoddi4+0x112>
    55e6:	46c0      	nop			; (mov r8, r8)

000055e8 <__gnu_ldivmod_helper>:
    55e8:	b5f0      	push	{r4, r5, r6, r7, lr}
    55ea:	b083      	sub	sp, #12
    55ec:	0016      	movs	r6, r2
    55ee:	001f      	movs	r7, r3
    55f0:	9000      	str	r0, [sp, #0]
    55f2:	9101      	str	r1, [sp, #4]
    55f4:	f001 fd50 	bl	7098 <__divdi3>
    55f8:	0004      	movs	r4, r0
    55fa:	000d      	movs	r5, r1
    55fc:	0002      	movs	r2, r0
    55fe:	000b      	movs	r3, r1
    5600:	0030      	movs	r0, r6
    5602:	0039      	movs	r1, r7
    5604:	f7ff ff06 	bl	5414 <__aeabi_lmul>
    5608:	9a00      	ldr	r2, [sp, #0]
    560a:	9b01      	ldr	r3, [sp, #4]
    560c:	1a12      	subs	r2, r2, r0
    560e:	418b      	sbcs	r3, r1
    5610:	9908      	ldr	r1, [sp, #32]
    5612:	0020      	movs	r0, r4
    5614:	600a      	str	r2, [r1, #0]
    5616:	604b      	str	r3, [r1, #4]
    5618:	0029      	movs	r1, r5
    561a:	b003      	add	sp, #12
    561c:	bdf0      	pop	{r4, r5, r6, r7, pc}
    561e:	46c0      	nop			; (mov r8, r8)

00005620 <__aeabi_dadd>:
    5620:	b5f8      	push	{r3, r4, r5, r6, r7, lr}
    5622:	4645      	mov	r5, r8
    5624:	46de      	mov	lr, fp
    5626:	4657      	mov	r7, sl
    5628:	464e      	mov	r6, r9
    562a:	030c      	lsls	r4, r1, #12
    562c:	b5e0      	push	{r5, r6, r7, lr}
    562e:	004e      	lsls	r6, r1, #1
    5630:	0fc9      	lsrs	r1, r1, #31
    5632:	4688      	mov	r8, r1
    5634:	000d      	movs	r5, r1
    5636:	0a61      	lsrs	r1, r4, #9
    5638:	0f44      	lsrs	r4, r0, #29
    563a:	430c      	orrs	r4, r1
    563c:	00c7      	lsls	r7, r0, #3
    563e:	0319      	lsls	r1, r3, #12
    5640:	0058      	lsls	r0, r3, #1
    5642:	0fdb      	lsrs	r3, r3, #31
    5644:	469b      	mov	fp, r3
    5646:	0a4b      	lsrs	r3, r1, #9
    5648:	0f51      	lsrs	r1, r2, #29
    564a:	430b      	orrs	r3, r1
    564c:	0d76      	lsrs	r6, r6, #21
    564e:	0d40      	lsrs	r0, r0, #21
    5650:	0019      	movs	r1, r3
    5652:	00d2      	lsls	r2, r2, #3
    5654:	45d8      	cmp	r8, fp
    5656:	d100      	bne.n	565a <__aeabi_dadd+0x3a>
    5658:	e0ae      	b.n	57b8 <__aeabi_dadd+0x198>
    565a:	1a35      	subs	r5, r6, r0
    565c:	2d00      	cmp	r5, #0
    565e:	dc00      	bgt.n	5662 <__aeabi_dadd+0x42>
    5660:	e0f6      	b.n	5850 <__aeabi_dadd+0x230>
    5662:	2800      	cmp	r0, #0
    5664:	d10f      	bne.n	5686 <__aeabi_dadd+0x66>
    5666:	4313      	orrs	r3, r2
    5668:	d100      	bne.n	566c <__aeabi_dadd+0x4c>
    566a:	e0db      	b.n	5824 <__aeabi_dadd+0x204>
    566c:	1e6b      	subs	r3, r5, #1
    566e:	2b00      	cmp	r3, #0
    5670:	d000      	beq.n	5674 <__aeabi_dadd+0x54>
    5672:	e137      	b.n	58e4 <__aeabi_dadd+0x2c4>
    5674:	1aba      	subs	r2, r7, r2
    5676:	4297      	cmp	r7, r2
    5678:	41bf      	sbcs	r7, r7
    567a:	1a64      	subs	r4, r4, r1
    567c:	427f      	negs	r7, r7
    567e:	1be4      	subs	r4, r4, r7
    5680:	2601      	movs	r6, #1
    5682:	0017      	movs	r7, r2
    5684:	e024      	b.n	56d0 <__aeabi_dadd+0xb0>
    5686:	4bc6      	ldr	r3, [pc, #792]	; (59a0 <__aeabi_dadd+0x380>)
    5688:	429e      	cmp	r6, r3
    568a:	d04d      	beq.n	5728 <__aeabi_dadd+0x108>
    568c:	2380      	movs	r3, #128	; 0x80
    568e:	041b      	lsls	r3, r3, #16
    5690:	4319      	orrs	r1, r3
    5692:	2d38      	cmp	r5, #56	; 0x38
    5694:	dd00      	ble.n	5698 <__aeabi_dadd+0x78>
    5696:	e107      	b.n	58a8 <__aeabi_dadd+0x288>
    5698:	2d1f      	cmp	r5, #31
    569a:	dd00      	ble.n	569e <__aeabi_dadd+0x7e>
    569c:	e138      	b.n	5910 <__aeabi_dadd+0x2f0>
    569e:	2020      	movs	r0, #32
    56a0:	1b43      	subs	r3, r0, r5
    56a2:	469a      	mov	sl, r3
    56a4:	000b      	movs	r3, r1
    56a6:	4650      	mov	r0, sl
    56a8:	4083      	lsls	r3, r0
    56aa:	4699      	mov	r9, r3
    56ac:	0013      	movs	r3, r2
    56ae:	4648      	mov	r0, r9
    56b0:	40eb      	lsrs	r3, r5
    56b2:	4318      	orrs	r0, r3
    56b4:	0003      	movs	r3, r0
    56b6:	4650      	mov	r0, sl
    56b8:	4082      	lsls	r2, r0
    56ba:	1e50      	subs	r0, r2, #1
    56bc:	4182      	sbcs	r2, r0
    56be:	40e9      	lsrs	r1, r5
    56c0:	431a      	orrs	r2, r3
    56c2:	1aba      	subs	r2, r7, r2
    56c4:	1a61      	subs	r1, r4, r1
    56c6:	4297      	cmp	r7, r2
    56c8:	41a4      	sbcs	r4, r4
    56ca:	0017      	movs	r7, r2
    56cc:	4264      	negs	r4, r4
    56ce:	1b0c      	subs	r4, r1, r4
    56d0:	0223      	lsls	r3, r4, #8
    56d2:	d562      	bpl.n	579a <__aeabi_dadd+0x17a>
    56d4:	0264      	lsls	r4, r4, #9
    56d6:	0a65      	lsrs	r5, r4, #9
    56d8:	2d00      	cmp	r5, #0
    56da:	d100      	bne.n	56de <__aeabi_dadd+0xbe>
    56dc:	e0df      	b.n	589e <__aeabi_dadd+0x27e>
    56de:	0028      	movs	r0, r5
    56e0:	f001 fcb0 	bl	7044 <__clzsi2>
    56e4:	0003      	movs	r3, r0
    56e6:	3b08      	subs	r3, #8
    56e8:	2b1f      	cmp	r3, #31
    56ea:	dd00      	ble.n	56ee <__aeabi_dadd+0xce>
    56ec:	e0d2      	b.n	5894 <__aeabi_dadd+0x274>
    56ee:	2220      	movs	r2, #32
    56f0:	003c      	movs	r4, r7
    56f2:	1ad2      	subs	r2, r2, r3
    56f4:	409d      	lsls	r5, r3
    56f6:	40d4      	lsrs	r4, r2
    56f8:	409f      	lsls	r7, r3
    56fa:	4325      	orrs	r5, r4
    56fc:	429e      	cmp	r6, r3
    56fe:	dd00      	ble.n	5702 <__aeabi_dadd+0xe2>
    5700:	e0c4      	b.n	588c <__aeabi_dadd+0x26c>
    5702:	1b9e      	subs	r6, r3, r6
    5704:	1c73      	adds	r3, r6, #1
    5706:	2b1f      	cmp	r3, #31
    5708:	dd00      	ble.n	570c <__aeabi_dadd+0xec>
    570a:	e0f1      	b.n	58f0 <__aeabi_dadd+0x2d0>
    570c:	2220      	movs	r2, #32
    570e:	0038      	movs	r0, r7
    5710:	0029      	movs	r1, r5
    5712:	1ad2      	subs	r2, r2, r3
    5714:	40d8      	lsrs	r0, r3
    5716:	4091      	lsls	r1, r2
    5718:	4097      	lsls	r7, r2
    571a:	002c      	movs	r4, r5
    571c:	4301      	orrs	r1, r0
    571e:	1e78      	subs	r0, r7, #1
    5720:	4187      	sbcs	r7, r0
    5722:	40dc      	lsrs	r4, r3
    5724:	2600      	movs	r6, #0
    5726:	430f      	orrs	r7, r1
    5728:	077b      	lsls	r3, r7, #29
    572a:	d009      	beq.n	5740 <__aeabi_dadd+0x120>
    572c:	230f      	movs	r3, #15
    572e:	403b      	ands	r3, r7
    5730:	2b04      	cmp	r3, #4
    5732:	d005      	beq.n	5740 <__aeabi_dadd+0x120>
    5734:	1d3b      	adds	r3, r7, #4
    5736:	42bb      	cmp	r3, r7
    5738:	41bf      	sbcs	r7, r7
    573a:	427f      	negs	r7, r7
    573c:	19e4      	adds	r4, r4, r7
    573e:	001f      	movs	r7, r3
    5740:	0223      	lsls	r3, r4, #8
    5742:	d52c      	bpl.n	579e <__aeabi_dadd+0x17e>
    5744:	4b96      	ldr	r3, [pc, #600]	; (59a0 <__aeabi_dadd+0x380>)
    5746:	3601      	adds	r6, #1
    5748:	429e      	cmp	r6, r3
    574a:	d100      	bne.n	574e <__aeabi_dadd+0x12e>
    574c:	e09a      	b.n	5884 <__aeabi_dadd+0x264>
    574e:	4645      	mov	r5, r8
    5750:	4b94      	ldr	r3, [pc, #592]	; (59a4 <__aeabi_dadd+0x384>)
    5752:	08ff      	lsrs	r7, r7, #3
    5754:	401c      	ands	r4, r3
    5756:	0760      	lsls	r0, r4, #29
    5758:	0576      	lsls	r6, r6, #21
    575a:	0264      	lsls	r4, r4, #9
    575c:	4307      	orrs	r7, r0
    575e:	0b24      	lsrs	r4, r4, #12
    5760:	0d76      	lsrs	r6, r6, #21
    5762:	2100      	movs	r1, #0
    5764:	0324      	lsls	r4, r4, #12
    5766:	0b23      	lsrs	r3, r4, #12
    5768:	0d0c      	lsrs	r4, r1, #20
    576a:	4a8f      	ldr	r2, [pc, #572]	; (59a8 <__aeabi_dadd+0x388>)
    576c:	0524      	lsls	r4, r4, #20
    576e:	431c      	orrs	r4, r3
    5770:	4014      	ands	r4, r2
    5772:	0533      	lsls	r3, r6, #20
    5774:	4323      	orrs	r3, r4
    5776:	005b      	lsls	r3, r3, #1
    5778:	07ed      	lsls	r5, r5, #31
    577a:	085b      	lsrs	r3, r3, #1
    577c:	432b      	orrs	r3, r5
    577e:	0038      	movs	r0, r7
    5780:	0019      	movs	r1, r3
    5782:	bc3c      	pop	{r2, r3, r4, r5}
    5784:	4690      	mov	r8, r2
    5786:	4699      	mov	r9, r3
    5788:	46a2      	mov	sl, r4
    578a:	46ab      	mov	fp, r5
    578c:	bdf8      	pop	{r3, r4, r5, r6, r7, pc}
    578e:	4664      	mov	r4, ip
    5790:	4304      	orrs	r4, r0
    5792:	d100      	bne.n	5796 <__aeabi_dadd+0x176>
    5794:	e211      	b.n	5bba <__aeabi_dadd+0x59a>
    5796:	0004      	movs	r4, r0
    5798:	4667      	mov	r7, ip
    579a:	077b      	lsls	r3, r7, #29
    579c:	d1c6      	bne.n	572c <__aeabi_dadd+0x10c>
    579e:	4645      	mov	r5, r8
    57a0:	0760      	lsls	r0, r4, #29
    57a2:	08ff      	lsrs	r7, r7, #3
    57a4:	4307      	orrs	r7, r0
    57a6:	08e4      	lsrs	r4, r4, #3
    57a8:	4b7d      	ldr	r3, [pc, #500]	; (59a0 <__aeabi_dadd+0x380>)
    57aa:	429e      	cmp	r6, r3
    57ac:	d030      	beq.n	5810 <__aeabi_dadd+0x1f0>
    57ae:	0324      	lsls	r4, r4, #12
    57b0:	0576      	lsls	r6, r6, #21
    57b2:	0b24      	lsrs	r4, r4, #12
    57b4:	0d76      	lsrs	r6, r6, #21
    57b6:	e7d4      	b.n	5762 <__aeabi_dadd+0x142>
    57b8:	1a33      	subs	r3, r6, r0
    57ba:	469a      	mov	sl, r3
    57bc:	2b00      	cmp	r3, #0
    57be:	dd78      	ble.n	58b2 <__aeabi_dadd+0x292>
    57c0:	2800      	cmp	r0, #0
    57c2:	d031      	beq.n	5828 <__aeabi_dadd+0x208>
    57c4:	4876      	ldr	r0, [pc, #472]	; (59a0 <__aeabi_dadd+0x380>)
    57c6:	4286      	cmp	r6, r0
    57c8:	d0ae      	beq.n	5728 <__aeabi_dadd+0x108>
    57ca:	2080      	movs	r0, #128	; 0x80
    57cc:	0400      	lsls	r0, r0, #16
    57ce:	4301      	orrs	r1, r0
    57d0:	4653      	mov	r3, sl
    57d2:	2b38      	cmp	r3, #56	; 0x38
    57d4:	dc00      	bgt.n	57d8 <__aeabi_dadd+0x1b8>
    57d6:	e0e9      	b.n	59ac <__aeabi_dadd+0x38c>
    57d8:	430a      	orrs	r2, r1
    57da:	1e51      	subs	r1, r2, #1
    57dc:	418a      	sbcs	r2, r1
    57de:	2100      	movs	r1, #0
    57e0:	19d2      	adds	r2, r2, r7
    57e2:	42ba      	cmp	r2, r7
    57e4:	41bf      	sbcs	r7, r7
    57e6:	1909      	adds	r1, r1, r4
    57e8:	427c      	negs	r4, r7
    57ea:	0017      	movs	r7, r2
    57ec:	190c      	adds	r4, r1, r4
    57ee:	0223      	lsls	r3, r4, #8
    57f0:	d5d3      	bpl.n	579a <__aeabi_dadd+0x17a>
    57f2:	4b6b      	ldr	r3, [pc, #428]	; (59a0 <__aeabi_dadd+0x380>)
    57f4:	3601      	adds	r6, #1
    57f6:	429e      	cmp	r6, r3
    57f8:	d100      	bne.n	57fc <__aeabi_dadd+0x1dc>
    57fa:	e13a      	b.n	5a72 <__aeabi_dadd+0x452>
    57fc:	2001      	movs	r0, #1
    57fe:	4b69      	ldr	r3, [pc, #420]	; (59a4 <__aeabi_dadd+0x384>)
    5800:	401c      	ands	r4, r3
    5802:	087b      	lsrs	r3, r7, #1
    5804:	4007      	ands	r7, r0
    5806:	431f      	orrs	r7, r3
    5808:	07e0      	lsls	r0, r4, #31
    580a:	4307      	orrs	r7, r0
    580c:	0864      	lsrs	r4, r4, #1
    580e:	e78b      	b.n	5728 <__aeabi_dadd+0x108>
    5810:	0023      	movs	r3, r4
    5812:	433b      	orrs	r3, r7
    5814:	d100      	bne.n	5818 <__aeabi_dadd+0x1f8>
    5816:	e1cb      	b.n	5bb0 <__aeabi_dadd+0x590>
    5818:	2280      	movs	r2, #128	; 0x80
    581a:	0312      	lsls	r2, r2, #12
    581c:	4314      	orrs	r4, r2
    581e:	0324      	lsls	r4, r4, #12
    5820:	0b24      	lsrs	r4, r4, #12
    5822:	e79e      	b.n	5762 <__aeabi_dadd+0x142>
    5824:	002e      	movs	r6, r5
    5826:	e77f      	b.n	5728 <__aeabi_dadd+0x108>
    5828:	0008      	movs	r0, r1
    582a:	4310      	orrs	r0, r2
    582c:	d100      	bne.n	5830 <__aeabi_dadd+0x210>
    582e:	e0b4      	b.n	599a <__aeabi_dadd+0x37a>
    5830:	1e58      	subs	r0, r3, #1
    5832:	2800      	cmp	r0, #0
    5834:	d000      	beq.n	5838 <__aeabi_dadd+0x218>
    5836:	e0de      	b.n	59f6 <__aeabi_dadd+0x3d6>
    5838:	18ba      	adds	r2, r7, r2
    583a:	42ba      	cmp	r2, r7
    583c:	419b      	sbcs	r3, r3
    583e:	1864      	adds	r4, r4, r1
    5840:	425b      	negs	r3, r3
    5842:	18e4      	adds	r4, r4, r3
    5844:	0017      	movs	r7, r2
    5846:	2601      	movs	r6, #1
    5848:	0223      	lsls	r3, r4, #8
    584a:	d5a6      	bpl.n	579a <__aeabi_dadd+0x17a>
    584c:	2602      	movs	r6, #2
    584e:	e7d5      	b.n	57fc <__aeabi_dadd+0x1dc>
    5850:	2d00      	cmp	r5, #0
    5852:	d16e      	bne.n	5932 <__aeabi_dadd+0x312>
    5854:	1c70      	adds	r0, r6, #1
    5856:	0540      	lsls	r0, r0, #21
    5858:	0d40      	lsrs	r0, r0, #21
    585a:	2801      	cmp	r0, #1
    585c:	dc00      	bgt.n	5860 <__aeabi_dadd+0x240>
    585e:	e0f9      	b.n	5a54 <__aeabi_dadd+0x434>
    5860:	1ab8      	subs	r0, r7, r2
    5862:	4684      	mov	ip, r0
    5864:	4287      	cmp	r7, r0
    5866:	4180      	sbcs	r0, r0
    5868:	1ae5      	subs	r5, r4, r3
    586a:	4240      	negs	r0, r0
    586c:	1a2d      	subs	r5, r5, r0
    586e:	0228      	lsls	r0, r5, #8
    5870:	d400      	bmi.n	5874 <__aeabi_dadd+0x254>
    5872:	e089      	b.n	5988 <__aeabi_dadd+0x368>
    5874:	1bd7      	subs	r7, r2, r7
    5876:	42ba      	cmp	r2, r7
    5878:	4192      	sbcs	r2, r2
    587a:	1b1c      	subs	r4, r3, r4
    587c:	4252      	negs	r2, r2
    587e:	1aa5      	subs	r5, r4, r2
    5880:	46d8      	mov	r8, fp
    5882:	e729      	b.n	56d8 <__aeabi_dadd+0xb8>
    5884:	4645      	mov	r5, r8
    5886:	2400      	movs	r4, #0
    5888:	2700      	movs	r7, #0
    588a:	e76a      	b.n	5762 <__aeabi_dadd+0x142>
    588c:	4c45      	ldr	r4, [pc, #276]	; (59a4 <__aeabi_dadd+0x384>)
    588e:	1af6      	subs	r6, r6, r3
    5890:	402c      	ands	r4, r5
    5892:	e749      	b.n	5728 <__aeabi_dadd+0x108>
    5894:	003d      	movs	r5, r7
    5896:	3828      	subs	r0, #40	; 0x28
    5898:	4085      	lsls	r5, r0
    589a:	2700      	movs	r7, #0
    589c:	e72e      	b.n	56fc <__aeabi_dadd+0xdc>
    589e:	0038      	movs	r0, r7
    58a0:	f001 fbd0 	bl	7044 <__clzsi2>
    58a4:	3020      	adds	r0, #32
    58a6:	e71d      	b.n	56e4 <__aeabi_dadd+0xc4>
    58a8:	430a      	orrs	r2, r1
    58aa:	1e51      	subs	r1, r2, #1
    58ac:	418a      	sbcs	r2, r1
    58ae:	2100      	movs	r1, #0
    58b0:	e707      	b.n	56c2 <__aeabi_dadd+0xa2>
    58b2:	2b00      	cmp	r3, #0
    58b4:	d000      	beq.n	58b8 <__aeabi_dadd+0x298>
    58b6:	e0f3      	b.n	5aa0 <__aeabi_dadd+0x480>
    58b8:	1c70      	adds	r0, r6, #1
    58ba:	0543      	lsls	r3, r0, #21
    58bc:	0d5b      	lsrs	r3, r3, #21
    58be:	2b01      	cmp	r3, #1
    58c0:	dc00      	bgt.n	58c4 <__aeabi_dadd+0x2a4>
    58c2:	e0ad      	b.n	5a20 <__aeabi_dadd+0x400>
    58c4:	4b36      	ldr	r3, [pc, #216]	; (59a0 <__aeabi_dadd+0x380>)
    58c6:	4298      	cmp	r0, r3
    58c8:	d100      	bne.n	58cc <__aeabi_dadd+0x2ac>
    58ca:	e0d1      	b.n	5a70 <__aeabi_dadd+0x450>
    58cc:	18ba      	adds	r2, r7, r2
    58ce:	42ba      	cmp	r2, r7
    58d0:	41bf      	sbcs	r7, r7
    58d2:	1864      	adds	r4, r4, r1
    58d4:	427f      	negs	r7, r7
    58d6:	19e4      	adds	r4, r4, r7
    58d8:	07e7      	lsls	r7, r4, #31
    58da:	0852      	lsrs	r2, r2, #1
    58dc:	4317      	orrs	r7, r2
    58de:	0864      	lsrs	r4, r4, #1
    58e0:	0006      	movs	r6, r0
    58e2:	e721      	b.n	5728 <__aeabi_dadd+0x108>
    58e4:	482e      	ldr	r0, [pc, #184]	; (59a0 <__aeabi_dadd+0x380>)
    58e6:	4285      	cmp	r5, r0
    58e8:	d100      	bne.n	58ec <__aeabi_dadd+0x2cc>
    58ea:	e093      	b.n	5a14 <__aeabi_dadd+0x3f4>
    58ec:	001d      	movs	r5, r3
    58ee:	e6d0      	b.n	5692 <__aeabi_dadd+0x72>
    58f0:	0029      	movs	r1, r5
    58f2:	3e1f      	subs	r6, #31
    58f4:	40f1      	lsrs	r1, r6
    58f6:	2b20      	cmp	r3, #32
    58f8:	d100      	bne.n	58fc <__aeabi_dadd+0x2dc>
    58fa:	e08d      	b.n	5a18 <__aeabi_dadd+0x3f8>
    58fc:	2240      	movs	r2, #64	; 0x40
    58fe:	1ad3      	subs	r3, r2, r3
    5900:	409d      	lsls	r5, r3
    5902:	432f      	orrs	r7, r5
    5904:	1e7d      	subs	r5, r7, #1
    5906:	41af      	sbcs	r7, r5
    5908:	2400      	movs	r4, #0
    590a:	430f      	orrs	r7, r1
    590c:	2600      	movs	r6, #0
    590e:	e744      	b.n	579a <__aeabi_dadd+0x17a>
    5910:	002b      	movs	r3, r5
    5912:	0008      	movs	r0, r1
    5914:	3b20      	subs	r3, #32
    5916:	40d8      	lsrs	r0, r3
    5918:	0003      	movs	r3, r0
    591a:	2d20      	cmp	r5, #32
    591c:	d100      	bne.n	5920 <__aeabi_dadd+0x300>
    591e:	e07d      	b.n	5a1c <__aeabi_dadd+0x3fc>
    5920:	2040      	movs	r0, #64	; 0x40
    5922:	1b45      	subs	r5, r0, r5
    5924:	40a9      	lsls	r1, r5
    5926:	430a      	orrs	r2, r1
    5928:	1e51      	subs	r1, r2, #1
    592a:	418a      	sbcs	r2, r1
    592c:	2100      	movs	r1, #0
    592e:	431a      	orrs	r2, r3
    5930:	e6c7      	b.n	56c2 <__aeabi_dadd+0xa2>
    5932:	2e00      	cmp	r6, #0
    5934:	d050      	beq.n	59d8 <__aeabi_dadd+0x3b8>
    5936:	4e1a      	ldr	r6, [pc, #104]	; (59a0 <__aeabi_dadd+0x380>)
    5938:	42b0      	cmp	r0, r6
    593a:	d057      	beq.n	59ec <__aeabi_dadd+0x3cc>
    593c:	2680      	movs	r6, #128	; 0x80
    593e:	426b      	negs	r3, r5
    5940:	4699      	mov	r9, r3
    5942:	0436      	lsls	r6, r6, #16
    5944:	4334      	orrs	r4, r6
    5946:	464b      	mov	r3, r9
    5948:	2b38      	cmp	r3, #56	; 0x38
    594a:	dd00      	ble.n	594e <__aeabi_dadd+0x32e>
    594c:	e0d6      	b.n	5afc <__aeabi_dadd+0x4dc>
    594e:	2b1f      	cmp	r3, #31
    5950:	dd00      	ble.n	5954 <__aeabi_dadd+0x334>
    5952:	e135      	b.n	5bc0 <__aeabi_dadd+0x5a0>
    5954:	2620      	movs	r6, #32
    5956:	1af5      	subs	r5, r6, r3
    5958:	0026      	movs	r6, r4
    595a:	40ae      	lsls	r6, r5
    595c:	46b2      	mov	sl, r6
    595e:	003e      	movs	r6, r7
    5960:	40de      	lsrs	r6, r3
    5962:	46ac      	mov	ip, r5
    5964:	0035      	movs	r5, r6
    5966:	4656      	mov	r6, sl
    5968:	432e      	orrs	r6, r5
    596a:	4665      	mov	r5, ip
    596c:	40af      	lsls	r7, r5
    596e:	1e7d      	subs	r5, r7, #1
    5970:	41af      	sbcs	r7, r5
    5972:	40dc      	lsrs	r4, r3
    5974:	4337      	orrs	r7, r6
    5976:	1bd7      	subs	r7, r2, r7
    5978:	42ba      	cmp	r2, r7
    597a:	4192      	sbcs	r2, r2
    597c:	1b0c      	subs	r4, r1, r4
    597e:	4252      	negs	r2, r2
    5980:	1aa4      	subs	r4, r4, r2
    5982:	0006      	movs	r6, r0
    5984:	46d8      	mov	r8, fp
    5986:	e6a3      	b.n	56d0 <__aeabi_dadd+0xb0>
    5988:	4664      	mov	r4, ip
    598a:	4667      	mov	r7, ip
    598c:	432c      	orrs	r4, r5
    598e:	d000      	beq.n	5992 <__aeabi_dadd+0x372>
    5990:	e6a2      	b.n	56d8 <__aeabi_dadd+0xb8>
    5992:	2500      	movs	r5, #0
    5994:	2600      	movs	r6, #0
    5996:	2700      	movs	r7, #0
    5998:	e706      	b.n	57a8 <__aeabi_dadd+0x188>
    599a:	001e      	movs	r6, r3
    599c:	e6c4      	b.n	5728 <__aeabi_dadd+0x108>
    599e:	46c0      	nop			; (mov r8, r8)
    59a0:	000007ff 	.word	0x000007ff
    59a4:	ff7fffff 	.word	0xff7fffff
    59a8:	800fffff 	.word	0x800fffff
    59ac:	2b1f      	cmp	r3, #31
    59ae:	dc63      	bgt.n	5a78 <__aeabi_dadd+0x458>
    59b0:	2020      	movs	r0, #32
    59b2:	1ac3      	subs	r3, r0, r3
    59b4:	0008      	movs	r0, r1
    59b6:	4098      	lsls	r0, r3
    59b8:	469c      	mov	ip, r3
    59ba:	4683      	mov	fp, r0
    59bc:	4653      	mov	r3, sl
    59be:	0010      	movs	r0, r2
    59c0:	40d8      	lsrs	r0, r3
    59c2:	0003      	movs	r3, r0
    59c4:	4658      	mov	r0, fp
    59c6:	4318      	orrs	r0, r3
    59c8:	4663      	mov	r3, ip
    59ca:	409a      	lsls	r2, r3
    59cc:	1e53      	subs	r3, r2, #1
    59ce:	419a      	sbcs	r2, r3
    59d0:	4653      	mov	r3, sl
    59d2:	4302      	orrs	r2, r0
    59d4:	40d9      	lsrs	r1, r3
    59d6:	e703      	b.n	57e0 <__aeabi_dadd+0x1c0>
    59d8:	0026      	movs	r6, r4
    59da:	433e      	orrs	r6, r7
    59dc:	d006      	beq.n	59ec <__aeabi_dadd+0x3cc>
    59de:	43eb      	mvns	r3, r5
    59e0:	4699      	mov	r9, r3
    59e2:	2b00      	cmp	r3, #0
    59e4:	d0c7      	beq.n	5976 <__aeabi_dadd+0x356>
    59e6:	4e94      	ldr	r6, [pc, #592]	; (5c38 <__aeabi_dadd+0x618>)
    59e8:	42b0      	cmp	r0, r6
    59ea:	d1ac      	bne.n	5946 <__aeabi_dadd+0x326>
    59ec:	000c      	movs	r4, r1
    59ee:	0017      	movs	r7, r2
    59f0:	0006      	movs	r6, r0
    59f2:	46d8      	mov	r8, fp
    59f4:	e698      	b.n	5728 <__aeabi_dadd+0x108>
    59f6:	4b90      	ldr	r3, [pc, #576]	; (5c38 <__aeabi_dadd+0x618>)
    59f8:	459a      	cmp	sl, r3
    59fa:	d00b      	beq.n	5a14 <__aeabi_dadd+0x3f4>
    59fc:	4682      	mov	sl, r0
    59fe:	e6e7      	b.n	57d0 <__aeabi_dadd+0x1b0>
    5a00:	2800      	cmp	r0, #0
    5a02:	d000      	beq.n	5a06 <__aeabi_dadd+0x3e6>
    5a04:	e09e      	b.n	5b44 <__aeabi_dadd+0x524>
    5a06:	0018      	movs	r0, r3
    5a08:	4310      	orrs	r0, r2
    5a0a:	d100      	bne.n	5a0e <__aeabi_dadd+0x3ee>
    5a0c:	e0e9      	b.n	5be2 <__aeabi_dadd+0x5c2>
    5a0e:	001c      	movs	r4, r3
    5a10:	0017      	movs	r7, r2
    5a12:	46d8      	mov	r8, fp
    5a14:	4e88      	ldr	r6, [pc, #544]	; (5c38 <__aeabi_dadd+0x618>)
    5a16:	e687      	b.n	5728 <__aeabi_dadd+0x108>
    5a18:	2500      	movs	r5, #0
    5a1a:	e772      	b.n	5902 <__aeabi_dadd+0x2e2>
    5a1c:	2100      	movs	r1, #0
    5a1e:	e782      	b.n	5926 <__aeabi_dadd+0x306>
    5a20:	0023      	movs	r3, r4
    5a22:	433b      	orrs	r3, r7
    5a24:	2e00      	cmp	r6, #0
    5a26:	d000      	beq.n	5a2a <__aeabi_dadd+0x40a>
    5a28:	e0ab      	b.n	5b82 <__aeabi_dadd+0x562>
    5a2a:	2b00      	cmp	r3, #0
    5a2c:	d100      	bne.n	5a30 <__aeabi_dadd+0x410>
    5a2e:	e0e7      	b.n	5c00 <__aeabi_dadd+0x5e0>
    5a30:	000b      	movs	r3, r1
    5a32:	4313      	orrs	r3, r2
    5a34:	d100      	bne.n	5a38 <__aeabi_dadd+0x418>
    5a36:	e677      	b.n	5728 <__aeabi_dadd+0x108>
    5a38:	18ba      	adds	r2, r7, r2
    5a3a:	42ba      	cmp	r2, r7
    5a3c:	41bf      	sbcs	r7, r7
    5a3e:	1864      	adds	r4, r4, r1
    5a40:	427f      	negs	r7, r7
    5a42:	19e4      	adds	r4, r4, r7
    5a44:	0223      	lsls	r3, r4, #8
    5a46:	d400      	bmi.n	5a4a <__aeabi_dadd+0x42a>
    5a48:	e0f2      	b.n	5c30 <__aeabi_dadd+0x610>
    5a4a:	4b7c      	ldr	r3, [pc, #496]	; (5c3c <__aeabi_dadd+0x61c>)
    5a4c:	0017      	movs	r7, r2
    5a4e:	401c      	ands	r4, r3
    5a50:	0006      	movs	r6, r0
    5a52:	e669      	b.n	5728 <__aeabi_dadd+0x108>
    5a54:	0020      	movs	r0, r4
    5a56:	4338      	orrs	r0, r7
    5a58:	2e00      	cmp	r6, #0
    5a5a:	d1d1      	bne.n	5a00 <__aeabi_dadd+0x3e0>
    5a5c:	2800      	cmp	r0, #0
    5a5e:	d15b      	bne.n	5b18 <__aeabi_dadd+0x4f8>
    5a60:	001c      	movs	r4, r3
    5a62:	4314      	orrs	r4, r2
    5a64:	d100      	bne.n	5a68 <__aeabi_dadd+0x448>
    5a66:	e0a8      	b.n	5bba <__aeabi_dadd+0x59a>
    5a68:	001c      	movs	r4, r3
    5a6a:	0017      	movs	r7, r2
    5a6c:	46d8      	mov	r8, fp
    5a6e:	e65b      	b.n	5728 <__aeabi_dadd+0x108>
    5a70:	0006      	movs	r6, r0
    5a72:	2400      	movs	r4, #0
    5a74:	2700      	movs	r7, #0
    5a76:	e697      	b.n	57a8 <__aeabi_dadd+0x188>
    5a78:	4650      	mov	r0, sl
    5a7a:	000b      	movs	r3, r1
    5a7c:	3820      	subs	r0, #32
    5a7e:	40c3      	lsrs	r3, r0
    5a80:	4699      	mov	r9, r3
    5a82:	4653      	mov	r3, sl
    5a84:	2b20      	cmp	r3, #32
    5a86:	d100      	bne.n	5a8a <__aeabi_dadd+0x46a>
    5a88:	e095      	b.n	5bb6 <__aeabi_dadd+0x596>
    5a8a:	2340      	movs	r3, #64	; 0x40
    5a8c:	4650      	mov	r0, sl
    5a8e:	1a1b      	subs	r3, r3, r0
    5a90:	4099      	lsls	r1, r3
    5a92:	430a      	orrs	r2, r1
    5a94:	1e51      	subs	r1, r2, #1
    5a96:	418a      	sbcs	r2, r1
    5a98:	464b      	mov	r3, r9
    5a9a:	2100      	movs	r1, #0
    5a9c:	431a      	orrs	r2, r3
    5a9e:	e69f      	b.n	57e0 <__aeabi_dadd+0x1c0>
    5aa0:	2e00      	cmp	r6, #0
    5aa2:	d130      	bne.n	5b06 <__aeabi_dadd+0x4e6>
    5aa4:	0026      	movs	r6, r4
    5aa6:	433e      	orrs	r6, r7
    5aa8:	d067      	beq.n	5b7a <__aeabi_dadd+0x55a>
    5aaa:	43db      	mvns	r3, r3
    5aac:	469a      	mov	sl, r3
    5aae:	2b00      	cmp	r3, #0
    5ab0:	d01c      	beq.n	5aec <__aeabi_dadd+0x4cc>
    5ab2:	4e61      	ldr	r6, [pc, #388]	; (5c38 <__aeabi_dadd+0x618>)
    5ab4:	42b0      	cmp	r0, r6
    5ab6:	d060      	beq.n	5b7a <__aeabi_dadd+0x55a>
    5ab8:	4653      	mov	r3, sl
    5aba:	2b38      	cmp	r3, #56	; 0x38
    5abc:	dd00      	ble.n	5ac0 <__aeabi_dadd+0x4a0>
    5abe:	e096      	b.n	5bee <__aeabi_dadd+0x5ce>
    5ac0:	2b1f      	cmp	r3, #31
    5ac2:	dd00      	ble.n	5ac6 <__aeabi_dadd+0x4a6>
    5ac4:	e09f      	b.n	5c06 <__aeabi_dadd+0x5e6>
    5ac6:	2620      	movs	r6, #32
    5ac8:	1af3      	subs	r3, r6, r3
    5aca:	0026      	movs	r6, r4
    5acc:	409e      	lsls	r6, r3
    5ace:	469c      	mov	ip, r3
    5ad0:	46b3      	mov	fp, r6
    5ad2:	4653      	mov	r3, sl
    5ad4:	003e      	movs	r6, r7
    5ad6:	40de      	lsrs	r6, r3
    5ad8:	0033      	movs	r3, r6
    5ada:	465e      	mov	r6, fp
    5adc:	431e      	orrs	r6, r3
    5ade:	4663      	mov	r3, ip
    5ae0:	409f      	lsls	r7, r3
    5ae2:	1e7b      	subs	r3, r7, #1
    5ae4:	419f      	sbcs	r7, r3
    5ae6:	4653      	mov	r3, sl
    5ae8:	40dc      	lsrs	r4, r3
    5aea:	4337      	orrs	r7, r6
    5aec:	18bf      	adds	r7, r7, r2
    5aee:	4297      	cmp	r7, r2
    5af0:	4192      	sbcs	r2, r2
    5af2:	1864      	adds	r4, r4, r1
    5af4:	4252      	negs	r2, r2
    5af6:	18a4      	adds	r4, r4, r2
    5af8:	0006      	movs	r6, r0
    5afa:	e678      	b.n	57ee <__aeabi_dadd+0x1ce>
    5afc:	4327      	orrs	r7, r4
    5afe:	1e7c      	subs	r4, r7, #1
    5b00:	41a7      	sbcs	r7, r4
    5b02:	2400      	movs	r4, #0
    5b04:	e737      	b.n	5976 <__aeabi_dadd+0x356>
    5b06:	4e4c      	ldr	r6, [pc, #304]	; (5c38 <__aeabi_dadd+0x618>)
    5b08:	42b0      	cmp	r0, r6
    5b0a:	d036      	beq.n	5b7a <__aeabi_dadd+0x55a>
    5b0c:	2680      	movs	r6, #128	; 0x80
    5b0e:	425b      	negs	r3, r3
    5b10:	0436      	lsls	r6, r6, #16
    5b12:	469a      	mov	sl, r3
    5b14:	4334      	orrs	r4, r6
    5b16:	e7cf      	b.n	5ab8 <__aeabi_dadd+0x498>
    5b18:	0018      	movs	r0, r3
    5b1a:	4310      	orrs	r0, r2
    5b1c:	d100      	bne.n	5b20 <__aeabi_dadd+0x500>
    5b1e:	e603      	b.n	5728 <__aeabi_dadd+0x108>
    5b20:	1ab8      	subs	r0, r7, r2
    5b22:	4684      	mov	ip, r0
    5b24:	4567      	cmp	r7, ip
    5b26:	41ad      	sbcs	r5, r5
    5b28:	1ae0      	subs	r0, r4, r3
    5b2a:	426d      	negs	r5, r5
    5b2c:	1b40      	subs	r0, r0, r5
    5b2e:	0205      	lsls	r5, r0, #8
    5b30:	d400      	bmi.n	5b34 <__aeabi_dadd+0x514>
    5b32:	e62c      	b.n	578e <__aeabi_dadd+0x16e>
    5b34:	1bd7      	subs	r7, r2, r7
    5b36:	42ba      	cmp	r2, r7
    5b38:	4192      	sbcs	r2, r2
    5b3a:	1b1c      	subs	r4, r3, r4
    5b3c:	4252      	negs	r2, r2
    5b3e:	1aa4      	subs	r4, r4, r2
    5b40:	46d8      	mov	r8, fp
    5b42:	e5f1      	b.n	5728 <__aeabi_dadd+0x108>
    5b44:	0018      	movs	r0, r3
    5b46:	4310      	orrs	r0, r2
    5b48:	d100      	bne.n	5b4c <__aeabi_dadd+0x52c>
    5b4a:	e763      	b.n	5a14 <__aeabi_dadd+0x3f4>
    5b4c:	08f8      	lsrs	r0, r7, #3
    5b4e:	0767      	lsls	r7, r4, #29
    5b50:	4307      	orrs	r7, r0
    5b52:	2080      	movs	r0, #128	; 0x80
    5b54:	08e4      	lsrs	r4, r4, #3
    5b56:	0300      	lsls	r0, r0, #12
    5b58:	4204      	tst	r4, r0
    5b5a:	d008      	beq.n	5b6e <__aeabi_dadd+0x54e>
    5b5c:	08dd      	lsrs	r5, r3, #3
    5b5e:	4205      	tst	r5, r0
    5b60:	d105      	bne.n	5b6e <__aeabi_dadd+0x54e>
    5b62:	08d2      	lsrs	r2, r2, #3
    5b64:	0759      	lsls	r1, r3, #29
    5b66:	4311      	orrs	r1, r2
    5b68:	000f      	movs	r7, r1
    5b6a:	002c      	movs	r4, r5
    5b6c:	46d8      	mov	r8, fp
    5b6e:	0f7b      	lsrs	r3, r7, #29
    5b70:	00e4      	lsls	r4, r4, #3
    5b72:	431c      	orrs	r4, r3
    5b74:	00ff      	lsls	r7, r7, #3
    5b76:	4e30      	ldr	r6, [pc, #192]	; (5c38 <__aeabi_dadd+0x618>)
    5b78:	e5d6      	b.n	5728 <__aeabi_dadd+0x108>
    5b7a:	000c      	movs	r4, r1
    5b7c:	0017      	movs	r7, r2
    5b7e:	0006      	movs	r6, r0
    5b80:	e5d2      	b.n	5728 <__aeabi_dadd+0x108>
    5b82:	2b00      	cmp	r3, #0
    5b84:	d038      	beq.n	5bf8 <__aeabi_dadd+0x5d8>
    5b86:	000b      	movs	r3, r1
    5b88:	4313      	orrs	r3, r2
    5b8a:	d100      	bne.n	5b8e <__aeabi_dadd+0x56e>
    5b8c:	e742      	b.n	5a14 <__aeabi_dadd+0x3f4>
    5b8e:	08f8      	lsrs	r0, r7, #3
    5b90:	0767      	lsls	r7, r4, #29
    5b92:	4307      	orrs	r7, r0
    5b94:	2080      	movs	r0, #128	; 0x80
    5b96:	08e4      	lsrs	r4, r4, #3
    5b98:	0300      	lsls	r0, r0, #12
    5b9a:	4204      	tst	r4, r0
    5b9c:	d0e7      	beq.n	5b6e <__aeabi_dadd+0x54e>
    5b9e:	08cb      	lsrs	r3, r1, #3
    5ba0:	4203      	tst	r3, r0
    5ba2:	d1e4      	bne.n	5b6e <__aeabi_dadd+0x54e>
    5ba4:	08d2      	lsrs	r2, r2, #3
    5ba6:	0749      	lsls	r1, r1, #29
    5ba8:	4311      	orrs	r1, r2
    5baa:	000f      	movs	r7, r1
    5bac:	001c      	movs	r4, r3
    5bae:	e7de      	b.n	5b6e <__aeabi_dadd+0x54e>
    5bb0:	2700      	movs	r7, #0
    5bb2:	2400      	movs	r4, #0
    5bb4:	e5d5      	b.n	5762 <__aeabi_dadd+0x142>
    5bb6:	2100      	movs	r1, #0
    5bb8:	e76b      	b.n	5a92 <__aeabi_dadd+0x472>
    5bba:	2500      	movs	r5, #0
    5bbc:	2700      	movs	r7, #0
    5bbe:	e5f3      	b.n	57a8 <__aeabi_dadd+0x188>
    5bc0:	464e      	mov	r6, r9
    5bc2:	0025      	movs	r5, r4
    5bc4:	3e20      	subs	r6, #32
    5bc6:	40f5      	lsrs	r5, r6
    5bc8:	464b      	mov	r3, r9
    5bca:	002e      	movs	r6, r5
    5bcc:	2b20      	cmp	r3, #32
    5bce:	d02d      	beq.n	5c2c <__aeabi_dadd+0x60c>
    5bd0:	2540      	movs	r5, #64	; 0x40
    5bd2:	1aed      	subs	r5, r5, r3
    5bd4:	40ac      	lsls	r4, r5
    5bd6:	4327      	orrs	r7, r4
    5bd8:	1e7c      	subs	r4, r7, #1
    5bda:	41a7      	sbcs	r7, r4
    5bdc:	2400      	movs	r4, #0
    5bde:	4337      	orrs	r7, r6
    5be0:	e6c9      	b.n	5976 <__aeabi_dadd+0x356>
    5be2:	2480      	movs	r4, #128	; 0x80
    5be4:	2500      	movs	r5, #0
    5be6:	0324      	lsls	r4, r4, #12
    5be8:	4e13      	ldr	r6, [pc, #76]	; (5c38 <__aeabi_dadd+0x618>)
    5bea:	2700      	movs	r7, #0
    5bec:	e5dc      	b.n	57a8 <__aeabi_dadd+0x188>
    5bee:	4327      	orrs	r7, r4
    5bf0:	1e7c      	subs	r4, r7, #1
    5bf2:	41a7      	sbcs	r7, r4
    5bf4:	2400      	movs	r4, #0
    5bf6:	e779      	b.n	5aec <__aeabi_dadd+0x4cc>
    5bf8:	000c      	movs	r4, r1
    5bfa:	0017      	movs	r7, r2
    5bfc:	4e0e      	ldr	r6, [pc, #56]	; (5c38 <__aeabi_dadd+0x618>)
    5bfe:	e593      	b.n	5728 <__aeabi_dadd+0x108>
    5c00:	000c      	movs	r4, r1
    5c02:	0017      	movs	r7, r2
    5c04:	e590      	b.n	5728 <__aeabi_dadd+0x108>
    5c06:	4656      	mov	r6, sl
    5c08:	0023      	movs	r3, r4
    5c0a:	3e20      	subs	r6, #32
    5c0c:	40f3      	lsrs	r3, r6
    5c0e:	4699      	mov	r9, r3
    5c10:	4653      	mov	r3, sl
    5c12:	2b20      	cmp	r3, #32
    5c14:	d00e      	beq.n	5c34 <__aeabi_dadd+0x614>
    5c16:	2340      	movs	r3, #64	; 0x40
    5c18:	4656      	mov	r6, sl
    5c1a:	1b9b      	subs	r3, r3, r6
    5c1c:	409c      	lsls	r4, r3
    5c1e:	4327      	orrs	r7, r4
    5c20:	1e7c      	subs	r4, r7, #1
    5c22:	41a7      	sbcs	r7, r4
    5c24:	464b      	mov	r3, r9
    5c26:	2400      	movs	r4, #0
    5c28:	431f      	orrs	r7, r3
    5c2a:	e75f      	b.n	5aec <__aeabi_dadd+0x4cc>
    5c2c:	2400      	movs	r4, #0
    5c2e:	e7d2      	b.n	5bd6 <__aeabi_dadd+0x5b6>
    5c30:	0017      	movs	r7, r2
    5c32:	e5b2      	b.n	579a <__aeabi_dadd+0x17a>
    5c34:	2400      	movs	r4, #0
    5c36:	e7f2      	b.n	5c1e <__aeabi_dadd+0x5fe>
    5c38:	000007ff 	.word	0x000007ff
    5c3c:	ff7fffff 	.word	0xff7fffff

00005c40 <__aeabi_ddiv>:
    5c40:	b5f0      	push	{r4, r5, r6, r7, lr}
    5c42:	4657      	mov	r7, sl
    5c44:	4645      	mov	r5, r8
    5c46:	46de      	mov	lr, fp
    5c48:	464e      	mov	r6, r9
    5c4a:	b5e0      	push	{r5, r6, r7, lr}
    5c4c:	004c      	lsls	r4, r1, #1
    5c4e:	030e      	lsls	r6, r1, #12
    5c50:	b087      	sub	sp, #28
    5c52:	4683      	mov	fp, r0
    5c54:	4692      	mov	sl, r2
    5c56:	001d      	movs	r5, r3
    5c58:	4680      	mov	r8, r0
    5c5a:	0b36      	lsrs	r6, r6, #12
    5c5c:	0d64      	lsrs	r4, r4, #21
    5c5e:	0fcf      	lsrs	r7, r1, #31
    5c60:	2c00      	cmp	r4, #0
    5c62:	d04f      	beq.n	5d04 <__aeabi_ddiv+0xc4>
    5c64:	4b6f      	ldr	r3, [pc, #444]	; (5e24 <__aeabi_ddiv+0x1e4>)
    5c66:	429c      	cmp	r4, r3
    5c68:	d035      	beq.n	5cd6 <__aeabi_ddiv+0x96>
    5c6a:	2380      	movs	r3, #128	; 0x80
    5c6c:	0f42      	lsrs	r2, r0, #29
    5c6e:	041b      	lsls	r3, r3, #16
    5c70:	00f6      	lsls	r6, r6, #3
    5c72:	4313      	orrs	r3, r2
    5c74:	4333      	orrs	r3, r6
    5c76:	4699      	mov	r9, r3
    5c78:	00c3      	lsls	r3, r0, #3
    5c7a:	4698      	mov	r8, r3
    5c7c:	4b6a      	ldr	r3, [pc, #424]	; (5e28 <__aeabi_ddiv+0x1e8>)
    5c7e:	2600      	movs	r6, #0
    5c80:	469c      	mov	ip, r3
    5c82:	2300      	movs	r3, #0
    5c84:	4464      	add	r4, ip
    5c86:	9303      	str	r3, [sp, #12]
    5c88:	032b      	lsls	r3, r5, #12
    5c8a:	0b1b      	lsrs	r3, r3, #12
    5c8c:	469b      	mov	fp, r3
    5c8e:	006b      	lsls	r3, r5, #1
    5c90:	0fed      	lsrs	r5, r5, #31
    5c92:	4650      	mov	r0, sl
    5c94:	0d5b      	lsrs	r3, r3, #21
    5c96:	9501      	str	r5, [sp, #4]
    5c98:	d05e      	beq.n	5d58 <__aeabi_ddiv+0x118>
    5c9a:	4a62      	ldr	r2, [pc, #392]	; (5e24 <__aeabi_ddiv+0x1e4>)
    5c9c:	4293      	cmp	r3, r2
    5c9e:	d053      	beq.n	5d48 <__aeabi_ddiv+0x108>
    5ca0:	465a      	mov	r2, fp
    5ca2:	00d1      	lsls	r1, r2, #3
    5ca4:	2280      	movs	r2, #128	; 0x80
    5ca6:	0f40      	lsrs	r0, r0, #29
    5ca8:	0412      	lsls	r2, r2, #16
    5caa:	4302      	orrs	r2, r0
    5cac:	430a      	orrs	r2, r1
    5cae:	4693      	mov	fp, r2
    5cb0:	4652      	mov	r2, sl
    5cb2:	00d1      	lsls	r1, r2, #3
    5cb4:	4a5c      	ldr	r2, [pc, #368]	; (5e28 <__aeabi_ddiv+0x1e8>)
    5cb6:	4694      	mov	ip, r2
    5cb8:	2200      	movs	r2, #0
    5cba:	4463      	add	r3, ip
    5cbc:	0038      	movs	r0, r7
    5cbe:	4068      	eors	r0, r5
    5cc0:	4684      	mov	ip, r0
    5cc2:	9002      	str	r0, [sp, #8]
    5cc4:	1ae4      	subs	r4, r4, r3
    5cc6:	4316      	orrs	r6, r2
    5cc8:	2e0f      	cmp	r6, #15
    5cca:	d900      	bls.n	5cce <__aeabi_ddiv+0x8e>
    5ccc:	e0b4      	b.n	5e38 <__aeabi_ddiv+0x1f8>
    5cce:	4b57      	ldr	r3, [pc, #348]	; (5e2c <__aeabi_ddiv+0x1ec>)
    5cd0:	00b6      	lsls	r6, r6, #2
    5cd2:	599b      	ldr	r3, [r3, r6]
    5cd4:	469f      	mov	pc, r3
    5cd6:	0003      	movs	r3, r0
    5cd8:	4333      	orrs	r3, r6
    5cda:	4699      	mov	r9, r3
    5cdc:	d16c      	bne.n	5db8 <__aeabi_ddiv+0x178>
    5cde:	2300      	movs	r3, #0
    5ce0:	4698      	mov	r8, r3
    5ce2:	3302      	adds	r3, #2
    5ce4:	2608      	movs	r6, #8
    5ce6:	9303      	str	r3, [sp, #12]
    5ce8:	e7ce      	b.n	5c88 <__aeabi_ddiv+0x48>
    5cea:	46cb      	mov	fp, r9
    5cec:	4641      	mov	r1, r8
    5cee:	9a03      	ldr	r2, [sp, #12]
    5cf0:	9701      	str	r7, [sp, #4]
    5cf2:	2a02      	cmp	r2, #2
    5cf4:	d165      	bne.n	5dc2 <__aeabi_ddiv+0x182>
    5cf6:	9b01      	ldr	r3, [sp, #4]
    5cf8:	4c4a      	ldr	r4, [pc, #296]	; (5e24 <__aeabi_ddiv+0x1e4>)
    5cfa:	469c      	mov	ip, r3
    5cfc:	2300      	movs	r3, #0
    5cfe:	2200      	movs	r2, #0
    5d00:	4698      	mov	r8, r3
    5d02:	e06b      	b.n	5ddc <__aeabi_ddiv+0x19c>
    5d04:	0003      	movs	r3, r0
    5d06:	4333      	orrs	r3, r6
    5d08:	4699      	mov	r9, r3
    5d0a:	d04e      	beq.n	5daa <__aeabi_ddiv+0x16a>
    5d0c:	2e00      	cmp	r6, #0
    5d0e:	d100      	bne.n	5d12 <__aeabi_ddiv+0xd2>
    5d10:	e1bc      	b.n	608c <__aeabi_ddiv+0x44c>
    5d12:	0030      	movs	r0, r6
    5d14:	f001 f996 	bl	7044 <__clzsi2>
    5d18:	0003      	movs	r3, r0
    5d1a:	3b0b      	subs	r3, #11
    5d1c:	2b1c      	cmp	r3, #28
    5d1e:	dd00      	ble.n	5d22 <__aeabi_ddiv+0xe2>
    5d20:	e1ac      	b.n	607c <__aeabi_ddiv+0x43c>
    5d22:	221d      	movs	r2, #29
    5d24:	1ad3      	subs	r3, r2, r3
    5d26:	465a      	mov	r2, fp
    5d28:	0001      	movs	r1, r0
    5d2a:	40da      	lsrs	r2, r3
    5d2c:	3908      	subs	r1, #8
    5d2e:	408e      	lsls	r6, r1
    5d30:	0013      	movs	r3, r2
    5d32:	4333      	orrs	r3, r6
    5d34:	4699      	mov	r9, r3
    5d36:	465b      	mov	r3, fp
    5d38:	408b      	lsls	r3, r1
    5d3a:	4698      	mov	r8, r3
    5d3c:	2300      	movs	r3, #0
    5d3e:	4c3c      	ldr	r4, [pc, #240]	; (5e30 <__aeabi_ddiv+0x1f0>)
    5d40:	2600      	movs	r6, #0
    5d42:	1a24      	subs	r4, r4, r0
    5d44:	9303      	str	r3, [sp, #12]
    5d46:	e79f      	b.n	5c88 <__aeabi_ddiv+0x48>
    5d48:	4651      	mov	r1, sl
    5d4a:	465a      	mov	r2, fp
    5d4c:	4311      	orrs	r1, r2
    5d4e:	d129      	bne.n	5da4 <__aeabi_ddiv+0x164>
    5d50:	2200      	movs	r2, #0
    5d52:	4693      	mov	fp, r2
    5d54:	3202      	adds	r2, #2
    5d56:	e7b1      	b.n	5cbc <__aeabi_ddiv+0x7c>
    5d58:	4659      	mov	r1, fp
    5d5a:	4301      	orrs	r1, r0
    5d5c:	d01e      	beq.n	5d9c <__aeabi_ddiv+0x15c>
    5d5e:	465b      	mov	r3, fp
    5d60:	2b00      	cmp	r3, #0
    5d62:	d100      	bne.n	5d66 <__aeabi_ddiv+0x126>
    5d64:	e19e      	b.n	60a4 <__aeabi_ddiv+0x464>
    5d66:	4658      	mov	r0, fp
    5d68:	f001 f96c 	bl	7044 <__clzsi2>
    5d6c:	0003      	movs	r3, r0
    5d6e:	3b0b      	subs	r3, #11
    5d70:	2b1c      	cmp	r3, #28
    5d72:	dd00      	ble.n	5d76 <__aeabi_ddiv+0x136>
    5d74:	e18f      	b.n	6096 <__aeabi_ddiv+0x456>
    5d76:	0002      	movs	r2, r0
    5d78:	4659      	mov	r1, fp
    5d7a:	3a08      	subs	r2, #8
    5d7c:	4091      	lsls	r1, r2
    5d7e:	468b      	mov	fp, r1
    5d80:	211d      	movs	r1, #29
    5d82:	1acb      	subs	r3, r1, r3
    5d84:	4651      	mov	r1, sl
    5d86:	40d9      	lsrs	r1, r3
    5d88:	000b      	movs	r3, r1
    5d8a:	4659      	mov	r1, fp
    5d8c:	430b      	orrs	r3, r1
    5d8e:	4651      	mov	r1, sl
    5d90:	469b      	mov	fp, r3
    5d92:	4091      	lsls	r1, r2
    5d94:	4b26      	ldr	r3, [pc, #152]	; (5e30 <__aeabi_ddiv+0x1f0>)
    5d96:	2200      	movs	r2, #0
    5d98:	1a1b      	subs	r3, r3, r0
    5d9a:	e78f      	b.n	5cbc <__aeabi_ddiv+0x7c>
    5d9c:	2300      	movs	r3, #0
    5d9e:	2201      	movs	r2, #1
    5da0:	469b      	mov	fp, r3
    5da2:	e78b      	b.n	5cbc <__aeabi_ddiv+0x7c>
    5da4:	4651      	mov	r1, sl
    5da6:	2203      	movs	r2, #3
    5da8:	e788      	b.n	5cbc <__aeabi_ddiv+0x7c>
    5daa:	2300      	movs	r3, #0
    5dac:	4698      	mov	r8, r3
    5dae:	3301      	adds	r3, #1
    5db0:	2604      	movs	r6, #4
    5db2:	2400      	movs	r4, #0
    5db4:	9303      	str	r3, [sp, #12]
    5db6:	e767      	b.n	5c88 <__aeabi_ddiv+0x48>
    5db8:	2303      	movs	r3, #3
    5dba:	46b1      	mov	r9, r6
    5dbc:	9303      	str	r3, [sp, #12]
    5dbe:	260c      	movs	r6, #12
    5dc0:	e762      	b.n	5c88 <__aeabi_ddiv+0x48>
    5dc2:	2a03      	cmp	r2, #3
    5dc4:	d100      	bne.n	5dc8 <__aeabi_ddiv+0x188>
    5dc6:	e25c      	b.n	6282 <__aeabi_ddiv+0x642>
    5dc8:	9b01      	ldr	r3, [sp, #4]
    5dca:	2a01      	cmp	r2, #1
    5dcc:	d000      	beq.n	5dd0 <__aeabi_ddiv+0x190>
    5dce:	e1e4      	b.n	619a <__aeabi_ddiv+0x55a>
    5dd0:	4013      	ands	r3, r2
    5dd2:	469c      	mov	ip, r3
    5dd4:	2300      	movs	r3, #0
    5dd6:	2400      	movs	r4, #0
    5dd8:	2200      	movs	r2, #0
    5dda:	4698      	mov	r8, r3
    5ddc:	2100      	movs	r1, #0
    5dde:	0312      	lsls	r2, r2, #12
    5de0:	0b13      	lsrs	r3, r2, #12
    5de2:	0d0a      	lsrs	r2, r1, #20
    5de4:	0512      	lsls	r2, r2, #20
    5de6:	431a      	orrs	r2, r3
    5de8:	0523      	lsls	r3, r4, #20
    5dea:	4c12      	ldr	r4, [pc, #72]	; (5e34 <__aeabi_ddiv+0x1f4>)
    5dec:	4640      	mov	r0, r8
    5dee:	4022      	ands	r2, r4
    5df0:	4313      	orrs	r3, r2
    5df2:	4662      	mov	r2, ip
    5df4:	005b      	lsls	r3, r3, #1
    5df6:	07d2      	lsls	r2, r2, #31
    5df8:	085b      	lsrs	r3, r3, #1
    5dfa:	4313      	orrs	r3, r2
    5dfc:	0019      	movs	r1, r3
    5dfe:	b007      	add	sp, #28
    5e00:	bc3c      	pop	{r2, r3, r4, r5}
    5e02:	4690      	mov	r8, r2
    5e04:	4699      	mov	r9, r3
    5e06:	46a2      	mov	sl, r4
    5e08:	46ab      	mov	fp, r5
    5e0a:	bdf0      	pop	{r4, r5, r6, r7, pc}
    5e0c:	2300      	movs	r3, #0
    5e0e:	2280      	movs	r2, #128	; 0x80
    5e10:	469c      	mov	ip, r3
    5e12:	0312      	lsls	r2, r2, #12
    5e14:	4698      	mov	r8, r3
    5e16:	4c03      	ldr	r4, [pc, #12]	; (5e24 <__aeabi_ddiv+0x1e4>)
    5e18:	e7e0      	b.n	5ddc <__aeabi_ddiv+0x19c>
    5e1a:	2300      	movs	r3, #0
    5e1c:	4c01      	ldr	r4, [pc, #4]	; (5e24 <__aeabi_ddiv+0x1e4>)
    5e1e:	2200      	movs	r2, #0
    5e20:	4698      	mov	r8, r3
    5e22:	e7db      	b.n	5ddc <__aeabi_ddiv+0x19c>
    5e24:	000007ff 	.word	0x000007ff
    5e28:	fffffc01 	.word	0xfffffc01
    5e2c:	00007584 	.word	0x00007584
    5e30:	fffffc0d 	.word	0xfffffc0d
    5e34:	800fffff 	.word	0x800fffff
    5e38:	45d9      	cmp	r9, fp
    5e3a:	d900      	bls.n	5e3e <__aeabi_ddiv+0x1fe>
    5e3c:	e139      	b.n	60b2 <__aeabi_ddiv+0x472>
    5e3e:	d100      	bne.n	5e42 <__aeabi_ddiv+0x202>
    5e40:	e134      	b.n	60ac <__aeabi_ddiv+0x46c>
    5e42:	2300      	movs	r3, #0
    5e44:	4646      	mov	r6, r8
    5e46:	464d      	mov	r5, r9
    5e48:	469a      	mov	sl, r3
    5e4a:	3c01      	subs	r4, #1
    5e4c:	465b      	mov	r3, fp
    5e4e:	0e0a      	lsrs	r2, r1, #24
    5e50:	021b      	lsls	r3, r3, #8
    5e52:	431a      	orrs	r2, r3
    5e54:	020b      	lsls	r3, r1, #8
    5e56:	0c17      	lsrs	r7, r2, #16
    5e58:	9303      	str	r3, [sp, #12]
    5e5a:	0413      	lsls	r3, r2, #16
    5e5c:	0c1b      	lsrs	r3, r3, #16
    5e5e:	0039      	movs	r1, r7
    5e60:	0028      	movs	r0, r5
    5e62:	4690      	mov	r8, r2
    5e64:	9301      	str	r3, [sp, #4]
    5e66:	f7ff f91b 	bl	50a0 <__udivsi3>
    5e6a:	0002      	movs	r2, r0
    5e6c:	9b01      	ldr	r3, [sp, #4]
    5e6e:	4683      	mov	fp, r0
    5e70:	435a      	muls	r2, r3
    5e72:	0028      	movs	r0, r5
    5e74:	0039      	movs	r1, r7
    5e76:	4691      	mov	r9, r2
    5e78:	f7ff f998 	bl	51ac <__aeabi_uidivmod>
    5e7c:	0c35      	lsrs	r5, r6, #16
    5e7e:	0409      	lsls	r1, r1, #16
    5e80:	430d      	orrs	r5, r1
    5e82:	45a9      	cmp	r9, r5
    5e84:	d90d      	bls.n	5ea2 <__aeabi_ddiv+0x262>
    5e86:	465b      	mov	r3, fp
    5e88:	4445      	add	r5, r8
    5e8a:	3b01      	subs	r3, #1
    5e8c:	45a8      	cmp	r8, r5
    5e8e:	d900      	bls.n	5e92 <__aeabi_ddiv+0x252>
    5e90:	e13a      	b.n	6108 <__aeabi_ddiv+0x4c8>
    5e92:	45a9      	cmp	r9, r5
    5e94:	d800      	bhi.n	5e98 <__aeabi_ddiv+0x258>
    5e96:	e137      	b.n	6108 <__aeabi_ddiv+0x4c8>
    5e98:	2302      	movs	r3, #2
    5e9a:	425b      	negs	r3, r3
    5e9c:	469c      	mov	ip, r3
    5e9e:	4445      	add	r5, r8
    5ea0:	44e3      	add	fp, ip
    5ea2:	464b      	mov	r3, r9
    5ea4:	1aeb      	subs	r3, r5, r3
    5ea6:	0039      	movs	r1, r7
    5ea8:	0018      	movs	r0, r3
    5eaa:	9304      	str	r3, [sp, #16]
    5eac:	f7ff f8f8 	bl	50a0 <__udivsi3>
    5eb0:	9b01      	ldr	r3, [sp, #4]
    5eb2:	0005      	movs	r5, r0
    5eb4:	4343      	muls	r3, r0
    5eb6:	0039      	movs	r1, r7
    5eb8:	9804      	ldr	r0, [sp, #16]
    5eba:	4699      	mov	r9, r3
    5ebc:	f7ff f976 	bl	51ac <__aeabi_uidivmod>
    5ec0:	0433      	lsls	r3, r6, #16
    5ec2:	0409      	lsls	r1, r1, #16
    5ec4:	0c1b      	lsrs	r3, r3, #16
    5ec6:	430b      	orrs	r3, r1
    5ec8:	4599      	cmp	r9, r3
    5eca:	d909      	bls.n	5ee0 <__aeabi_ddiv+0x2a0>
    5ecc:	4443      	add	r3, r8
    5ece:	1e6a      	subs	r2, r5, #1
    5ed0:	4598      	cmp	r8, r3
    5ed2:	d900      	bls.n	5ed6 <__aeabi_ddiv+0x296>
    5ed4:	e11a      	b.n	610c <__aeabi_ddiv+0x4cc>
    5ed6:	4599      	cmp	r9, r3
    5ed8:	d800      	bhi.n	5edc <__aeabi_ddiv+0x29c>
    5eda:	e117      	b.n	610c <__aeabi_ddiv+0x4cc>
    5edc:	3d02      	subs	r5, #2
    5ede:	4443      	add	r3, r8
    5ee0:	464a      	mov	r2, r9
    5ee2:	1a9b      	subs	r3, r3, r2
    5ee4:	465a      	mov	r2, fp
    5ee6:	0412      	lsls	r2, r2, #16
    5ee8:	432a      	orrs	r2, r5
    5eea:	9903      	ldr	r1, [sp, #12]
    5eec:	4693      	mov	fp, r2
    5eee:	0c10      	lsrs	r0, r2, #16
    5ef0:	0c0a      	lsrs	r2, r1, #16
    5ef2:	4691      	mov	r9, r2
    5ef4:	0409      	lsls	r1, r1, #16
    5ef6:	465a      	mov	r2, fp
    5ef8:	0c09      	lsrs	r1, r1, #16
    5efa:	464e      	mov	r6, r9
    5efc:	000d      	movs	r5, r1
    5efe:	0412      	lsls	r2, r2, #16
    5f00:	0c12      	lsrs	r2, r2, #16
    5f02:	4345      	muls	r5, r0
    5f04:	9105      	str	r1, [sp, #20]
    5f06:	4351      	muls	r1, r2
    5f08:	4372      	muls	r2, r6
    5f0a:	4370      	muls	r0, r6
    5f0c:	1952      	adds	r2, r2, r5
    5f0e:	0c0e      	lsrs	r6, r1, #16
    5f10:	18b2      	adds	r2, r6, r2
    5f12:	4295      	cmp	r5, r2
    5f14:	d903      	bls.n	5f1e <__aeabi_ddiv+0x2de>
    5f16:	2580      	movs	r5, #128	; 0x80
    5f18:	026d      	lsls	r5, r5, #9
    5f1a:	46ac      	mov	ip, r5
    5f1c:	4460      	add	r0, ip
    5f1e:	0c15      	lsrs	r5, r2, #16
    5f20:	0409      	lsls	r1, r1, #16
    5f22:	0412      	lsls	r2, r2, #16
    5f24:	0c09      	lsrs	r1, r1, #16
    5f26:	1828      	adds	r0, r5, r0
    5f28:	1852      	adds	r2, r2, r1
    5f2a:	4283      	cmp	r3, r0
    5f2c:	d200      	bcs.n	5f30 <__aeabi_ddiv+0x2f0>
    5f2e:	e0ce      	b.n	60ce <__aeabi_ddiv+0x48e>
    5f30:	d100      	bne.n	5f34 <__aeabi_ddiv+0x2f4>
    5f32:	e0c8      	b.n	60c6 <__aeabi_ddiv+0x486>
    5f34:	1a1d      	subs	r5, r3, r0
    5f36:	4653      	mov	r3, sl
    5f38:	1a9e      	subs	r6, r3, r2
    5f3a:	45b2      	cmp	sl, r6
    5f3c:	4192      	sbcs	r2, r2
    5f3e:	4252      	negs	r2, r2
    5f40:	1aab      	subs	r3, r5, r2
    5f42:	469a      	mov	sl, r3
    5f44:	4598      	cmp	r8, r3
    5f46:	d100      	bne.n	5f4a <__aeabi_ddiv+0x30a>
    5f48:	e117      	b.n	617a <__aeabi_ddiv+0x53a>
    5f4a:	0039      	movs	r1, r7
    5f4c:	0018      	movs	r0, r3
    5f4e:	f7ff f8a7 	bl	50a0 <__udivsi3>
    5f52:	9b01      	ldr	r3, [sp, #4]
    5f54:	0005      	movs	r5, r0
    5f56:	4343      	muls	r3, r0
    5f58:	0039      	movs	r1, r7
    5f5a:	4650      	mov	r0, sl
    5f5c:	9304      	str	r3, [sp, #16]
    5f5e:	f7ff f925 	bl	51ac <__aeabi_uidivmod>
    5f62:	9804      	ldr	r0, [sp, #16]
    5f64:	040b      	lsls	r3, r1, #16
    5f66:	0c31      	lsrs	r1, r6, #16
    5f68:	4319      	orrs	r1, r3
    5f6a:	4288      	cmp	r0, r1
    5f6c:	d909      	bls.n	5f82 <__aeabi_ddiv+0x342>
    5f6e:	4441      	add	r1, r8
    5f70:	1e6b      	subs	r3, r5, #1
    5f72:	4588      	cmp	r8, r1
    5f74:	d900      	bls.n	5f78 <__aeabi_ddiv+0x338>
    5f76:	e107      	b.n	6188 <__aeabi_ddiv+0x548>
    5f78:	4288      	cmp	r0, r1
    5f7a:	d800      	bhi.n	5f7e <__aeabi_ddiv+0x33e>
    5f7c:	e104      	b.n	6188 <__aeabi_ddiv+0x548>
    5f7e:	3d02      	subs	r5, #2
    5f80:	4441      	add	r1, r8
    5f82:	9b04      	ldr	r3, [sp, #16]
    5f84:	1acb      	subs	r3, r1, r3
    5f86:	0018      	movs	r0, r3
    5f88:	0039      	movs	r1, r7
    5f8a:	9304      	str	r3, [sp, #16]
    5f8c:	f7ff f888 	bl	50a0 <__udivsi3>
    5f90:	9b01      	ldr	r3, [sp, #4]
    5f92:	4682      	mov	sl, r0
    5f94:	4343      	muls	r3, r0
    5f96:	0039      	movs	r1, r7
    5f98:	9804      	ldr	r0, [sp, #16]
    5f9a:	9301      	str	r3, [sp, #4]
    5f9c:	f7ff f906 	bl	51ac <__aeabi_uidivmod>
    5fa0:	9801      	ldr	r0, [sp, #4]
    5fa2:	040b      	lsls	r3, r1, #16
    5fa4:	0431      	lsls	r1, r6, #16
    5fa6:	0c09      	lsrs	r1, r1, #16
    5fa8:	4319      	orrs	r1, r3
    5faa:	4288      	cmp	r0, r1
    5fac:	d90d      	bls.n	5fca <__aeabi_ddiv+0x38a>
    5fae:	4653      	mov	r3, sl
    5fb0:	4441      	add	r1, r8
    5fb2:	3b01      	subs	r3, #1
    5fb4:	4588      	cmp	r8, r1
    5fb6:	d900      	bls.n	5fba <__aeabi_ddiv+0x37a>
    5fb8:	e0e8      	b.n	618c <__aeabi_ddiv+0x54c>
    5fba:	4288      	cmp	r0, r1
    5fbc:	d800      	bhi.n	5fc0 <__aeabi_ddiv+0x380>
    5fbe:	e0e5      	b.n	618c <__aeabi_ddiv+0x54c>
    5fc0:	2302      	movs	r3, #2
    5fc2:	425b      	negs	r3, r3
    5fc4:	469c      	mov	ip, r3
    5fc6:	4441      	add	r1, r8
    5fc8:	44e2      	add	sl, ip
    5fca:	9b01      	ldr	r3, [sp, #4]
    5fcc:	042d      	lsls	r5, r5, #16
    5fce:	1ace      	subs	r6, r1, r3
    5fd0:	4651      	mov	r1, sl
    5fd2:	4329      	orrs	r1, r5
    5fd4:	9d05      	ldr	r5, [sp, #20]
    5fd6:	464f      	mov	r7, r9
    5fd8:	002a      	movs	r2, r5
    5fda:	040b      	lsls	r3, r1, #16
    5fdc:	0c08      	lsrs	r0, r1, #16
    5fde:	0c1b      	lsrs	r3, r3, #16
    5fe0:	435a      	muls	r2, r3
    5fe2:	4345      	muls	r5, r0
    5fe4:	437b      	muls	r3, r7
    5fe6:	4378      	muls	r0, r7
    5fe8:	195b      	adds	r3, r3, r5
    5fea:	0c17      	lsrs	r7, r2, #16
    5fec:	18fb      	adds	r3, r7, r3
    5fee:	429d      	cmp	r5, r3
    5ff0:	d903      	bls.n	5ffa <__aeabi_ddiv+0x3ba>
    5ff2:	2580      	movs	r5, #128	; 0x80
    5ff4:	026d      	lsls	r5, r5, #9
    5ff6:	46ac      	mov	ip, r5
    5ff8:	4460      	add	r0, ip
    5ffa:	0c1d      	lsrs	r5, r3, #16
    5ffc:	0412      	lsls	r2, r2, #16
    5ffe:	041b      	lsls	r3, r3, #16
    6000:	0c12      	lsrs	r2, r2, #16
    6002:	1828      	adds	r0, r5, r0
    6004:	189b      	adds	r3, r3, r2
    6006:	4286      	cmp	r6, r0
    6008:	d200      	bcs.n	600c <__aeabi_ddiv+0x3cc>
    600a:	e093      	b.n	6134 <__aeabi_ddiv+0x4f4>
    600c:	d100      	bne.n	6010 <__aeabi_ddiv+0x3d0>
    600e:	e08e      	b.n	612e <__aeabi_ddiv+0x4ee>
    6010:	2301      	movs	r3, #1
    6012:	4319      	orrs	r1, r3
    6014:	4ba0      	ldr	r3, [pc, #640]	; (6298 <__aeabi_ddiv+0x658>)
    6016:	18e3      	adds	r3, r4, r3
    6018:	2b00      	cmp	r3, #0
    601a:	dc00      	bgt.n	601e <__aeabi_ddiv+0x3de>
    601c:	e099      	b.n	6152 <__aeabi_ddiv+0x512>
    601e:	074a      	lsls	r2, r1, #29
    6020:	d000      	beq.n	6024 <__aeabi_ddiv+0x3e4>
    6022:	e09e      	b.n	6162 <__aeabi_ddiv+0x522>
    6024:	465a      	mov	r2, fp
    6026:	01d2      	lsls	r2, r2, #7
    6028:	d506      	bpl.n	6038 <__aeabi_ddiv+0x3f8>
    602a:	465a      	mov	r2, fp
    602c:	4b9b      	ldr	r3, [pc, #620]	; (629c <__aeabi_ddiv+0x65c>)
    602e:	401a      	ands	r2, r3
    6030:	2380      	movs	r3, #128	; 0x80
    6032:	4693      	mov	fp, r2
    6034:	00db      	lsls	r3, r3, #3
    6036:	18e3      	adds	r3, r4, r3
    6038:	4a99      	ldr	r2, [pc, #612]	; (62a0 <__aeabi_ddiv+0x660>)
    603a:	4293      	cmp	r3, r2
    603c:	dd68      	ble.n	6110 <__aeabi_ddiv+0x4d0>
    603e:	2301      	movs	r3, #1
    6040:	9a02      	ldr	r2, [sp, #8]
    6042:	4c98      	ldr	r4, [pc, #608]	; (62a4 <__aeabi_ddiv+0x664>)
    6044:	401a      	ands	r2, r3
    6046:	2300      	movs	r3, #0
    6048:	4694      	mov	ip, r2
    604a:	4698      	mov	r8, r3
    604c:	2200      	movs	r2, #0
    604e:	e6c5      	b.n	5ddc <__aeabi_ddiv+0x19c>
    6050:	2280      	movs	r2, #128	; 0x80
    6052:	464b      	mov	r3, r9
    6054:	0312      	lsls	r2, r2, #12
    6056:	4213      	tst	r3, r2
    6058:	d00a      	beq.n	6070 <__aeabi_ddiv+0x430>
    605a:	465b      	mov	r3, fp
    605c:	4213      	tst	r3, r2
    605e:	d106      	bne.n	606e <__aeabi_ddiv+0x42e>
    6060:	431a      	orrs	r2, r3
    6062:	0312      	lsls	r2, r2, #12
    6064:	0b12      	lsrs	r2, r2, #12
    6066:	46ac      	mov	ip, r5
    6068:	4688      	mov	r8, r1
    606a:	4c8e      	ldr	r4, [pc, #568]	; (62a4 <__aeabi_ddiv+0x664>)
    606c:	e6b6      	b.n	5ddc <__aeabi_ddiv+0x19c>
    606e:	464b      	mov	r3, r9
    6070:	431a      	orrs	r2, r3
    6072:	0312      	lsls	r2, r2, #12
    6074:	0b12      	lsrs	r2, r2, #12
    6076:	46bc      	mov	ip, r7
    6078:	4c8a      	ldr	r4, [pc, #552]	; (62a4 <__aeabi_ddiv+0x664>)
    607a:	e6af      	b.n	5ddc <__aeabi_ddiv+0x19c>
    607c:	0003      	movs	r3, r0
    607e:	465a      	mov	r2, fp
    6080:	3b28      	subs	r3, #40	; 0x28
    6082:	409a      	lsls	r2, r3
    6084:	2300      	movs	r3, #0
    6086:	4691      	mov	r9, r2
    6088:	4698      	mov	r8, r3
    608a:	e657      	b.n	5d3c <__aeabi_ddiv+0xfc>
    608c:	4658      	mov	r0, fp
    608e:	f000 ffd9 	bl	7044 <__clzsi2>
    6092:	3020      	adds	r0, #32
    6094:	e640      	b.n	5d18 <__aeabi_ddiv+0xd8>
    6096:	0003      	movs	r3, r0
    6098:	4652      	mov	r2, sl
    609a:	3b28      	subs	r3, #40	; 0x28
    609c:	409a      	lsls	r2, r3
    609e:	2100      	movs	r1, #0
    60a0:	4693      	mov	fp, r2
    60a2:	e677      	b.n	5d94 <__aeabi_ddiv+0x154>
    60a4:	f000 ffce 	bl	7044 <__clzsi2>
    60a8:	3020      	adds	r0, #32
    60aa:	e65f      	b.n	5d6c <__aeabi_ddiv+0x12c>
    60ac:	4588      	cmp	r8, r1
    60ae:	d200      	bcs.n	60b2 <__aeabi_ddiv+0x472>
    60b0:	e6c7      	b.n	5e42 <__aeabi_ddiv+0x202>
    60b2:	464b      	mov	r3, r9
    60b4:	07de      	lsls	r6, r3, #31
    60b6:	085d      	lsrs	r5, r3, #1
    60b8:	4643      	mov	r3, r8
    60ba:	085b      	lsrs	r3, r3, #1
    60bc:	431e      	orrs	r6, r3
    60be:	4643      	mov	r3, r8
    60c0:	07db      	lsls	r3, r3, #31
    60c2:	469a      	mov	sl, r3
    60c4:	e6c2      	b.n	5e4c <__aeabi_ddiv+0x20c>
    60c6:	2500      	movs	r5, #0
    60c8:	4592      	cmp	sl, r2
    60ca:	d300      	bcc.n	60ce <__aeabi_ddiv+0x48e>
    60cc:	e733      	b.n	5f36 <__aeabi_ddiv+0x2f6>
    60ce:	9e03      	ldr	r6, [sp, #12]
    60d0:	4659      	mov	r1, fp
    60d2:	46b4      	mov	ip, r6
    60d4:	44e2      	add	sl, ip
    60d6:	45b2      	cmp	sl, r6
    60d8:	41ad      	sbcs	r5, r5
    60da:	426d      	negs	r5, r5
    60dc:	4445      	add	r5, r8
    60de:	18eb      	adds	r3, r5, r3
    60e0:	3901      	subs	r1, #1
    60e2:	4598      	cmp	r8, r3
    60e4:	d207      	bcs.n	60f6 <__aeabi_ddiv+0x4b6>
    60e6:	4298      	cmp	r0, r3
    60e8:	d900      	bls.n	60ec <__aeabi_ddiv+0x4ac>
    60ea:	e07f      	b.n	61ec <__aeabi_ddiv+0x5ac>
    60ec:	d100      	bne.n	60f0 <__aeabi_ddiv+0x4b0>
    60ee:	e0bc      	b.n	626a <__aeabi_ddiv+0x62a>
    60f0:	1a1d      	subs	r5, r3, r0
    60f2:	468b      	mov	fp, r1
    60f4:	e71f      	b.n	5f36 <__aeabi_ddiv+0x2f6>
    60f6:	4598      	cmp	r8, r3
    60f8:	d1fa      	bne.n	60f0 <__aeabi_ddiv+0x4b0>
    60fa:	9d03      	ldr	r5, [sp, #12]
    60fc:	4555      	cmp	r5, sl
    60fe:	d9f2      	bls.n	60e6 <__aeabi_ddiv+0x4a6>
    6100:	4643      	mov	r3, r8
    6102:	468b      	mov	fp, r1
    6104:	1a1d      	subs	r5, r3, r0
    6106:	e716      	b.n	5f36 <__aeabi_ddiv+0x2f6>
    6108:	469b      	mov	fp, r3
    610a:	e6ca      	b.n	5ea2 <__aeabi_ddiv+0x262>
    610c:	0015      	movs	r5, r2
    610e:	e6e7      	b.n	5ee0 <__aeabi_ddiv+0x2a0>
    6110:	465a      	mov	r2, fp
    6112:	08c9      	lsrs	r1, r1, #3
    6114:	0752      	lsls	r2, r2, #29
    6116:	430a      	orrs	r2, r1
    6118:	055b      	lsls	r3, r3, #21
    611a:	4690      	mov	r8, r2
    611c:	0d5c      	lsrs	r4, r3, #21
    611e:	465a      	mov	r2, fp
    6120:	2301      	movs	r3, #1
    6122:	9902      	ldr	r1, [sp, #8]
    6124:	0252      	lsls	r2, r2, #9
    6126:	4019      	ands	r1, r3
    6128:	0b12      	lsrs	r2, r2, #12
    612a:	468c      	mov	ip, r1
    612c:	e656      	b.n	5ddc <__aeabi_ddiv+0x19c>
    612e:	2b00      	cmp	r3, #0
    6130:	d100      	bne.n	6134 <__aeabi_ddiv+0x4f4>
    6132:	e76f      	b.n	6014 <__aeabi_ddiv+0x3d4>
    6134:	4446      	add	r6, r8
    6136:	1e4a      	subs	r2, r1, #1
    6138:	45b0      	cmp	r8, r6
    613a:	d929      	bls.n	6190 <__aeabi_ddiv+0x550>
    613c:	0011      	movs	r1, r2
    613e:	4286      	cmp	r6, r0
    6140:	d000      	beq.n	6144 <__aeabi_ddiv+0x504>
    6142:	e765      	b.n	6010 <__aeabi_ddiv+0x3d0>
    6144:	9a03      	ldr	r2, [sp, #12]
    6146:	4293      	cmp	r3, r2
    6148:	d000      	beq.n	614c <__aeabi_ddiv+0x50c>
    614a:	e761      	b.n	6010 <__aeabi_ddiv+0x3d0>
    614c:	e762      	b.n	6014 <__aeabi_ddiv+0x3d4>
    614e:	2101      	movs	r1, #1
    6150:	4249      	negs	r1, r1
    6152:	2001      	movs	r0, #1
    6154:	1ac2      	subs	r2, r0, r3
    6156:	2a38      	cmp	r2, #56	; 0x38
    6158:	dd21      	ble.n	619e <__aeabi_ddiv+0x55e>
    615a:	9b02      	ldr	r3, [sp, #8]
    615c:	4003      	ands	r3, r0
    615e:	469c      	mov	ip, r3
    6160:	e638      	b.n	5dd4 <__aeabi_ddiv+0x194>
    6162:	220f      	movs	r2, #15
    6164:	400a      	ands	r2, r1
    6166:	2a04      	cmp	r2, #4
    6168:	d100      	bne.n	616c <__aeabi_ddiv+0x52c>
    616a:	e75b      	b.n	6024 <__aeabi_ddiv+0x3e4>
    616c:	000a      	movs	r2, r1
    616e:	1d11      	adds	r1, r2, #4
    6170:	4291      	cmp	r1, r2
    6172:	4192      	sbcs	r2, r2
    6174:	4252      	negs	r2, r2
    6176:	4493      	add	fp, r2
    6178:	e754      	b.n	6024 <__aeabi_ddiv+0x3e4>
    617a:	4b47      	ldr	r3, [pc, #284]	; (6298 <__aeabi_ddiv+0x658>)
    617c:	18e3      	adds	r3, r4, r3
    617e:	2b00      	cmp	r3, #0
    6180:	dde5      	ble.n	614e <__aeabi_ddiv+0x50e>
    6182:	2201      	movs	r2, #1
    6184:	4252      	negs	r2, r2
    6186:	e7f2      	b.n	616e <__aeabi_ddiv+0x52e>
    6188:	001d      	movs	r5, r3
    618a:	e6fa      	b.n	5f82 <__aeabi_ddiv+0x342>
    618c:	469a      	mov	sl, r3
    618e:	e71c      	b.n	5fca <__aeabi_ddiv+0x38a>
    6190:	42b0      	cmp	r0, r6
    6192:	d839      	bhi.n	6208 <__aeabi_ddiv+0x5c8>
    6194:	d06e      	beq.n	6274 <__aeabi_ddiv+0x634>
    6196:	0011      	movs	r1, r2
    6198:	e73a      	b.n	6010 <__aeabi_ddiv+0x3d0>
    619a:	9302      	str	r3, [sp, #8]
    619c:	e73a      	b.n	6014 <__aeabi_ddiv+0x3d4>
    619e:	2a1f      	cmp	r2, #31
    61a0:	dc3c      	bgt.n	621c <__aeabi_ddiv+0x5dc>
    61a2:	2320      	movs	r3, #32
    61a4:	1a9b      	subs	r3, r3, r2
    61a6:	000c      	movs	r4, r1
    61a8:	4658      	mov	r0, fp
    61aa:	4099      	lsls	r1, r3
    61ac:	4098      	lsls	r0, r3
    61ae:	1e4b      	subs	r3, r1, #1
    61b0:	4199      	sbcs	r1, r3
    61b2:	465b      	mov	r3, fp
    61b4:	40d4      	lsrs	r4, r2
    61b6:	40d3      	lsrs	r3, r2
    61b8:	4320      	orrs	r0, r4
    61ba:	4308      	orrs	r0, r1
    61bc:	001a      	movs	r2, r3
    61be:	0743      	lsls	r3, r0, #29
    61c0:	d009      	beq.n	61d6 <__aeabi_ddiv+0x596>
    61c2:	230f      	movs	r3, #15
    61c4:	4003      	ands	r3, r0
    61c6:	2b04      	cmp	r3, #4
    61c8:	d005      	beq.n	61d6 <__aeabi_ddiv+0x596>
    61ca:	0001      	movs	r1, r0
    61cc:	1d08      	adds	r0, r1, #4
    61ce:	4288      	cmp	r0, r1
    61d0:	419b      	sbcs	r3, r3
    61d2:	425b      	negs	r3, r3
    61d4:	18d2      	adds	r2, r2, r3
    61d6:	0213      	lsls	r3, r2, #8
    61d8:	d53a      	bpl.n	6250 <__aeabi_ddiv+0x610>
    61da:	2301      	movs	r3, #1
    61dc:	9a02      	ldr	r2, [sp, #8]
    61de:	2401      	movs	r4, #1
    61e0:	401a      	ands	r2, r3
    61e2:	2300      	movs	r3, #0
    61e4:	4694      	mov	ip, r2
    61e6:	4698      	mov	r8, r3
    61e8:	2200      	movs	r2, #0
    61ea:	e5f7      	b.n	5ddc <__aeabi_ddiv+0x19c>
    61ec:	2102      	movs	r1, #2
    61ee:	4249      	negs	r1, r1
    61f0:	468c      	mov	ip, r1
    61f2:	9d03      	ldr	r5, [sp, #12]
    61f4:	44e3      	add	fp, ip
    61f6:	46ac      	mov	ip, r5
    61f8:	44e2      	add	sl, ip
    61fa:	45aa      	cmp	sl, r5
    61fc:	41ad      	sbcs	r5, r5
    61fe:	426d      	negs	r5, r5
    6200:	4445      	add	r5, r8
    6202:	18ed      	adds	r5, r5, r3
    6204:	1a2d      	subs	r5, r5, r0
    6206:	e696      	b.n	5f36 <__aeabi_ddiv+0x2f6>
    6208:	1e8a      	subs	r2, r1, #2
    620a:	9903      	ldr	r1, [sp, #12]
    620c:	004d      	lsls	r5, r1, #1
    620e:	428d      	cmp	r5, r1
    6210:	4189      	sbcs	r1, r1
    6212:	4249      	negs	r1, r1
    6214:	4441      	add	r1, r8
    6216:	1876      	adds	r6, r6, r1
    6218:	9503      	str	r5, [sp, #12]
    621a:	e78f      	b.n	613c <__aeabi_ddiv+0x4fc>
    621c:	201f      	movs	r0, #31
    621e:	4240      	negs	r0, r0
    6220:	1ac3      	subs	r3, r0, r3
    6222:	4658      	mov	r0, fp
    6224:	40d8      	lsrs	r0, r3
    6226:	0003      	movs	r3, r0
    6228:	2a20      	cmp	r2, #32
    622a:	d028      	beq.n	627e <__aeabi_ddiv+0x63e>
    622c:	2040      	movs	r0, #64	; 0x40
    622e:	465d      	mov	r5, fp
    6230:	1a82      	subs	r2, r0, r2
    6232:	4095      	lsls	r5, r2
    6234:	4329      	orrs	r1, r5
    6236:	1e4a      	subs	r2, r1, #1
    6238:	4191      	sbcs	r1, r2
    623a:	4319      	orrs	r1, r3
    623c:	2307      	movs	r3, #7
    623e:	2200      	movs	r2, #0
    6240:	400b      	ands	r3, r1
    6242:	d009      	beq.n	6258 <__aeabi_ddiv+0x618>
    6244:	230f      	movs	r3, #15
    6246:	2200      	movs	r2, #0
    6248:	400b      	ands	r3, r1
    624a:	0008      	movs	r0, r1
    624c:	2b04      	cmp	r3, #4
    624e:	d1bd      	bne.n	61cc <__aeabi_ddiv+0x58c>
    6250:	0001      	movs	r1, r0
    6252:	0753      	lsls	r3, r2, #29
    6254:	0252      	lsls	r2, r2, #9
    6256:	0b12      	lsrs	r2, r2, #12
    6258:	08c9      	lsrs	r1, r1, #3
    625a:	4319      	orrs	r1, r3
    625c:	2301      	movs	r3, #1
    625e:	4688      	mov	r8, r1
    6260:	9902      	ldr	r1, [sp, #8]
    6262:	2400      	movs	r4, #0
    6264:	4019      	ands	r1, r3
    6266:	468c      	mov	ip, r1
    6268:	e5b8      	b.n	5ddc <__aeabi_ddiv+0x19c>
    626a:	4552      	cmp	r2, sl
    626c:	d8be      	bhi.n	61ec <__aeabi_ddiv+0x5ac>
    626e:	468b      	mov	fp, r1
    6270:	2500      	movs	r5, #0
    6272:	e660      	b.n	5f36 <__aeabi_ddiv+0x2f6>
    6274:	9d03      	ldr	r5, [sp, #12]
    6276:	429d      	cmp	r5, r3
    6278:	d3c6      	bcc.n	6208 <__aeabi_ddiv+0x5c8>
    627a:	0011      	movs	r1, r2
    627c:	e762      	b.n	6144 <__aeabi_ddiv+0x504>
    627e:	2500      	movs	r5, #0
    6280:	e7d8      	b.n	6234 <__aeabi_ddiv+0x5f4>
    6282:	2280      	movs	r2, #128	; 0x80
    6284:	465b      	mov	r3, fp
    6286:	0312      	lsls	r2, r2, #12
    6288:	431a      	orrs	r2, r3
    628a:	9b01      	ldr	r3, [sp, #4]
    628c:	0312      	lsls	r2, r2, #12
    628e:	0b12      	lsrs	r2, r2, #12
    6290:	469c      	mov	ip, r3
    6292:	4688      	mov	r8, r1
    6294:	4c03      	ldr	r4, [pc, #12]	; (62a4 <__aeabi_ddiv+0x664>)
    6296:	e5a1      	b.n	5ddc <__aeabi_ddiv+0x19c>
    6298:	000003ff 	.word	0x000003ff
    629c:	feffffff 	.word	0xfeffffff
    62a0:	000007fe 	.word	0x000007fe
    62a4:	000007ff 	.word	0x000007ff

000062a8 <__aeabi_dmul>:
    62a8:	b5f0      	push	{r4, r5, r6, r7, lr}
    62aa:	4657      	mov	r7, sl
    62ac:	4645      	mov	r5, r8
    62ae:	46de      	mov	lr, fp
    62b0:	464e      	mov	r6, r9
    62b2:	b5e0      	push	{r5, r6, r7, lr}
    62b4:	030c      	lsls	r4, r1, #12
    62b6:	4698      	mov	r8, r3
    62b8:	004e      	lsls	r6, r1, #1
    62ba:	0b23      	lsrs	r3, r4, #12
    62bc:	b087      	sub	sp, #28
    62be:	0007      	movs	r7, r0
    62c0:	4692      	mov	sl, r2
    62c2:	469b      	mov	fp, r3
    62c4:	0d76      	lsrs	r6, r6, #21
    62c6:	0fcd      	lsrs	r5, r1, #31
    62c8:	2e00      	cmp	r6, #0
    62ca:	d06b      	beq.n	63a4 <__aeabi_dmul+0xfc>
    62cc:	4b6d      	ldr	r3, [pc, #436]	; (6484 <__aeabi_dmul+0x1dc>)
    62ce:	429e      	cmp	r6, r3
    62d0:	d035      	beq.n	633e <__aeabi_dmul+0x96>
    62d2:	2480      	movs	r4, #128	; 0x80
    62d4:	465b      	mov	r3, fp
    62d6:	0f42      	lsrs	r2, r0, #29
    62d8:	0424      	lsls	r4, r4, #16
    62da:	00db      	lsls	r3, r3, #3
    62dc:	4314      	orrs	r4, r2
    62de:	431c      	orrs	r4, r3
    62e0:	00c3      	lsls	r3, r0, #3
    62e2:	4699      	mov	r9, r3
    62e4:	4b68      	ldr	r3, [pc, #416]	; (6488 <__aeabi_dmul+0x1e0>)
    62e6:	46a3      	mov	fp, r4
    62e8:	469c      	mov	ip, r3
    62ea:	2300      	movs	r3, #0
    62ec:	2700      	movs	r7, #0
    62ee:	4466      	add	r6, ip
    62f0:	9302      	str	r3, [sp, #8]
    62f2:	4643      	mov	r3, r8
    62f4:	031c      	lsls	r4, r3, #12
    62f6:	005a      	lsls	r2, r3, #1
    62f8:	0fdb      	lsrs	r3, r3, #31
    62fa:	4650      	mov	r0, sl
    62fc:	0b24      	lsrs	r4, r4, #12
    62fe:	0d52      	lsrs	r2, r2, #21
    6300:	4698      	mov	r8, r3
    6302:	d100      	bne.n	6306 <__aeabi_dmul+0x5e>
    6304:	e076      	b.n	63f4 <__aeabi_dmul+0x14c>
    6306:	4b5f      	ldr	r3, [pc, #380]	; (6484 <__aeabi_dmul+0x1dc>)
    6308:	429a      	cmp	r2, r3
    630a:	d06d      	beq.n	63e8 <__aeabi_dmul+0x140>
    630c:	2380      	movs	r3, #128	; 0x80
    630e:	0f41      	lsrs	r1, r0, #29
    6310:	041b      	lsls	r3, r3, #16
    6312:	430b      	orrs	r3, r1
    6314:	495c      	ldr	r1, [pc, #368]	; (6488 <__aeabi_dmul+0x1e0>)
    6316:	00e4      	lsls	r4, r4, #3
    6318:	468c      	mov	ip, r1
    631a:	431c      	orrs	r4, r3
    631c:	00c3      	lsls	r3, r0, #3
    631e:	2000      	movs	r0, #0
    6320:	4462      	add	r2, ip
    6322:	4641      	mov	r1, r8
    6324:	18b6      	adds	r6, r6, r2
    6326:	4069      	eors	r1, r5
    6328:	1c72      	adds	r2, r6, #1
    632a:	9101      	str	r1, [sp, #4]
    632c:	4694      	mov	ip, r2
    632e:	4307      	orrs	r7, r0
    6330:	2f0f      	cmp	r7, #15
    6332:	d900      	bls.n	6336 <__aeabi_dmul+0x8e>
    6334:	e0b0      	b.n	6498 <__aeabi_dmul+0x1f0>
    6336:	4a55      	ldr	r2, [pc, #340]	; (648c <__aeabi_dmul+0x1e4>)
    6338:	00bf      	lsls	r7, r7, #2
    633a:	59d2      	ldr	r2, [r2, r7]
    633c:	4697      	mov	pc, r2
    633e:	465b      	mov	r3, fp
    6340:	4303      	orrs	r3, r0
    6342:	4699      	mov	r9, r3
    6344:	d000      	beq.n	6348 <__aeabi_dmul+0xa0>
    6346:	e087      	b.n	6458 <__aeabi_dmul+0x1b0>
    6348:	2300      	movs	r3, #0
    634a:	469b      	mov	fp, r3
    634c:	3302      	adds	r3, #2
    634e:	2708      	movs	r7, #8
    6350:	9302      	str	r3, [sp, #8]
    6352:	e7ce      	b.n	62f2 <__aeabi_dmul+0x4a>
    6354:	4642      	mov	r2, r8
    6356:	9201      	str	r2, [sp, #4]
    6358:	2802      	cmp	r0, #2
    635a:	d067      	beq.n	642c <__aeabi_dmul+0x184>
    635c:	2803      	cmp	r0, #3
    635e:	d100      	bne.n	6362 <__aeabi_dmul+0xba>
    6360:	e20e      	b.n	6780 <__aeabi_dmul+0x4d8>
    6362:	2801      	cmp	r0, #1
    6364:	d000      	beq.n	6368 <__aeabi_dmul+0xc0>
    6366:	e162      	b.n	662e <__aeabi_dmul+0x386>
    6368:	2300      	movs	r3, #0
    636a:	2400      	movs	r4, #0
    636c:	2200      	movs	r2, #0
    636e:	4699      	mov	r9, r3
    6370:	9901      	ldr	r1, [sp, #4]
    6372:	4001      	ands	r1, r0
    6374:	b2cd      	uxtb	r5, r1
    6376:	2100      	movs	r1, #0
    6378:	0312      	lsls	r2, r2, #12
    637a:	0d0b      	lsrs	r3, r1, #20
    637c:	0b12      	lsrs	r2, r2, #12
    637e:	051b      	lsls	r3, r3, #20
    6380:	4313      	orrs	r3, r2
    6382:	4a43      	ldr	r2, [pc, #268]	; (6490 <__aeabi_dmul+0x1e8>)
    6384:	0524      	lsls	r4, r4, #20
    6386:	4013      	ands	r3, r2
    6388:	431c      	orrs	r4, r3
    638a:	0064      	lsls	r4, r4, #1
    638c:	07ed      	lsls	r5, r5, #31
    638e:	0864      	lsrs	r4, r4, #1
    6390:	432c      	orrs	r4, r5
    6392:	4648      	mov	r0, r9
    6394:	0021      	movs	r1, r4
    6396:	b007      	add	sp, #28
    6398:	bc3c      	pop	{r2, r3, r4, r5}
    639a:	4690      	mov	r8, r2
    639c:	4699      	mov	r9, r3
    639e:	46a2      	mov	sl, r4
    63a0:	46ab      	mov	fp, r5
    63a2:	bdf0      	pop	{r4, r5, r6, r7, pc}
    63a4:	4303      	orrs	r3, r0
    63a6:	4699      	mov	r9, r3
    63a8:	d04f      	beq.n	644a <__aeabi_dmul+0x1a2>
    63aa:	465b      	mov	r3, fp
    63ac:	2b00      	cmp	r3, #0
    63ae:	d100      	bne.n	63b2 <__aeabi_dmul+0x10a>
    63b0:	e189      	b.n	66c6 <__aeabi_dmul+0x41e>
    63b2:	4658      	mov	r0, fp
    63b4:	f000 fe46 	bl	7044 <__clzsi2>
    63b8:	0003      	movs	r3, r0
    63ba:	3b0b      	subs	r3, #11
    63bc:	2b1c      	cmp	r3, #28
    63be:	dd00      	ble.n	63c2 <__aeabi_dmul+0x11a>
    63c0:	e17a      	b.n	66b8 <__aeabi_dmul+0x410>
    63c2:	221d      	movs	r2, #29
    63c4:	1ad3      	subs	r3, r2, r3
    63c6:	003a      	movs	r2, r7
    63c8:	0001      	movs	r1, r0
    63ca:	465c      	mov	r4, fp
    63cc:	40da      	lsrs	r2, r3
    63ce:	3908      	subs	r1, #8
    63d0:	408c      	lsls	r4, r1
    63d2:	0013      	movs	r3, r2
    63d4:	408f      	lsls	r7, r1
    63d6:	4323      	orrs	r3, r4
    63d8:	469b      	mov	fp, r3
    63da:	46b9      	mov	r9, r7
    63dc:	2300      	movs	r3, #0
    63de:	4e2d      	ldr	r6, [pc, #180]	; (6494 <__aeabi_dmul+0x1ec>)
    63e0:	2700      	movs	r7, #0
    63e2:	1a36      	subs	r6, r6, r0
    63e4:	9302      	str	r3, [sp, #8]
    63e6:	e784      	b.n	62f2 <__aeabi_dmul+0x4a>
    63e8:	4653      	mov	r3, sl
    63ea:	4323      	orrs	r3, r4
    63ec:	d12a      	bne.n	6444 <__aeabi_dmul+0x19c>
    63ee:	2400      	movs	r4, #0
    63f0:	2002      	movs	r0, #2
    63f2:	e796      	b.n	6322 <__aeabi_dmul+0x7a>
    63f4:	4653      	mov	r3, sl
    63f6:	4323      	orrs	r3, r4
    63f8:	d020      	beq.n	643c <__aeabi_dmul+0x194>
    63fa:	2c00      	cmp	r4, #0
    63fc:	d100      	bne.n	6400 <__aeabi_dmul+0x158>
    63fe:	e157      	b.n	66b0 <__aeabi_dmul+0x408>
    6400:	0020      	movs	r0, r4
    6402:	f000 fe1f 	bl	7044 <__clzsi2>
    6406:	0003      	movs	r3, r0
    6408:	3b0b      	subs	r3, #11
    640a:	2b1c      	cmp	r3, #28
    640c:	dd00      	ble.n	6410 <__aeabi_dmul+0x168>
    640e:	e149      	b.n	66a4 <__aeabi_dmul+0x3fc>
    6410:	211d      	movs	r1, #29
    6412:	1acb      	subs	r3, r1, r3
    6414:	4651      	mov	r1, sl
    6416:	0002      	movs	r2, r0
    6418:	40d9      	lsrs	r1, r3
    641a:	4653      	mov	r3, sl
    641c:	3a08      	subs	r2, #8
    641e:	4094      	lsls	r4, r2
    6420:	4093      	lsls	r3, r2
    6422:	430c      	orrs	r4, r1
    6424:	4a1b      	ldr	r2, [pc, #108]	; (6494 <__aeabi_dmul+0x1ec>)
    6426:	1a12      	subs	r2, r2, r0
    6428:	2000      	movs	r0, #0
    642a:	e77a      	b.n	6322 <__aeabi_dmul+0x7a>
    642c:	2501      	movs	r5, #1
    642e:	9b01      	ldr	r3, [sp, #4]
    6430:	4c14      	ldr	r4, [pc, #80]	; (6484 <__aeabi_dmul+0x1dc>)
    6432:	401d      	ands	r5, r3
    6434:	2300      	movs	r3, #0
    6436:	2200      	movs	r2, #0
    6438:	4699      	mov	r9, r3
    643a:	e79c      	b.n	6376 <__aeabi_dmul+0xce>
    643c:	2400      	movs	r4, #0
    643e:	2200      	movs	r2, #0
    6440:	2001      	movs	r0, #1
    6442:	e76e      	b.n	6322 <__aeabi_dmul+0x7a>
    6444:	4653      	mov	r3, sl
    6446:	2003      	movs	r0, #3
    6448:	e76b      	b.n	6322 <__aeabi_dmul+0x7a>
    644a:	2300      	movs	r3, #0
    644c:	469b      	mov	fp, r3
    644e:	3301      	adds	r3, #1
    6450:	2704      	movs	r7, #4
    6452:	2600      	movs	r6, #0
    6454:	9302      	str	r3, [sp, #8]
    6456:	e74c      	b.n	62f2 <__aeabi_dmul+0x4a>
    6458:	2303      	movs	r3, #3
    645a:	4681      	mov	r9, r0
    645c:	270c      	movs	r7, #12
    645e:	9302      	str	r3, [sp, #8]
    6460:	e747      	b.n	62f2 <__aeabi_dmul+0x4a>
    6462:	2280      	movs	r2, #128	; 0x80
    6464:	2300      	movs	r3, #0
    6466:	2500      	movs	r5, #0
    6468:	0312      	lsls	r2, r2, #12
    646a:	4699      	mov	r9, r3
    646c:	4c05      	ldr	r4, [pc, #20]	; (6484 <__aeabi_dmul+0x1dc>)
    646e:	e782      	b.n	6376 <__aeabi_dmul+0xce>
    6470:	465c      	mov	r4, fp
    6472:	464b      	mov	r3, r9
    6474:	9802      	ldr	r0, [sp, #8]
    6476:	e76f      	b.n	6358 <__aeabi_dmul+0xb0>
    6478:	465c      	mov	r4, fp
    647a:	464b      	mov	r3, r9
    647c:	9501      	str	r5, [sp, #4]
    647e:	9802      	ldr	r0, [sp, #8]
    6480:	e76a      	b.n	6358 <__aeabi_dmul+0xb0>
    6482:	46c0      	nop			; (mov r8, r8)
    6484:	000007ff 	.word	0x000007ff
    6488:	fffffc01 	.word	0xfffffc01
    648c:	000075c4 	.word	0x000075c4
    6490:	800fffff 	.word	0x800fffff
    6494:	fffffc0d 	.word	0xfffffc0d
    6498:	464a      	mov	r2, r9
    649a:	4649      	mov	r1, r9
    649c:	0c17      	lsrs	r7, r2, #16
    649e:	0c1a      	lsrs	r2, r3, #16
    64a0:	041b      	lsls	r3, r3, #16
    64a2:	0c1b      	lsrs	r3, r3, #16
    64a4:	0408      	lsls	r0, r1, #16
    64a6:	0019      	movs	r1, r3
    64a8:	0c00      	lsrs	r0, r0, #16
    64aa:	4341      	muls	r1, r0
    64ac:	0015      	movs	r5, r2
    64ae:	4688      	mov	r8, r1
    64b0:	0019      	movs	r1, r3
    64b2:	437d      	muls	r5, r7
    64b4:	4379      	muls	r1, r7
    64b6:	9503      	str	r5, [sp, #12]
    64b8:	4689      	mov	r9, r1
    64ba:	0029      	movs	r1, r5
    64bc:	0015      	movs	r5, r2
    64be:	4345      	muls	r5, r0
    64c0:	444d      	add	r5, r9
    64c2:	9502      	str	r5, [sp, #8]
    64c4:	4645      	mov	r5, r8
    64c6:	0c2d      	lsrs	r5, r5, #16
    64c8:	46aa      	mov	sl, r5
    64ca:	9d02      	ldr	r5, [sp, #8]
    64cc:	4455      	add	r5, sl
    64ce:	45a9      	cmp	r9, r5
    64d0:	d906      	bls.n	64e0 <__aeabi_dmul+0x238>
    64d2:	468a      	mov	sl, r1
    64d4:	2180      	movs	r1, #128	; 0x80
    64d6:	0249      	lsls	r1, r1, #9
    64d8:	4689      	mov	r9, r1
    64da:	44ca      	add	sl, r9
    64dc:	4651      	mov	r1, sl
    64de:	9103      	str	r1, [sp, #12]
    64e0:	0c29      	lsrs	r1, r5, #16
    64e2:	9104      	str	r1, [sp, #16]
    64e4:	4641      	mov	r1, r8
    64e6:	0409      	lsls	r1, r1, #16
    64e8:	042d      	lsls	r5, r5, #16
    64ea:	0c09      	lsrs	r1, r1, #16
    64ec:	4688      	mov	r8, r1
    64ee:	0029      	movs	r1, r5
    64f0:	0c25      	lsrs	r5, r4, #16
    64f2:	0424      	lsls	r4, r4, #16
    64f4:	4441      	add	r1, r8
    64f6:	0c24      	lsrs	r4, r4, #16
    64f8:	9105      	str	r1, [sp, #20]
    64fa:	0021      	movs	r1, r4
    64fc:	4341      	muls	r1, r0
    64fe:	4688      	mov	r8, r1
    6500:	0021      	movs	r1, r4
    6502:	4379      	muls	r1, r7
    6504:	468a      	mov	sl, r1
    6506:	4368      	muls	r0, r5
    6508:	4641      	mov	r1, r8
    650a:	4450      	add	r0, sl
    650c:	4681      	mov	r9, r0
    650e:	0c08      	lsrs	r0, r1, #16
    6510:	4448      	add	r0, r9
    6512:	436f      	muls	r7, r5
    6514:	4582      	cmp	sl, r0
    6516:	d903      	bls.n	6520 <__aeabi_dmul+0x278>
    6518:	2180      	movs	r1, #128	; 0x80
    651a:	0249      	lsls	r1, r1, #9
    651c:	4689      	mov	r9, r1
    651e:	444f      	add	r7, r9
    6520:	0c01      	lsrs	r1, r0, #16
    6522:	4689      	mov	r9, r1
    6524:	0039      	movs	r1, r7
    6526:	4449      	add	r1, r9
    6528:	9102      	str	r1, [sp, #8]
    652a:	4641      	mov	r1, r8
    652c:	040f      	lsls	r7, r1, #16
    652e:	9904      	ldr	r1, [sp, #16]
    6530:	0c3f      	lsrs	r7, r7, #16
    6532:	4688      	mov	r8, r1
    6534:	0400      	lsls	r0, r0, #16
    6536:	19c0      	adds	r0, r0, r7
    6538:	4480      	add	r8, r0
    653a:	4641      	mov	r1, r8
    653c:	9104      	str	r1, [sp, #16]
    653e:	4659      	mov	r1, fp
    6540:	0c0f      	lsrs	r7, r1, #16
    6542:	0409      	lsls	r1, r1, #16
    6544:	0c09      	lsrs	r1, r1, #16
    6546:	4688      	mov	r8, r1
    6548:	4359      	muls	r1, r3
    654a:	468a      	mov	sl, r1
    654c:	0039      	movs	r1, r7
    654e:	4351      	muls	r1, r2
    6550:	4689      	mov	r9, r1
    6552:	4641      	mov	r1, r8
    6554:	434a      	muls	r2, r1
    6556:	4651      	mov	r1, sl
    6558:	0c09      	lsrs	r1, r1, #16
    655a:	468b      	mov	fp, r1
    655c:	437b      	muls	r3, r7
    655e:	18d2      	adds	r2, r2, r3
    6560:	445a      	add	r2, fp
    6562:	4293      	cmp	r3, r2
    6564:	d903      	bls.n	656e <__aeabi_dmul+0x2c6>
    6566:	2380      	movs	r3, #128	; 0x80
    6568:	025b      	lsls	r3, r3, #9
    656a:	469b      	mov	fp, r3
    656c:	44d9      	add	r9, fp
    656e:	4651      	mov	r1, sl
    6570:	0409      	lsls	r1, r1, #16
    6572:	0c09      	lsrs	r1, r1, #16
    6574:	468a      	mov	sl, r1
    6576:	4641      	mov	r1, r8
    6578:	4361      	muls	r1, r4
    657a:	437c      	muls	r4, r7
    657c:	0c13      	lsrs	r3, r2, #16
    657e:	0412      	lsls	r2, r2, #16
    6580:	444b      	add	r3, r9
    6582:	4452      	add	r2, sl
    6584:	46a1      	mov	r9, r4
    6586:	468a      	mov	sl, r1
    6588:	003c      	movs	r4, r7
    658a:	4641      	mov	r1, r8
    658c:	436c      	muls	r4, r5
    658e:	434d      	muls	r5, r1
    6590:	4651      	mov	r1, sl
    6592:	444d      	add	r5, r9
    6594:	0c0f      	lsrs	r7, r1, #16
    6596:	197d      	adds	r5, r7, r5
    6598:	45a9      	cmp	r9, r5
    659a:	d903      	bls.n	65a4 <__aeabi_dmul+0x2fc>
    659c:	2180      	movs	r1, #128	; 0x80
    659e:	0249      	lsls	r1, r1, #9
    65a0:	4688      	mov	r8, r1
    65a2:	4444      	add	r4, r8
    65a4:	9f04      	ldr	r7, [sp, #16]
    65a6:	9903      	ldr	r1, [sp, #12]
    65a8:	46b8      	mov	r8, r7
    65aa:	4441      	add	r1, r8
    65ac:	468b      	mov	fp, r1
    65ae:	4583      	cmp	fp, r0
    65b0:	4180      	sbcs	r0, r0
    65b2:	4241      	negs	r1, r0
    65b4:	4688      	mov	r8, r1
    65b6:	4651      	mov	r1, sl
    65b8:	0408      	lsls	r0, r1, #16
    65ba:	042f      	lsls	r7, r5, #16
    65bc:	0c00      	lsrs	r0, r0, #16
    65be:	183f      	adds	r7, r7, r0
    65c0:	4658      	mov	r0, fp
    65c2:	9902      	ldr	r1, [sp, #8]
    65c4:	1810      	adds	r0, r2, r0
    65c6:	4689      	mov	r9, r1
    65c8:	4290      	cmp	r0, r2
    65ca:	4192      	sbcs	r2, r2
    65cc:	444f      	add	r7, r9
    65ce:	46ba      	mov	sl, r7
    65d0:	4252      	negs	r2, r2
    65d2:	4699      	mov	r9, r3
    65d4:	4693      	mov	fp, r2
    65d6:	44c2      	add	sl, r8
    65d8:	44d1      	add	r9, sl
    65da:	44cb      	add	fp, r9
    65dc:	428f      	cmp	r7, r1
    65de:	41bf      	sbcs	r7, r7
    65e0:	45c2      	cmp	sl, r8
    65e2:	4189      	sbcs	r1, r1
    65e4:	4599      	cmp	r9, r3
    65e6:	419b      	sbcs	r3, r3
    65e8:	4593      	cmp	fp, r2
    65ea:	4192      	sbcs	r2, r2
    65ec:	427f      	negs	r7, r7
    65ee:	4249      	negs	r1, r1
    65f0:	0c2d      	lsrs	r5, r5, #16
    65f2:	4252      	negs	r2, r2
    65f4:	430f      	orrs	r7, r1
    65f6:	425b      	negs	r3, r3
    65f8:	4313      	orrs	r3, r2
    65fa:	197f      	adds	r7, r7, r5
    65fc:	18ff      	adds	r7, r7, r3
    65fe:	465b      	mov	r3, fp
    6600:	193c      	adds	r4, r7, r4
    6602:	0ddb      	lsrs	r3, r3, #23
    6604:	9a05      	ldr	r2, [sp, #20]
    6606:	0264      	lsls	r4, r4, #9
    6608:	431c      	orrs	r4, r3
    660a:	0243      	lsls	r3, r0, #9
    660c:	4313      	orrs	r3, r2
    660e:	1e5d      	subs	r5, r3, #1
    6610:	41ab      	sbcs	r3, r5
    6612:	465a      	mov	r2, fp
    6614:	0dc0      	lsrs	r0, r0, #23
    6616:	4303      	orrs	r3, r0
    6618:	0252      	lsls	r2, r2, #9
    661a:	4313      	orrs	r3, r2
    661c:	01e2      	lsls	r2, r4, #7
    661e:	d556      	bpl.n	66ce <__aeabi_dmul+0x426>
    6620:	2001      	movs	r0, #1
    6622:	085a      	lsrs	r2, r3, #1
    6624:	4003      	ands	r3, r0
    6626:	4313      	orrs	r3, r2
    6628:	07e2      	lsls	r2, r4, #31
    662a:	4313      	orrs	r3, r2
    662c:	0864      	lsrs	r4, r4, #1
    662e:	485a      	ldr	r0, [pc, #360]	; (6798 <__aeabi_dmul+0x4f0>)
    6630:	4460      	add	r0, ip
    6632:	2800      	cmp	r0, #0
    6634:	dd4d      	ble.n	66d2 <__aeabi_dmul+0x42a>
    6636:	075a      	lsls	r2, r3, #29
    6638:	d009      	beq.n	664e <__aeabi_dmul+0x3a6>
    663a:	220f      	movs	r2, #15
    663c:	401a      	ands	r2, r3
    663e:	2a04      	cmp	r2, #4
    6640:	d005      	beq.n	664e <__aeabi_dmul+0x3a6>
    6642:	1d1a      	adds	r2, r3, #4
    6644:	429a      	cmp	r2, r3
    6646:	419b      	sbcs	r3, r3
    6648:	425b      	negs	r3, r3
    664a:	18e4      	adds	r4, r4, r3
    664c:	0013      	movs	r3, r2
    664e:	01e2      	lsls	r2, r4, #7
    6650:	d504      	bpl.n	665c <__aeabi_dmul+0x3b4>
    6652:	2080      	movs	r0, #128	; 0x80
    6654:	4a51      	ldr	r2, [pc, #324]	; (679c <__aeabi_dmul+0x4f4>)
    6656:	00c0      	lsls	r0, r0, #3
    6658:	4014      	ands	r4, r2
    665a:	4460      	add	r0, ip
    665c:	4a50      	ldr	r2, [pc, #320]	; (67a0 <__aeabi_dmul+0x4f8>)
    665e:	4290      	cmp	r0, r2
    6660:	dd00      	ble.n	6664 <__aeabi_dmul+0x3bc>
    6662:	e6e3      	b.n	642c <__aeabi_dmul+0x184>
    6664:	2501      	movs	r5, #1
    6666:	08db      	lsrs	r3, r3, #3
    6668:	0762      	lsls	r2, r4, #29
    666a:	431a      	orrs	r2, r3
    666c:	0264      	lsls	r4, r4, #9
    666e:	9b01      	ldr	r3, [sp, #4]
    6670:	4691      	mov	r9, r2
    6672:	0b22      	lsrs	r2, r4, #12
    6674:	0544      	lsls	r4, r0, #21
    6676:	0d64      	lsrs	r4, r4, #21
    6678:	401d      	ands	r5, r3
    667a:	e67c      	b.n	6376 <__aeabi_dmul+0xce>
    667c:	2280      	movs	r2, #128	; 0x80
    667e:	4659      	mov	r1, fp
    6680:	0312      	lsls	r2, r2, #12
    6682:	4211      	tst	r1, r2
    6684:	d008      	beq.n	6698 <__aeabi_dmul+0x3f0>
    6686:	4214      	tst	r4, r2
    6688:	d106      	bne.n	6698 <__aeabi_dmul+0x3f0>
    668a:	4322      	orrs	r2, r4
    668c:	0312      	lsls	r2, r2, #12
    668e:	0b12      	lsrs	r2, r2, #12
    6690:	4645      	mov	r5, r8
    6692:	4699      	mov	r9, r3
    6694:	4c43      	ldr	r4, [pc, #268]	; (67a4 <__aeabi_dmul+0x4fc>)
    6696:	e66e      	b.n	6376 <__aeabi_dmul+0xce>
    6698:	465b      	mov	r3, fp
    669a:	431a      	orrs	r2, r3
    669c:	0312      	lsls	r2, r2, #12
    669e:	0b12      	lsrs	r2, r2, #12
    66a0:	4c40      	ldr	r4, [pc, #256]	; (67a4 <__aeabi_dmul+0x4fc>)
    66a2:	e668      	b.n	6376 <__aeabi_dmul+0xce>
    66a4:	0003      	movs	r3, r0
    66a6:	4654      	mov	r4, sl
    66a8:	3b28      	subs	r3, #40	; 0x28
    66aa:	409c      	lsls	r4, r3
    66ac:	2300      	movs	r3, #0
    66ae:	e6b9      	b.n	6424 <__aeabi_dmul+0x17c>
    66b0:	f000 fcc8 	bl	7044 <__clzsi2>
    66b4:	3020      	adds	r0, #32
    66b6:	e6a6      	b.n	6406 <__aeabi_dmul+0x15e>
    66b8:	0003      	movs	r3, r0
    66ba:	3b28      	subs	r3, #40	; 0x28
    66bc:	409f      	lsls	r7, r3
    66be:	2300      	movs	r3, #0
    66c0:	46bb      	mov	fp, r7
    66c2:	4699      	mov	r9, r3
    66c4:	e68a      	b.n	63dc <__aeabi_dmul+0x134>
    66c6:	f000 fcbd 	bl	7044 <__clzsi2>
    66ca:	3020      	adds	r0, #32
    66cc:	e674      	b.n	63b8 <__aeabi_dmul+0x110>
    66ce:	46b4      	mov	ip, r6
    66d0:	e7ad      	b.n	662e <__aeabi_dmul+0x386>
    66d2:	2501      	movs	r5, #1
    66d4:	1a2a      	subs	r2, r5, r0
    66d6:	2a38      	cmp	r2, #56	; 0x38
    66d8:	dd06      	ble.n	66e8 <__aeabi_dmul+0x440>
    66da:	9b01      	ldr	r3, [sp, #4]
    66dc:	2400      	movs	r4, #0
    66de:	401d      	ands	r5, r3
    66e0:	2300      	movs	r3, #0
    66e2:	2200      	movs	r2, #0
    66e4:	4699      	mov	r9, r3
    66e6:	e646      	b.n	6376 <__aeabi_dmul+0xce>
    66e8:	2a1f      	cmp	r2, #31
    66ea:	dc21      	bgt.n	6730 <__aeabi_dmul+0x488>
    66ec:	2520      	movs	r5, #32
    66ee:	0020      	movs	r0, r4
    66f0:	1aad      	subs	r5, r5, r2
    66f2:	001e      	movs	r6, r3
    66f4:	40ab      	lsls	r3, r5
    66f6:	40a8      	lsls	r0, r5
    66f8:	40d6      	lsrs	r6, r2
    66fa:	1e5d      	subs	r5, r3, #1
    66fc:	41ab      	sbcs	r3, r5
    66fe:	4330      	orrs	r0, r6
    6700:	4318      	orrs	r0, r3
    6702:	40d4      	lsrs	r4, r2
    6704:	0743      	lsls	r3, r0, #29
    6706:	d009      	beq.n	671c <__aeabi_dmul+0x474>
    6708:	230f      	movs	r3, #15
    670a:	4003      	ands	r3, r0
    670c:	2b04      	cmp	r3, #4
    670e:	d005      	beq.n	671c <__aeabi_dmul+0x474>
    6710:	0003      	movs	r3, r0
    6712:	1d18      	adds	r0, r3, #4
    6714:	4298      	cmp	r0, r3
    6716:	419b      	sbcs	r3, r3
    6718:	425b      	negs	r3, r3
    671a:	18e4      	adds	r4, r4, r3
    671c:	0223      	lsls	r3, r4, #8
    671e:	d521      	bpl.n	6764 <__aeabi_dmul+0x4bc>
    6720:	2501      	movs	r5, #1
    6722:	9b01      	ldr	r3, [sp, #4]
    6724:	2401      	movs	r4, #1
    6726:	401d      	ands	r5, r3
    6728:	2300      	movs	r3, #0
    672a:	2200      	movs	r2, #0
    672c:	4699      	mov	r9, r3
    672e:	e622      	b.n	6376 <__aeabi_dmul+0xce>
    6730:	251f      	movs	r5, #31
    6732:	0021      	movs	r1, r4
    6734:	426d      	negs	r5, r5
    6736:	1a28      	subs	r0, r5, r0
    6738:	40c1      	lsrs	r1, r0
    673a:	0008      	movs	r0, r1
    673c:	2a20      	cmp	r2, #32
    673e:	d01d      	beq.n	677c <__aeabi_dmul+0x4d4>
    6740:	355f      	adds	r5, #95	; 0x5f
    6742:	1aaa      	subs	r2, r5, r2
    6744:	4094      	lsls	r4, r2
    6746:	4323      	orrs	r3, r4
    6748:	1e5c      	subs	r4, r3, #1
    674a:	41a3      	sbcs	r3, r4
    674c:	2507      	movs	r5, #7
    674e:	4303      	orrs	r3, r0
    6750:	401d      	ands	r5, r3
    6752:	2200      	movs	r2, #0
    6754:	2d00      	cmp	r5, #0
    6756:	d009      	beq.n	676c <__aeabi_dmul+0x4c4>
    6758:	220f      	movs	r2, #15
    675a:	2400      	movs	r4, #0
    675c:	401a      	ands	r2, r3
    675e:	0018      	movs	r0, r3
    6760:	2a04      	cmp	r2, #4
    6762:	d1d6      	bne.n	6712 <__aeabi_dmul+0x46a>
    6764:	0003      	movs	r3, r0
    6766:	0765      	lsls	r5, r4, #29
    6768:	0264      	lsls	r4, r4, #9
    676a:	0b22      	lsrs	r2, r4, #12
    676c:	08db      	lsrs	r3, r3, #3
    676e:	432b      	orrs	r3, r5
    6770:	2501      	movs	r5, #1
    6772:	4699      	mov	r9, r3
    6774:	9b01      	ldr	r3, [sp, #4]
    6776:	2400      	movs	r4, #0
    6778:	401d      	ands	r5, r3
    677a:	e5fc      	b.n	6376 <__aeabi_dmul+0xce>
    677c:	2400      	movs	r4, #0
    677e:	e7e2      	b.n	6746 <__aeabi_dmul+0x49e>
    6780:	2280      	movs	r2, #128	; 0x80
    6782:	2501      	movs	r5, #1
    6784:	0312      	lsls	r2, r2, #12
    6786:	4322      	orrs	r2, r4
    6788:	9901      	ldr	r1, [sp, #4]
    678a:	0312      	lsls	r2, r2, #12
    678c:	0b12      	lsrs	r2, r2, #12
    678e:	400d      	ands	r5, r1
    6790:	4699      	mov	r9, r3
    6792:	4c04      	ldr	r4, [pc, #16]	; (67a4 <__aeabi_dmul+0x4fc>)
    6794:	e5ef      	b.n	6376 <__aeabi_dmul+0xce>
    6796:	46c0      	nop			; (mov r8, r8)
    6798:	000003ff 	.word	0x000003ff
    679c:	feffffff 	.word	0xfeffffff
    67a0:	000007fe 	.word	0x000007fe
    67a4:	000007ff 	.word	0x000007ff

000067a8 <__aeabi_dsub>:
    67a8:	b5f0      	push	{r4, r5, r6, r7, lr}
    67aa:	4646      	mov	r6, r8
    67ac:	46d6      	mov	lr, sl
    67ae:	464f      	mov	r7, r9
    67b0:	030c      	lsls	r4, r1, #12
    67b2:	b5c0      	push	{r6, r7, lr}
    67b4:	0fcd      	lsrs	r5, r1, #31
    67b6:	004e      	lsls	r6, r1, #1
    67b8:	0a61      	lsrs	r1, r4, #9
    67ba:	0f44      	lsrs	r4, r0, #29
    67bc:	430c      	orrs	r4, r1
    67be:	00c1      	lsls	r1, r0, #3
    67c0:	0058      	lsls	r0, r3, #1
    67c2:	0d40      	lsrs	r0, r0, #21
    67c4:	4684      	mov	ip, r0
    67c6:	468a      	mov	sl, r1
    67c8:	000f      	movs	r7, r1
    67ca:	0319      	lsls	r1, r3, #12
    67cc:	0f50      	lsrs	r0, r2, #29
    67ce:	0a49      	lsrs	r1, r1, #9
    67d0:	4301      	orrs	r1, r0
    67d2:	48c6      	ldr	r0, [pc, #792]	; (6aec <__aeabi_dsub+0x344>)
    67d4:	0d76      	lsrs	r6, r6, #21
    67d6:	46a8      	mov	r8, r5
    67d8:	0fdb      	lsrs	r3, r3, #31
    67da:	00d2      	lsls	r2, r2, #3
    67dc:	4584      	cmp	ip, r0
    67de:	d100      	bne.n	67e2 <__aeabi_dsub+0x3a>
    67e0:	e0d8      	b.n	6994 <__aeabi_dsub+0x1ec>
    67e2:	2001      	movs	r0, #1
    67e4:	4043      	eors	r3, r0
    67e6:	42ab      	cmp	r3, r5
    67e8:	d100      	bne.n	67ec <__aeabi_dsub+0x44>
    67ea:	e0a6      	b.n	693a <__aeabi_dsub+0x192>
    67ec:	4660      	mov	r0, ip
    67ee:	1a35      	subs	r5, r6, r0
    67f0:	2d00      	cmp	r5, #0
    67f2:	dc00      	bgt.n	67f6 <__aeabi_dsub+0x4e>
    67f4:	e105      	b.n	6a02 <__aeabi_dsub+0x25a>
    67f6:	2800      	cmp	r0, #0
    67f8:	d110      	bne.n	681c <__aeabi_dsub+0x74>
    67fa:	000b      	movs	r3, r1
    67fc:	4313      	orrs	r3, r2
    67fe:	d100      	bne.n	6802 <__aeabi_dsub+0x5a>
    6800:	e0d7      	b.n	69b2 <__aeabi_dsub+0x20a>
    6802:	1e6b      	subs	r3, r5, #1
    6804:	2b00      	cmp	r3, #0
    6806:	d000      	beq.n	680a <__aeabi_dsub+0x62>
    6808:	e14b      	b.n	6aa2 <__aeabi_dsub+0x2fa>
    680a:	4653      	mov	r3, sl
    680c:	1a9f      	subs	r7, r3, r2
    680e:	45ba      	cmp	sl, r7
    6810:	4180      	sbcs	r0, r0
    6812:	1a64      	subs	r4, r4, r1
    6814:	4240      	negs	r0, r0
    6816:	1a24      	subs	r4, r4, r0
    6818:	2601      	movs	r6, #1
    681a:	e01e      	b.n	685a <__aeabi_dsub+0xb2>
    681c:	4bb3      	ldr	r3, [pc, #716]	; (6aec <__aeabi_dsub+0x344>)
    681e:	429e      	cmp	r6, r3
    6820:	d048      	beq.n	68b4 <__aeabi_dsub+0x10c>
    6822:	2380      	movs	r3, #128	; 0x80
    6824:	041b      	lsls	r3, r3, #16
    6826:	4319      	orrs	r1, r3
    6828:	2d38      	cmp	r5, #56	; 0x38
    682a:	dd00      	ble.n	682e <__aeabi_dsub+0x86>
    682c:	e119      	b.n	6a62 <__aeabi_dsub+0x2ba>
    682e:	2d1f      	cmp	r5, #31
    6830:	dd00      	ble.n	6834 <__aeabi_dsub+0x8c>
    6832:	e14c      	b.n	6ace <__aeabi_dsub+0x326>
    6834:	2320      	movs	r3, #32
    6836:	000f      	movs	r7, r1
    6838:	1b5b      	subs	r3, r3, r5
    683a:	0010      	movs	r0, r2
    683c:	409a      	lsls	r2, r3
    683e:	409f      	lsls	r7, r3
    6840:	40e8      	lsrs	r0, r5
    6842:	1e53      	subs	r3, r2, #1
    6844:	419a      	sbcs	r2, r3
    6846:	40e9      	lsrs	r1, r5
    6848:	4307      	orrs	r7, r0
    684a:	4317      	orrs	r7, r2
    684c:	4653      	mov	r3, sl
    684e:	1bdf      	subs	r7, r3, r7
    6850:	1a61      	subs	r1, r4, r1
    6852:	45ba      	cmp	sl, r7
    6854:	41a4      	sbcs	r4, r4
    6856:	4264      	negs	r4, r4
    6858:	1b0c      	subs	r4, r1, r4
    685a:	0223      	lsls	r3, r4, #8
    685c:	d400      	bmi.n	6860 <__aeabi_dsub+0xb8>
    685e:	e0c5      	b.n	69ec <__aeabi_dsub+0x244>
    6860:	0264      	lsls	r4, r4, #9
    6862:	0a65      	lsrs	r5, r4, #9
    6864:	2d00      	cmp	r5, #0
    6866:	d100      	bne.n	686a <__aeabi_dsub+0xc2>
    6868:	e0f6      	b.n	6a58 <__aeabi_dsub+0x2b0>
    686a:	0028      	movs	r0, r5
    686c:	f000 fbea 	bl	7044 <__clzsi2>
    6870:	0003      	movs	r3, r0
    6872:	3b08      	subs	r3, #8
    6874:	2b1f      	cmp	r3, #31
    6876:	dd00      	ble.n	687a <__aeabi_dsub+0xd2>
    6878:	e0e9      	b.n	6a4e <__aeabi_dsub+0x2a6>
    687a:	2220      	movs	r2, #32
    687c:	003c      	movs	r4, r7
    687e:	1ad2      	subs	r2, r2, r3
    6880:	409d      	lsls	r5, r3
    6882:	40d4      	lsrs	r4, r2
    6884:	409f      	lsls	r7, r3
    6886:	4325      	orrs	r5, r4
    6888:	429e      	cmp	r6, r3
    688a:	dd00      	ble.n	688e <__aeabi_dsub+0xe6>
    688c:	e0db      	b.n	6a46 <__aeabi_dsub+0x29e>
    688e:	1b9e      	subs	r6, r3, r6
    6890:	1c73      	adds	r3, r6, #1
    6892:	2b1f      	cmp	r3, #31
    6894:	dd00      	ble.n	6898 <__aeabi_dsub+0xf0>
    6896:	e10a      	b.n	6aae <__aeabi_dsub+0x306>
    6898:	2220      	movs	r2, #32
    689a:	0038      	movs	r0, r7
    689c:	1ad2      	subs	r2, r2, r3
    689e:	0029      	movs	r1, r5
    68a0:	4097      	lsls	r7, r2
    68a2:	002c      	movs	r4, r5
    68a4:	4091      	lsls	r1, r2
    68a6:	40d8      	lsrs	r0, r3
    68a8:	1e7a      	subs	r2, r7, #1
    68aa:	4197      	sbcs	r7, r2
    68ac:	40dc      	lsrs	r4, r3
    68ae:	2600      	movs	r6, #0
    68b0:	4301      	orrs	r1, r0
    68b2:	430f      	orrs	r7, r1
    68b4:	077b      	lsls	r3, r7, #29
    68b6:	d009      	beq.n	68cc <__aeabi_dsub+0x124>
    68b8:	230f      	movs	r3, #15
    68ba:	403b      	ands	r3, r7
    68bc:	2b04      	cmp	r3, #4
    68be:	d005      	beq.n	68cc <__aeabi_dsub+0x124>
    68c0:	1d3b      	adds	r3, r7, #4
    68c2:	42bb      	cmp	r3, r7
    68c4:	41bf      	sbcs	r7, r7
    68c6:	427f      	negs	r7, r7
    68c8:	19e4      	adds	r4, r4, r7
    68ca:	001f      	movs	r7, r3
    68cc:	0223      	lsls	r3, r4, #8
    68ce:	d525      	bpl.n	691c <__aeabi_dsub+0x174>
    68d0:	4b86      	ldr	r3, [pc, #536]	; (6aec <__aeabi_dsub+0x344>)
    68d2:	3601      	adds	r6, #1
    68d4:	429e      	cmp	r6, r3
    68d6:	d100      	bne.n	68da <__aeabi_dsub+0x132>
    68d8:	e0af      	b.n	6a3a <__aeabi_dsub+0x292>
    68da:	4b85      	ldr	r3, [pc, #532]	; (6af0 <__aeabi_dsub+0x348>)
    68dc:	2501      	movs	r5, #1
    68de:	401c      	ands	r4, r3
    68e0:	4643      	mov	r3, r8
    68e2:	0762      	lsls	r2, r4, #29
    68e4:	08ff      	lsrs	r7, r7, #3
    68e6:	0264      	lsls	r4, r4, #9
    68e8:	0576      	lsls	r6, r6, #21
    68ea:	4317      	orrs	r7, r2
    68ec:	0b24      	lsrs	r4, r4, #12
    68ee:	0d76      	lsrs	r6, r6, #21
    68f0:	401d      	ands	r5, r3
    68f2:	2100      	movs	r1, #0
    68f4:	0324      	lsls	r4, r4, #12
    68f6:	0b23      	lsrs	r3, r4, #12
    68f8:	0d0c      	lsrs	r4, r1, #20
    68fa:	4a7e      	ldr	r2, [pc, #504]	; (6af4 <__aeabi_dsub+0x34c>)
    68fc:	0524      	lsls	r4, r4, #20
    68fe:	431c      	orrs	r4, r3
    6900:	4014      	ands	r4, r2
    6902:	0533      	lsls	r3, r6, #20
    6904:	4323      	orrs	r3, r4
    6906:	005b      	lsls	r3, r3, #1
    6908:	07ed      	lsls	r5, r5, #31
    690a:	085b      	lsrs	r3, r3, #1
    690c:	432b      	orrs	r3, r5
    690e:	0038      	movs	r0, r7
    6910:	0019      	movs	r1, r3
    6912:	bc1c      	pop	{r2, r3, r4}
    6914:	4690      	mov	r8, r2
    6916:	4699      	mov	r9, r3
    6918:	46a2      	mov	sl, r4
    691a:	bdf0      	pop	{r4, r5, r6, r7, pc}
    691c:	2501      	movs	r5, #1
    691e:	4643      	mov	r3, r8
    6920:	0762      	lsls	r2, r4, #29
    6922:	08ff      	lsrs	r7, r7, #3
    6924:	4317      	orrs	r7, r2
    6926:	08e4      	lsrs	r4, r4, #3
    6928:	401d      	ands	r5, r3
    692a:	4b70      	ldr	r3, [pc, #448]	; (6aec <__aeabi_dsub+0x344>)
    692c:	429e      	cmp	r6, r3
    692e:	d036      	beq.n	699e <__aeabi_dsub+0x1f6>
    6930:	0324      	lsls	r4, r4, #12
    6932:	0576      	lsls	r6, r6, #21
    6934:	0b24      	lsrs	r4, r4, #12
    6936:	0d76      	lsrs	r6, r6, #21
    6938:	e7db      	b.n	68f2 <__aeabi_dsub+0x14a>
    693a:	4663      	mov	r3, ip
    693c:	1af3      	subs	r3, r6, r3
    693e:	2b00      	cmp	r3, #0
    6940:	dc00      	bgt.n	6944 <__aeabi_dsub+0x19c>
    6942:	e094      	b.n	6a6e <__aeabi_dsub+0x2c6>
    6944:	4660      	mov	r0, ip
    6946:	2800      	cmp	r0, #0
    6948:	d035      	beq.n	69b6 <__aeabi_dsub+0x20e>
    694a:	4868      	ldr	r0, [pc, #416]	; (6aec <__aeabi_dsub+0x344>)
    694c:	4286      	cmp	r6, r0
    694e:	d0b1      	beq.n	68b4 <__aeabi_dsub+0x10c>
    6950:	2780      	movs	r7, #128	; 0x80
    6952:	043f      	lsls	r7, r7, #16
    6954:	4339      	orrs	r1, r7
    6956:	2b38      	cmp	r3, #56	; 0x38
    6958:	dc00      	bgt.n	695c <__aeabi_dsub+0x1b4>
    695a:	e0fd      	b.n	6b58 <__aeabi_dsub+0x3b0>
    695c:	430a      	orrs	r2, r1
    695e:	0017      	movs	r7, r2
    6960:	2100      	movs	r1, #0
    6962:	1e7a      	subs	r2, r7, #1
    6964:	4197      	sbcs	r7, r2
    6966:	4457      	add	r7, sl
    6968:	4557      	cmp	r7, sl
    696a:	4180      	sbcs	r0, r0
    696c:	1909      	adds	r1, r1, r4
    696e:	4244      	negs	r4, r0
    6970:	190c      	adds	r4, r1, r4
    6972:	0223      	lsls	r3, r4, #8
    6974:	d53a      	bpl.n	69ec <__aeabi_dsub+0x244>
    6976:	4b5d      	ldr	r3, [pc, #372]	; (6aec <__aeabi_dsub+0x344>)
    6978:	3601      	adds	r6, #1
    697a:	429e      	cmp	r6, r3
    697c:	d100      	bne.n	6980 <__aeabi_dsub+0x1d8>
    697e:	e14b      	b.n	6c18 <__aeabi_dsub+0x470>
    6980:	2201      	movs	r2, #1
    6982:	4b5b      	ldr	r3, [pc, #364]	; (6af0 <__aeabi_dsub+0x348>)
    6984:	401c      	ands	r4, r3
    6986:	087b      	lsrs	r3, r7, #1
    6988:	4017      	ands	r7, r2
    698a:	431f      	orrs	r7, r3
    698c:	07e2      	lsls	r2, r4, #31
    698e:	4317      	orrs	r7, r2
    6990:	0864      	lsrs	r4, r4, #1
    6992:	e78f      	b.n	68b4 <__aeabi_dsub+0x10c>
    6994:	0008      	movs	r0, r1
    6996:	4310      	orrs	r0, r2
    6998:	d000      	beq.n	699c <__aeabi_dsub+0x1f4>
    699a:	e724      	b.n	67e6 <__aeabi_dsub+0x3e>
    699c:	e721      	b.n	67e2 <__aeabi_dsub+0x3a>
    699e:	0023      	movs	r3, r4
    69a0:	433b      	orrs	r3, r7
    69a2:	d100      	bne.n	69a6 <__aeabi_dsub+0x1fe>
    69a4:	e1b9      	b.n	6d1a <__aeabi_dsub+0x572>
    69a6:	2280      	movs	r2, #128	; 0x80
    69a8:	0312      	lsls	r2, r2, #12
    69aa:	4314      	orrs	r4, r2
    69ac:	0324      	lsls	r4, r4, #12
    69ae:	0b24      	lsrs	r4, r4, #12
    69b0:	e79f      	b.n	68f2 <__aeabi_dsub+0x14a>
    69b2:	002e      	movs	r6, r5
    69b4:	e77e      	b.n	68b4 <__aeabi_dsub+0x10c>
    69b6:	0008      	movs	r0, r1
    69b8:	4310      	orrs	r0, r2
    69ba:	d100      	bne.n	69be <__aeabi_dsub+0x216>
    69bc:	e0ca      	b.n	6b54 <__aeabi_dsub+0x3ac>
    69be:	1e58      	subs	r0, r3, #1
    69c0:	4684      	mov	ip, r0
    69c2:	2800      	cmp	r0, #0
    69c4:	d000      	beq.n	69c8 <__aeabi_dsub+0x220>
    69c6:	e0e7      	b.n	6b98 <__aeabi_dsub+0x3f0>
    69c8:	4452      	add	r2, sl
    69ca:	4552      	cmp	r2, sl
    69cc:	4180      	sbcs	r0, r0
    69ce:	1864      	adds	r4, r4, r1
    69d0:	4240      	negs	r0, r0
    69d2:	1824      	adds	r4, r4, r0
    69d4:	0017      	movs	r7, r2
    69d6:	2601      	movs	r6, #1
    69d8:	0223      	lsls	r3, r4, #8
    69da:	d507      	bpl.n	69ec <__aeabi_dsub+0x244>
    69dc:	2602      	movs	r6, #2
    69de:	e7cf      	b.n	6980 <__aeabi_dsub+0x1d8>
    69e0:	4664      	mov	r4, ip
    69e2:	432c      	orrs	r4, r5
    69e4:	d100      	bne.n	69e8 <__aeabi_dsub+0x240>
    69e6:	e1b3      	b.n	6d50 <__aeabi_dsub+0x5a8>
    69e8:	002c      	movs	r4, r5
    69ea:	4667      	mov	r7, ip
    69ec:	077b      	lsls	r3, r7, #29
    69ee:	d000      	beq.n	69f2 <__aeabi_dsub+0x24a>
    69f0:	e762      	b.n	68b8 <__aeabi_dsub+0x110>
    69f2:	0763      	lsls	r3, r4, #29
    69f4:	08ff      	lsrs	r7, r7, #3
    69f6:	431f      	orrs	r7, r3
    69f8:	2501      	movs	r5, #1
    69fa:	4643      	mov	r3, r8
    69fc:	08e4      	lsrs	r4, r4, #3
    69fe:	401d      	ands	r5, r3
    6a00:	e793      	b.n	692a <__aeabi_dsub+0x182>
    6a02:	2d00      	cmp	r5, #0
    6a04:	d178      	bne.n	6af8 <__aeabi_dsub+0x350>
    6a06:	1c75      	adds	r5, r6, #1
    6a08:	056d      	lsls	r5, r5, #21
    6a0a:	0d6d      	lsrs	r5, r5, #21
    6a0c:	2d01      	cmp	r5, #1
    6a0e:	dc00      	bgt.n	6a12 <__aeabi_dsub+0x26a>
    6a10:	e0f2      	b.n	6bf8 <__aeabi_dsub+0x450>
    6a12:	4650      	mov	r0, sl
    6a14:	1a80      	subs	r0, r0, r2
    6a16:	4582      	cmp	sl, r0
    6a18:	41bf      	sbcs	r7, r7
    6a1a:	1a65      	subs	r5, r4, r1
    6a1c:	427f      	negs	r7, r7
    6a1e:	1bed      	subs	r5, r5, r7
    6a20:	4684      	mov	ip, r0
    6a22:	0228      	lsls	r0, r5, #8
    6a24:	d400      	bmi.n	6a28 <__aeabi_dsub+0x280>
    6a26:	e08c      	b.n	6b42 <__aeabi_dsub+0x39a>
    6a28:	4650      	mov	r0, sl
    6a2a:	1a17      	subs	r7, r2, r0
    6a2c:	42ba      	cmp	r2, r7
    6a2e:	4192      	sbcs	r2, r2
    6a30:	1b0c      	subs	r4, r1, r4
    6a32:	4255      	negs	r5, r2
    6a34:	1b65      	subs	r5, r4, r5
    6a36:	4698      	mov	r8, r3
    6a38:	e714      	b.n	6864 <__aeabi_dsub+0xbc>
    6a3a:	2501      	movs	r5, #1
    6a3c:	4643      	mov	r3, r8
    6a3e:	2400      	movs	r4, #0
    6a40:	401d      	ands	r5, r3
    6a42:	2700      	movs	r7, #0
    6a44:	e755      	b.n	68f2 <__aeabi_dsub+0x14a>
    6a46:	4c2a      	ldr	r4, [pc, #168]	; (6af0 <__aeabi_dsub+0x348>)
    6a48:	1af6      	subs	r6, r6, r3
    6a4a:	402c      	ands	r4, r5
    6a4c:	e732      	b.n	68b4 <__aeabi_dsub+0x10c>
    6a4e:	003d      	movs	r5, r7
    6a50:	3828      	subs	r0, #40	; 0x28
    6a52:	4085      	lsls	r5, r0
    6a54:	2700      	movs	r7, #0
    6a56:	e717      	b.n	6888 <__aeabi_dsub+0xe0>
    6a58:	0038      	movs	r0, r7
    6a5a:	f000 faf3 	bl	7044 <__clzsi2>
    6a5e:	3020      	adds	r0, #32
    6a60:	e706      	b.n	6870 <__aeabi_dsub+0xc8>
    6a62:	430a      	orrs	r2, r1
    6a64:	0017      	movs	r7, r2
    6a66:	2100      	movs	r1, #0
    6a68:	1e7a      	subs	r2, r7, #1
    6a6a:	4197      	sbcs	r7, r2
    6a6c:	e6ee      	b.n	684c <__aeabi_dsub+0xa4>
    6a6e:	2b00      	cmp	r3, #0
    6a70:	d000      	beq.n	6a74 <__aeabi_dsub+0x2cc>
    6a72:	e0e5      	b.n	6c40 <__aeabi_dsub+0x498>
    6a74:	1c73      	adds	r3, r6, #1
    6a76:	469c      	mov	ip, r3
    6a78:	055b      	lsls	r3, r3, #21
    6a7a:	0d5b      	lsrs	r3, r3, #21
    6a7c:	2b01      	cmp	r3, #1
    6a7e:	dc00      	bgt.n	6a82 <__aeabi_dsub+0x2da>
    6a80:	e09f      	b.n	6bc2 <__aeabi_dsub+0x41a>
    6a82:	4b1a      	ldr	r3, [pc, #104]	; (6aec <__aeabi_dsub+0x344>)
    6a84:	459c      	cmp	ip, r3
    6a86:	d100      	bne.n	6a8a <__aeabi_dsub+0x2e2>
    6a88:	e0c5      	b.n	6c16 <__aeabi_dsub+0x46e>
    6a8a:	4452      	add	r2, sl
    6a8c:	4552      	cmp	r2, sl
    6a8e:	4180      	sbcs	r0, r0
    6a90:	1864      	adds	r4, r4, r1
    6a92:	4240      	negs	r0, r0
    6a94:	1824      	adds	r4, r4, r0
    6a96:	07e7      	lsls	r7, r4, #31
    6a98:	0852      	lsrs	r2, r2, #1
    6a9a:	4317      	orrs	r7, r2
    6a9c:	0864      	lsrs	r4, r4, #1
    6a9e:	4666      	mov	r6, ip
    6aa0:	e708      	b.n	68b4 <__aeabi_dsub+0x10c>
    6aa2:	4812      	ldr	r0, [pc, #72]	; (6aec <__aeabi_dsub+0x344>)
    6aa4:	4285      	cmp	r5, r0
    6aa6:	d100      	bne.n	6aaa <__aeabi_dsub+0x302>
    6aa8:	e085      	b.n	6bb6 <__aeabi_dsub+0x40e>
    6aaa:	001d      	movs	r5, r3
    6aac:	e6bc      	b.n	6828 <__aeabi_dsub+0x80>
    6aae:	0029      	movs	r1, r5
    6ab0:	3e1f      	subs	r6, #31
    6ab2:	40f1      	lsrs	r1, r6
    6ab4:	2b20      	cmp	r3, #32
    6ab6:	d100      	bne.n	6aba <__aeabi_dsub+0x312>
    6ab8:	e07f      	b.n	6bba <__aeabi_dsub+0x412>
    6aba:	2240      	movs	r2, #64	; 0x40
    6abc:	1ad3      	subs	r3, r2, r3
    6abe:	409d      	lsls	r5, r3
    6ac0:	432f      	orrs	r7, r5
    6ac2:	1e7d      	subs	r5, r7, #1
    6ac4:	41af      	sbcs	r7, r5
    6ac6:	2400      	movs	r4, #0
    6ac8:	430f      	orrs	r7, r1
    6aca:	2600      	movs	r6, #0
    6acc:	e78e      	b.n	69ec <__aeabi_dsub+0x244>
    6ace:	002b      	movs	r3, r5
    6ad0:	000f      	movs	r7, r1
    6ad2:	3b20      	subs	r3, #32
    6ad4:	40df      	lsrs	r7, r3
    6ad6:	2d20      	cmp	r5, #32
    6ad8:	d071      	beq.n	6bbe <__aeabi_dsub+0x416>
    6ada:	2340      	movs	r3, #64	; 0x40
    6adc:	1b5d      	subs	r5, r3, r5
    6ade:	40a9      	lsls	r1, r5
    6ae0:	430a      	orrs	r2, r1
    6ae2:	1e51      	subs	r1, r2, #1
    6ae4:	418a      	sbcs	r2, r1
    6ae6:	2100      	movs	r1, #0
    6ae8:	4317      	orrs	r7, r2
    6aea:	e6af      	b.n	684c <__aeabi_dsub+0xa4>
    6aec:	000007ff 	.word	0x000007ff
    6af0:	ff7fffff 	.word	0xff7fffff
    6af4:	800fffff 	.word	0x800fffff
    6af8:	2e00      	cmp	r6, #0
    6afa:	d03e      	beq.n	6b7a <__aeabi_dsub+0x3d2>
    6afc:	4eb3      	ldr	r6, [pc, #716]	; (6dcc <__aeabi_dsub+0x624>)
    6afe:	45b4      	cmp	ip, r6
    6b00:	d045      	beq.n	6b8e <__aeabi_dsub+0x3e6>
    6b02:	2680      	movs	r6, #128	; 0x80
    6b04:	0436      	lsls	r6, r6, #16
    6b06:	426d      	negs	r5, r5
    6b08:	4334      	orrs	r4, r6
    6b0a:	2d38      	cmp	r5, #56	; 0x38
    6b0c:	dd00      	ble.n	6b10 <__aeabi_dsub+0x368>
    6b0e:	e0a8      	b.n	6c62 <__aeabi_dsub+0x4ba>
    6b10:	2d1f      	cmp	r5, #31
    6b12:	dd00      	ble.n	6b16 <__aeabi_dsub+0x36e>
    6b14:	e11f      	b.n	6d56 <__aeabi_dsub+0x5ae>
    6b16:	2620      	movs	r6, #32
    6b18:	0027      	movs	r7, r4
    6b1a:	4650      	mov	r0, sl
    6b1c:	1b76      	subs	r6, r6, r5
    6b1e:	40b7      	lsls	r7, r6
    6b20:	40e8      	lsrs	r0, r5
    6b22:	4307      	orrs	r7, r0
    6b24:	4650      	mov	r0, sl
    6b26:	40b0      	lsls	r0, r6
    6b28:	1e46      	subs	r6, r0, #1
    6b2a:	41b0      	sbcs	r0, r6
    6b2c:	40ec      	lsrs	r4, r5
    6b2e:	4338      	orrs	r0, r7
    6b30:	1a17      	subs	r7, r2, r0
    6b32:	42ba      	cmp	r2, r7
    6b34:	4192      	sbcs	r2, r2
    6b36:	1b0c      	subs	r4, r1, r4
    6b38:	4252      	negs	r2, r2
    6b3a:	1aa4      	subs	r4, r4, r2
    6b3c:	4666      	mov	r6, ip
    6b3e:	4698      	mov	r8, r3
    6b40:	e68b      	b.n	685a <__aeabi_dsub+0xb2>
    6b42:	4664      	mov	r4, ip
    6b44:	4667      	mov	r7, ip
    6b46:	432c      	orrs	r4, r5
    6b48:	d000      	beq.n	6b4c <__aeabi_dsub+0x3a4>
    6b4a:	e68b      	b.n	6864 <__aeabi_dsub+0xbc>
    6b4c:	2500      	movs	r5, #0
    6b4e:	2600      	movs	r6, #0
    6b50:	2700      	movs	r7, #0
    6b52:	e6ea      	b.n	692a <__aeabi_dsub+0x182>
    6b54:	001e      	movs	r6, r3
    6b56:	e6ad      	b.n	68b4 <__aeabi_dsub+0x10c>
    6b58:	2b1f      	cmp	r3, #31
    6b5a:	dc60      	bgt.n	6c1e <__aeabi_dsub+0x476>
    6b5c:	2720      	movs	r7, #32
    6b5e:	1af8      	subs	r0, r7, r3
    6b60:	000f      	movs	r7, r1
    6b62:	4684      	mov	ip, r0
    6b64:	4087      	lsls	r7, r0
    6b66:	0010      	movs	r0, r2
    6b68:	40d8      	lsrs	r0, r3
    6b6a:	4307      	orrs	r7, r0
    6b6c:	4660      	mov	r0, ip
    6b6e:	4082      	lsls	r2, r0
    6b70:	1e50      	subs	r0, r2, #1
    6b72:	4182      	sbcs	r2, r0
    6b74:	40d9      	lsrs	r1, r3
    6b76:	4317      	orrs	r7, r2
    6b78:	e6f5      	b.n	6966 <__aeabi_dsub+0x1be>
    6b7a:	0026      	movs	r6, r4
    6b7c:	4650      	mov	r0, sl
    6b7e:	4306      	orrs	r6, r0
    6b80:	d005      	beq.n	6b8e <__aeabi_dsub+0x3e6>
    6b82:	43ed      	mvns	r5, r5
    6b84:	2d00      	cmp	r5, #0
    6b86:	d0d3      	beq.n	6b30 <__aeabi_dsub+0x388>
    6b88:	4e90      	ldr	r6, [pc, #576]	; (6dcc <__aeabi_dsub+0x624>)
    6b8a:	45b4      	cmp	ip, r6
    6b8c:	d1bd      	bne.n	6b0a <__aeabi_dsub+0x362>
    6b8e:	000c      	movs	r4, r1
    6b90:	0017      	movs	r7, r2
    6b92:	4666      	mov	r6, ip
    6b94:	4698      	mov	r8, r3
    6b96:	e68d      	b.n	68b4 <__aeabi_dsub+0x10c>
    6b98:	488c      	ldr	r0, [pc, #560]	; (6dcc <__aeabi_dsub+0x624>)
    6b9a:	4283      	cmp	r3, r0
    6b9c:	d00b      	beq.n	6bb6 <__aeabi_dsub+0x40e>
    6b9e:	4663      	mov	r3, ip
    6ba0:	e6d9      	b.n	6956 <__aeabi_dsub+0x1ae>
    6ba2:	2d00      	cmp	r5, #0
    6ba4:	d000      	beq.n	6ba8 <__aeabi_dsub+0x400>
    6ba6:	e096      	b.n	6cd6 <__aeabi_dsub+0x52e>
    6ba8:	0008      	movs	r0, r1
    6baa:	4310      	orrs	r0, r2
    6bac:	d100      	bne.n	6bb0 <__aeabi_dsub+0x408>
    6bae:	e0e2      	b.n	6d76 <__aeabi_dsub+0x5ce>
    6bb0:	000c      	movs	r4, r1
    6bb2:	0017      	movs	r7, r2
    6bb4:	4698      	mov	r8, r3
    6bb6:	4e85      	ldr	r6, [pc, #532]	; (6dcc <__aeabi_dsub+0x624>)
    6bb8:	e67c      	b.n	68b4 <__aeabi_dsub+0x10c>
    6bba:	2500      	movs	r5, #0
    6bbc:	e780      	b.n	6ac0 <__aeabi_dsub+0x318>
    6bbe:	2100      	movs	r1, #0
    6bc0:	e78e      	b.n	6ae0 <__aeabi_dsub+0x338>
    6bc2:	0023      	movs	r3, r4
    6bc4:	4650      	mov	r0, sl
    6bc6:	4303      	orrs	r3, r0
    6bc8:	2e00      	cmp	r6, #0
    6bca:	d000      	beq.n	6bce <__aeabi_dsub+0x426>
    6bcc:	e0a8      	b.n	6d20 <__aeabi_dsub+0x578>
    6bce:	2b00      	cmp	r3, #0
    6bd0:	d100      	bne.n	6bd4 <__aeabi_dsub+0x42c>
    6bd2:	e0de      	b.n	6d92 <__aeabi_dsub+0x5ea>
    6bd4:	000b      	movs	r3, r1
    6bd6:	4313      	orrs	r3, r2
    6bd8:	d100      	bne.n	6bdc <__aeabi_dsub+0x434>
    6bda:	e66b      	b.n	68b4 <__aeabi_dsub+0x10c>
    6bdc:	4452      	add	r2, sl
    6bde:	4552      	cmp	r2, sl
    6be0:	4180      	sbcs	r0, r0
    6be2:	1864      	adds	r4, r4, r1
    6be4:	4240      	negs	r0, r0
    6be6:	1824      	adds	r4, r4, r0
    6be8:	0017      	movs	r7, r2
    6bea:	0223      	lsls	r3, r4, #8
    6bec:	d400      	bmi.n	6bf0 <__aeabi_dsub+0x448>
    6bee:	e6fd      	b.n	69ec <__aeabi_dsub+0x244>
    6bf0:	4b77      	ldr	r3, [pc, #476]	; (6dd0 <__aeabi_dsub+0x628>)
    6bf2:	4666      	mov	r6, ip
    6bf4:	401c      	ands	r4, r3
    6bf6:	e65d      	b.n	68b4 <__aeabi_dsub+0x10c>
    6bf8:	0025      	movs	r5, r4
    6bfa:	4650      	mov	r0, sl
    6bfc:	4305      	orrs	r5, r0
    6bfe:	2e00      	cmp	r6, #0
    6c00:	d1cf      	bne.n	6ba2 <__aeabi_dsub+0x3fa>
    6c02:	2d00      	cmp	r5, #0
    6c04:	d14f      	bne.n	6ca6 <__aeabi_dsub+0x4fe>
    6c06:	000c      	movs	r4, r1
    6c08:	4314      	orrs	r4, r2
    6c0a:	d100      	bne.n	6c0e <__aeabi_dsub+0x466>
    6c0c:	e0a0      	b.n	6d50 <__aeabi_dsub+0x5a8>
    6c0e:	000c      	movs	r4, r1
    6c10:	0017      	movs	r7, r2
    6c12:	4698      	mov	r8, r3
    6c14:	e64e      	b.n	68b4 <__aeabi_dsub+0x10c>
    6c16:	4666      	mov	r6, ip
    6c18:	2400      	movs	r4, #0
    6c1a:	2700      	movs	r7, #0
    6c1c:	e685      	b.n	692a <__aeabi_dsub+0x182>
    6c1e:	001f      	movs	r7, r3
    6c20:	0008      	movs	r0, r1
    6c22:	3f20      	subs	r7, #32
    6c24:	40f8      	lsrs	r0, r7
    6c26:	0007      	movs	r7, r0
    6c28:	2b20      	cmp	r3, #32
    6c2a:	d100      	bne.n	6c2e <__aeabi_dsub+0x486>
    6c2c:	e08e      	b.n	6d4c <__aeabi_dsub+0x5a4>
    6c2e:	2040      	movs	r0, #64	; 0x40
    6c30:	1ac3      	subs	r3, r0, r3
    6c32:	4099      	lsls	r1, r3
    6c34:	430a      	orrs	r2, r1
    6c36:	1e51      	subs	r1, r2, #1
    6c38:	418a      	sbcs	r2, r1
    6c3a:	2100      	movs	r1, #0
    6c3c:	4317      	orrs	r7, r2
    6c3e:	e692      	b.n	6966 <__aeabi_dsub+0x1be>
    6c40:	2e00      	cmp	r6, #0
    6c42:	d114      	bne.n	6c6e <__aeabi_dsub+0x4c6>
    6c44:	0026      	movs	r6, r4
    6c46:	4650      	mov	r0, sl
    6c48:	4306      	orrs	r6, r0
    6c4a:	d062      	beq.n	6d12 <__aeabi_dsub+0x56a>
    6c4c:	43db      	mvns	r3, r3
    6c4e:	2b00      	cmp	r3, #0
    6c50:	d15c      	bne.n	6d0c <__aeabi_dsub+0x564>
    6c52:	1887      	adds	r7, r0, r2
    6c54:	4297      	cmp	r7, r2
    6c56:	4192      	sbcs	r2, r2
    6c58:	1864      	adds	r4, r4, r1
    6c5a:	4252      	negs	r2, r2
    6c5c:	18a4      	adds	r4, r4, r2
    6c5e:	4666      	mov	r6, ip
    6c60:	e687      	b.n	6972 <__aeabi_dsub+0x1ca>
    6c62:	4650      	mov	r0, sl
    6c64:	4320      	orrs	r0, r4
    6c66:	1e44      	subs	r4, r0, #1
    6c68:	41a0      	sbcs	r0, r4
    6c6a:	2400      	movs	r4, #0
    6c6c:	e760      	b.n	6b30 <__aeabi_dsub+0x388>
    6c6e:	4e57      	ldr	r6, [pc, #348]	; (6dcc <__aeabi_dsub+0x624>)
    6c70:	45b4      	cmp	ip, r6
    6c72:	d04e      	beq.n	6d12 <__aeabi_dsub+0x56a>
    6c74:	2680      	movs	r6, #128	; 0x80
    6c76:	0436      	lsls	r6, r6, #16
    6c78:	425b      	negs	r3, r3
    6c7a:	4334      	orrs	r4, r6
    6c7c:	2b38      	cmp	r3, #56	; 0x38
    6c7e:	dd00      	ble.n	6c82 <__aeabi_dsub+0x4da>
    6c80:	e07f      	b.n	6d82 <__aeabi_dsub+0x5da>
    6c82:	2b1f      	cmp	r3, #31
    6c84:	dd00      	ble.n	6c88 <__aeabi_dsub+0x4e0>
    6c86:	e08b      	b.n	6da0 <__aeabi_dsub+0x5f8>
    6c88:	2620      	movs	r6, #32
    6c8a:	0027      	movs	r7, r4
    6c8c:	4650      	mov	r0, sl
    6c8e:	1af6      	subs	r6, r6, r3
    6c90:	40b7      	lsls	r7, r6
    6c92:	40d8      	lsrs	r0, r3
    6c94:	4307      	orrs	r7, r0
    6c96:	4650      	mov	r0, sl
    6c98:	40b0      	lsls	r0, r6
    6c9a:	1e46      	subs	r6, r0, #1
    6c9c:	41b0      	sbcs	r0, r6
    6c9e:	4307      	orrs	r7, r0
    6ca0:	40dc      	lsrs	r4, r3
    6ca2:	18bf      	adds	r7, r7, r2
    6ca4:	e7d6      	b.n	6c54 <__aeabi_dsub+0x4ac>
    6ca6:	000d      	movs	r5, r1
    6ca8:	4315      	orrs	r5, r2
    6caa:	d100      	bne.n	6cae <__aeabi_dsub+0x506>
    6cac:	e602      	b.n	68b4 <__aeabi_dsub+0x10c>
    6cae:	4650      	mov	r0, sl
    6cb0:	1a80      	subs	r0, r0, r2
    6cb2:	4582      	cmp	sl, r0
    6cb4:	41bf      	sbcs	r7, r7
    6cb6:	1a65      	subs	r5, r4, r1
    6cb8:	427f      	negs	r7, r7
    6cba:	1bed      	subs	r5, r5, r7
    6cbc:	4684      	mov	ip, r0
    6cbe:	0228      	lsls	r0, r5, #8
    6cc0:	d400      	bmi.n	6cc4 <__aeabi_dsub+0x51c>
    6cc2:	e68d      	b.n	69e0 <__aeabi_dsub+0x238>
    6cc4:	4650      	mov	r0, sl
    6cc6:	1a17      	subs	r7, r2, r0
    6cc8:	42ba      	cmp	r2, r7
    6cca:	4192      	sbcs	r2, r2
    6ccc:	1b0c      	subs	r4, r1, r4
    6cce:	4252      	negs	r2, r2
    6cd0:	1aa4      	subs	r4, r4, r2
    6cd2:	4698      	mov	r8, r3
    6cd4:	e5ee      	b.n	68b4 <__aeabi_dsub+0x10c>
    6cd6:	000d      	movs	r5, r1
    6cd8:	4315      	orrs	r5, r2
    6cda:	d100      	bne.n	6cde <__aeabi_dsub+0x536>
    6cdc:	e76b      	b.n	6bb6 <__aeabi_dsub+0x40e>
    6cde:	4650      	mov	r0, sl
    6ce0:	0767      	lsls	r7, r4, #29
    6ce2:	08c0      	lsrs	r0, r0, #3
    6ce4:	4307      	orrs	r7, r0
    6ce6:	2080      	movs	r0, #128	; 0x80
    6ce8:	08e4      	lsrs	r4, r4, #3
    6cea:	0300      	lsls	r0, r0, #12
    6cec:	4204      	tst	r4, r0
    6cee:	d007      	beq.n	6d00 <__aeabi_dsub+0x558>
    6cf0:	08cd      	lsrs	r5, r1, #3
    6cf2:	4205      	tst	r5, r0
    6cf4:	d104      	bne.n	6d00 <__aeabi_dsub+0x558>
    6cf6:	002c      	movs	r4, r5
    6cf8:	4698      	mov	r8, r3
    6cfa:	08d7      	lsrs	r7, r2, #3
    6cfc:	0749      	lsls	r1, r1, #29
    6cfe:	430f      	orrs	r7, r1
    6d00:	0f7b      	lsrs	r3, r7, #29
    6d02:	00e4      	lsls	r4, r4, #3
    6d04:	431c      	orrs	r4, r3
    6d06:	00ff      	lsls	r7, r7, #3
    6d08:	4e30      	ldr	r6, [pc, #192]	; (6dcc <__aeabi_dsub+0x624>)
    6d0a:	e5d3      	b.n	68b4 <__aeabi_dsub+0x10c>
    6d0c:	4e2f      	ldr	r6, [pc, #188]	; (6dcc <__aeabi_dsub+0x624>)
    6d0e:	45b4      	cmp	ip, r6
    6d10:	d1b4      	bne.n	6c7c <__aeabi_dsub+0x4d4>
    6d12:	000c      	movs	r4, r1
    6d14:	0017      	movs	r7, r2
    6d16:	4666      	mov	r6, ip
    6d18:	e5cc      	b.n	68b4 <__aeabi_dsub+0x10c>
    6d1a:	2700      	movs	r7, #0
    6d1c:	2400      	movs	r4, #0
    6d1e:	e5e8      	b.n	68f2 <__aeabi_dsub+0x14a>
    6d20:	2b00      	cmp	r3, #0
    6d22:	d039      	beq.n	6d98 <__aeabi_dsub+0x5f0>
    6d24:	000b      	movs	r3, r1
    6d26:	4313      	orrs	r3, r2
    6d28:	d100      	bne.n	6d2c <__aeabi_dsub+0x584>
    6d2a:	e744      	b.n	6bb6 <__aeabi_dsub+0x40e>
    6d2c:	08c0      	lsrs	r0, r0, #3
    6d2e:	0767      	lsls	r7, r4, #29
    6d30:	4307      	orrs	r7, r0
    6d32:	2080      	movs	r0, #128	; 0x80
    6d34:	08e4      	lsrs	r4, r4, #3
    6d36:	0300      	lsls	r0, r0, #12
    6d38:	4204      	tst	r4, r0
    6d3a:	d0e1      	beq.n	6d00 <__aeabi_dsub+0x558>
    6d3c:	08cb      	lsrs	r3, r1, #3
    6d3e:	4203      	tst	r3, r0
    6d40:	d1de      	bne.n	6d00 <__aeabi_dsub+0x558>
    6d42:	08d7      	lsrs	r7, r2, #3
    6d44:	0749      	lsls	r1, r1, #29
    6d46:	430f      	orrs	r7, r1
    6d48:	001c      	movs	r4, r3
    6d4a:	e7d9      	b.n	6d00 <__aeabi_dsub+0x558>
    6d4c:	2100      	movs	r1, #0
    6d4e:	e771      	b.n	6c34 <__aeabi_dsub+0x48c>
    6d50:	2500      	movs	r5, #0
    6d52:	2700      	movs	r7, #0
    6d54:	e5e9      	b.n	692a <__aeabi_dsub+0x182>
    6d56:	002e      	movs	r6, r5
    6d58:	0027      	movs	r7, r4
    6d5a:	3e20      	subs	r6, #32
    6d5c:	40f7      	lsrs	r7, r6
    6d5e:	2d20      	cmp	r5, #32
    6d60:	d02f      	beq.n	6dc2 <__aeabi_dsub+0x61a>
    6d62:	2640      	movs	r6, #64	; 0x40
    6d64:	1b75      	subs	r5, r6, r5
    6d66:	40ac      	lsls	r4, r5
    6d68:	4650      	mov	r0, sl
    6d6a:	4320      	orrs	r0, r4
    6d6c:	1e44      	subs	r4, r0, #1
    6d6e:	41a0      	sbcs	r0, r4
    6d70:	2400      	movs	r4, #0
    6d72:	4338      	orrs	r0, r7
    6d74:	e6dc      	b.n	6b30 <__aeabi_dsub+0x388>
    6d76:	2480      	movs	r4, #128	; 0x80
    6d78:	2500      	movs	r5, #0
    6d7a:	0324      	lsls	r4, r4, #12
    6d7c:	4e13      	ldr	r6, [pc, #76]	; (6dcc <__aeabi_dsub+0x624>)
    6d7e:	2700      	movs	r7, #0
    6d80:	e5d3      	b.n	692a <__aeabi_dsub+0x182>
    6d82:	4650      	mov	r0, sl
    6d84:	4320      	orrs	r0, r4
    6d86:	0007      	movs	r7, r0
    6d88:	1e78      	subs	r0, r7, #1
    6d8a:	4187      	sbcs	r7, r0
    6d8c:	2400      	movs	r4, #0
    6d8e:	18bf      	adds	r7, r7, r2
    6d90:	e760      	b.n	6c54 <__aeabi_dsub+0x4ac>
    6d92:	000c      	movs	r4, r1
    6d94:	0017      	movs	r7, r2
    6d96:	e58d      	b.n	68b4 <__aeabi_dsub+0x10c>
    6d98:	000c      	movs	r4, r1
    6d9a:	0017      	movs	r7, r2
    6d9c:	4e0b      	ldr	r6, [pc, #44]	; (6dcc <__aeabi_dsub+0x624>)
    6d9e:	e589      	b.n	68b4 <__aeabi_dsub+0x10c>
    6da0:	001e      	movs	r6, r3
    6da2:	0027      	movs	r7, r4
    6da4:	3e20      	subs	r6, #32
    6da6:	40f7      	lsrs	r7, r6
    6da8:	2b20      	cmp	r3, #32
    6daa:	d00c      	beq.n	6dc6 <__aeabi_dsub+0x61e>
    6dac:	2640      	movs	r6, #64	; 0x40
    6dae:	1af3      	subs	r3, r6, r3
    6db0:	409c      	lsls	r4, r3
    6db2:	4650      	mov	r0, sl
    6db4:	4320      	orrs	r0, r4
    6db6:	1e44      	subs	r4, r0, #1
    6db8:	41a0      	sbcs	r0, r4
    6dba:	4307      	orrs	r7, r0
    6dbc:	2400      	movs	r4, #0
    6dbe:	18bf      	adds	r7, r7, r2
    6dc0:	e748      	b.n	6c54 <__aeabi_dsub+0x4ac>
    6dc2:	2400      	movs	r4, #0
    6dc4:	e7d0      	b.n	6d68 <__aeabi_dsub+0x5c0>
    6dc6:	2400      	movs	r4, #0
    6dc8:	e7f3      	b.n	6db2 <__aeabi_dsub+0x60a>
    6dca:	46c0      	nop			; (mov r8, r8)
    6dcc:	000007ff 	.word	0x000007ff
    6dd0:	ff7fffff 	.word	0xff7fffff

00006dd4 <__aeabi_d2iz>:
    6dd4:	b530      	push	{r4, r5, lr}
    6dd6:	4d13      	ldr	r5, [pc, #76]	; (6e24 <__aeabi_d2iz+0x50>)
    6dd8:	030a      	lsls	r2, r1, #12
    6dda:	004b      	lsls	r3, r1, #1
    6ddc:	0b12      	lsrs	r2, r2, #12
    6dde:	0d5b      	lsrs	r3, r3, #21
    6de0:	0fc9      	lsrs	r1, r1, #31
    6de2:	2400      	movs	r4, #0
    6de4:	42ab      	cmp	r3, r5
    6de6:	dd10      	ble.n	6e0a <__aeabi_d2iz+0x36>
    6de8:	4c0f      	ldr	r4, [pc, #60]	; (6e28 <__aeabi_d2iz+0x54>)
    6dea:	42a3      	cmp	r3, r4
    6dec:	dc0f      	bgt.n	6e0e <__aeabi_d2iz+0x3a>
    6dee:	2480      	movs	r4, #128	; 0x80
    6df0:	4d0e      	ldr	r5, [pc, #56]	; (6e2c <__aeabi_d2iz+0x58>)
    6df2:	0364      	lsls	r4, r4, #13
    6df4:	4322      	orrs	r2, r4
    6df6:	1aed      	subs	r5, r5, r3
    6df8:	2d1f      	cmp	r5, #31
    6dfa:	dd0b      	ble.n	6e14 <__aeabi_d2iz+0x40>
    6dfc:	480c      	ldr	r0, [pc, #48]	; (6e30 <__aeabi_d2iz+0x5c>)
    6dfe:	1ac3      	subs	r3, r0, r3
    6e00:	40da      	lsrs	r2, r3
    6e02:	4254      	negs	r4, r2
    6e04:	2900      	cmp	r1, #0
    6e06:	d100      	bne.n	6e0a <__aeabi_d2iz+0x36>
    6e08:	0014      	movs	r4, r2
    6e0a:	0020      	movs	r0, r4
    6e0c:	bd30      	pop	{r4, r5, pc}
    6e0e:	4b09      	ldr	r3, [pc, #36]	; (6e34 <__aeabi_d2iz+0x60>)
    6e10:	18cc      	adds	r4, r1, r3
    6e12:	e7fa      	b.n	6e0a <__aeabi_d2iz+0x36>
    6e14:	4c08      	ldr	r4, [pc, #32]	; (6e38 <__aeabi_d2iz+0x64>)
    6e16:	40e8      	lsrs	r0, r5
    6e18:	46a4      	mov	ip, r4
    6e1a:	4463      	add	r3, ip
    6e1c:	409a      	lsls	r2, r3
    6e1e:	4302      	orrs	r2, r0
    6e20:	e7ef      	b.n	6e02 <__aeabi_d2iz+0x2e>
    6e22:	46c0      	nop			; (mov r8, r8)
    6e24:	000003fe 	.word	0x000003fe
    6e28:	0000041d 	.word	0x0000041d
    6e2c:	00000433 	.word	0x00000433
    6e30:	00000413 	.word	0x00000413
    6e34:	7fffffff 	.word	0x7fffffff
    6e38:	fffffbed 	.word	0xfffffbed

00006e3c <__aeabi_i2d>:
    6e3c:	b570      	push	{r4, r5, r6, lr}
    6e3e:	2800      	cmp	r0, #0
    6e40:	d030      	beq.n	6ea4 <__aeabi_i2d+0x68>
    6e42:	17c3      	asrs	r3, r0, #31
    6e44:	18c4      	adds	r4, r0, r3
    6e46:	405c      	eors	r4, r3
    6e48:	0fc5      	lsrs	r5, r0, #31
    6e4a:	0020      	movs	r0, r4
    6e4c:	f000 f8fa 	bl	7044 <__clzsi2>
    6e50:	4b17      	ldr	r3, [pc, #92]	; (6eb0 <__aeabi_i2d+0x74>)
    6e52:	4a18      	ldr	r2, [pc, #96]	; (6eb4 <__aeabi_i2d+0x78>)
    6e54:	1a1b      	subs	r3, r3, r0
    6e56:	1ad2      	subs	r2, r2, r3
    6e58:	2a1f      	cmp	r2, #31
    6e5a:	dd18      	ble.n	6e8e <__aeabi_i2d+0x52>
    6e5c:	4a16      	ldr	r2, [pc, #88]	; (6eb8 <__aeabi_i2d+0x7c>)
    6e5e:	1ad2      	subs	r2, r2, r3
    6e60:	4094      	lsls	r4, r2
    6e62:	2200      	movs	r2, #0
    6e64:	0324      	lsls	r4, r4, #12
    6e66:	055b      	lsls	r3, r3, #21
    6e68:	0b24      	lsrs	r4, r4, #12
    6e6a:	0d5b      	lsrs	r3, r3, #21
    6e6c:	2100      	movs	r1, #0
    6e6e:	0010      	movs	r0, r2
    6e70:	0324      	lsls	r4, r4, #12
    6e72:	0d0a      	lsrs	r2, r1, #20
    6e74:	0b24      	lsrs	r4, r4, #12
    6e76:	0512      	lsls	r2, r2, #20
    6e78:	4322      	orrs	r2, r4
    6e7a:	4c10      	ldr	r4, [pc, #64]	; (6ebc <__aeabi_i2d+0x80>)
    6e7c:	051b      	lsls	r3, r3, #20
    6e7e:	4022      	ands	r2, r4
    6e80:	4313      	orrs	r3, r2
    6e82:	005b      	lsls	r3, r3, #1
    6e84:	07ed      	lsls	r5, r5, #31
    6e86:	085b      	lsrs	r3, r3, #1
    6e88:	432b      	orrs	r3, r5
    6e8a:	0019      	movs	r1, r3
    6e8c:	bd70      	pop	{r4, r5, r6, pc}
    6e8e:	0021      	movs	r1, r4
    6e90:	4091      	lsls	r1, r2
    6e92:	000a      	movs	r2, r1
    6e94:	210b      	movs	r1, #11
    6e96:	1a08      	subs	r0, r1, r0
    6e98:	40c4      	lsrs	r4, r0
    6e9a:	055b      	lsls	r3, r3, #21
    6e9c:	0324      	lsls	r4, r4, #12
    6e9e:	0b24      	lsrs	r4, r4, #12
    6ea0:	0d5b      	lsrs	r3, r3, #21
    6ea2:	e7e3      	b.n	6e6c <__aeabi_i2d+0x30>
    6ea4:	2500      	movs	r5, #0
    6ea6:	2300      	movs	r3, #0
    6ea8:	2400      	movs	r4, #0
    6eaa:	2200      	movs	r2, #0
    6eac:	e7de      	b.n	6e6c <__aeabi_i2d+0x30>
    6eae:	46c0      	nop			; (mov r8, r8)
    6eb0:	0000041e 	.word	0x0000041e
    6eb4:	00000433 	.word	0x00000433
    6eb8:	00000413 	.word	0x00000413
    6ebc:	800fffff 	.word	0x800fffff

00006ec0 <__aeabi_ui2d>:
    6ec0:	b510      	push	{r4, lr}
    6ec2:	1e04      	subs	r4, r0, #0
    6ec4:	d028      	beq.n	6f18 <__aeabi_ui2d+0x58>
    6ec6:	f000 f8bd 	bl	7044 <__clzsi2>
    6eca:	4b15      	ldr	r3, [pc, #84]	; (6f20 <__aeabi_ui2d+0x60>)
    6ecc:	4a15      	ldr	r2, [pc, #84]	; (6f24 <__aeabi_ui2d+0x64>)
    6ece:	1a1b      	subs	r3, r3, r0
    6ed0:	1ad2      	subs	r2, r2, r3
    6ed2:	2a1f      	cmp	r2, #31
    6ed4:	dd15      	ble.n	6f02 <__aeabi_ui2d+0x42>
    6ed6:	4a14      	ldr	r2, [pc, #80]	; (6f28 <__aeabi_ui2d+0x68>)
    6ed8:	1ad2      	subs	r2, r2, r3
    6eda:	4094      	lsls	r4, r2
    6edc:	2200      	movs	r2, #0
    6ede:	0324      	lsls	r4, r4, #12
    6ee0:	055b      	lsls	r3, r3, #21
    6ee2:	0b24      	lsrs	r4, r4, #12
    6ee4:	0d5b      	lsrs	r3, r3, #21
    6ee6:	2100      	movs	r1, #0
    6ee8:	0010      	movs	r0, r2
    6eea:	0324      	lsls	r4, r4, #12
    6eec:	0d0a      	lsrs	r2, r1, #20
    6eee:	0b24      	lsrs	r4, r4, #12
    6ef0:	0512      	lsls	r2, r2, #20
    6ef2:	4322      	orrs	r2, r4
    6ef4:	4c0d      	ldr	r4, [pc, #52]	; (6f2c <__aeabi_ui2d+0x6c>)
    6ef6:	051b      	lsls	r3, r3, #20
    6ef8:	4022      	ands	r2, r4
    6efa:	4313      	orrs	r3, r2
    6efc:	005b      	lsls	r3, r3, #1
    6efe:	0859      	lsrs	r1, r3, #1
    6f00:	bd10      	pop	{r4, pc}
    6f02:	0021      	movs	r1, r4
    6f04:	4091      	lsls	r1, r2
    6f06:	000a      	movs	r2, r1
    6f08:	210b      	movs	r1, #11
    6f0a:	1a08      	subs	r0, r1, r0
    6f0c:	40c4      	lsrs	r4, r0
    6f0e:	055b      	lsls	r3, r3, #21
    6f10:	0324      	lsls	r4, r4, #12
    6f12:	0b24      	lsrs	r4, r4, #12
    6f14:	0d5b      	lsrs	r3, r3, #21
    6f16:	e7e6      	b.n	6ee6 <__aeabi_ui2d+0x26>
    6f18:	2300      	movs	r3, #0
    6f1a:	2400      	movs	r4, #0
    6f1c:	2200      	movs	r2, #0
    6f1e:	e7e2      	b.n	6ee6 <__aeabi_ui2d+0x26>
    6f20:	0000041e 	.word	0x0000041e
    6f24:	00000433 	.word	0x00000433
    6f28:	00000413 	.word	0x00000413
    6f2c:	800fffff 	.word	0x800fffff

00006f30 <__aeabi_d2f>:
    6f30:	b5f0      	push	{r4, r5, r6, r7, lr}
    6f32:	004c      	lsls	r4, r1, #1
    6f34:	0d64      	lsrs	r4, r4, #21
    6f36:	030b      	lsls	r3, r1, #12
    6f38:	1c62      	adds	r2, r4, #1
    6f3a:	0f45      	lsrs	r5, r0, #29
    6f3c:	0a5b      	lsrs	r3, r3, #9
    6f3e:	0552      	lsls	r2, r2, #21
    6f40:	432b      	orrs	r3, r5
    6f42:	0fc9      	lsrs	r1, r1, #31
    6f44:	00c5      	lsls	r5, r0, #3
    6f46:	0d52      	lsrs	r2, r2, #21
    6f48:	2a01      	cmp	r2, #1
    6f4a:	dd28      	ble.n	6f9e <__aeabi_d2f+0x6e>
    6f4c:	4a3a      	ldr	r2, [pc, #232]	; (7038 <__aeabi_d2f+0x108>)
    6f4e:	18a6      	adds	r6, r4, r2
    6f50:	2efe      	cmp	r6, #254	; 0xfe
    6f52:	dc1b      	bgt.n	6f8c <__aeabi_d2f+0x5c>
    6f54:	2e00      	cmp	r6, #0
    6f56:	dd3e      	ble.n	6fd6 <__aeabi_d2f+0xa6>
    6f58:	0180      	lsls	r0, r0, #6
    6f5a:	0002      	movs	r2, r0
    6f5c:	1e50      	subs	r0, r2, #1
    6f5e:	4182      	sbcs	r2, r0
    6f60:	0f6d      	lsrs	r5, r5, #29
    6f62:	432a      	orrs	r2, r5
    6f64:	00db      	lsls	r3, r3, #3
    6f66:	4313      	orrs	r3, r2
    6f68:	075a      	lsls	r2, r3, #29
    6f6a:	d004      	beq.n	6f76 <__aeabi_d2f+0x46>
    6f6c:	220f      	movs	r2, #15
    6f6e:	401a      	ands	r2, r3
    6f70:	2a04      	cmp	r2, #4
    6f72:	d000      	beq.n	6f76 <__aeabi_d2f+0x46>
    6f74:	3304      	adds	r3, #4
    6f76:	2280      	movs	r2, #128	; 0x80
    6f78:	04d2      	lsls	r2, r2, #19
    6f7a:	401a      	ands	r2, r3
    6f7c:	d05a      	beq.n	7034 <__aeabi_d2f+0x104>
    6f7e:	3601      	adds	r6, #1
    6f80:	2eff      	cmp	r6, #255	; 0xff
    6f82:	d003      	beq.n	6f8c <__aeabi_d2f+0x5c>
    6f84:	019b      	lsls	r3, r3, #6
    6f86:	0a5b      	lsrs	r3, r3, #9
    6f88:	b2f4      	uxtb	r4, r6
    6f8a:	e001      	b.n	6f90 <__aeabi_d2f+0x60>
    6f8c:	24ff      	movs	r4, #255	; 0xff
    6f8e:	2300      	movs	r3, #0
    6f90:	0258      	lsls	r0, r3, #9
    6f92:	05e4      	lsls	r4, r4, #23
    6f94:	0a40      	lsrs	r0, r0, #9
    6f96:	07c9      	lsls	r1, r1, #31
    6f98:	4320      	orrs	r0, r4
    6f9a:	4308      	orrs	r0, r1
    6f9c:	bdf0      	pop	{r4, r5, r6, r7, pc}
    6f9e:	2c00      	cmp	r4, #0
    6fa0:	d007      	beq.n	6fb2 <__aeabi_d2f+0x82>
    6fa2:	431d      	orrs	r5, r3
    6fa4:	d0f2      	beq.n	6f8c <__aeabi_d2f+0x5c>
    6fa6:	2080      	movs	r0, #128	; 0x80
    6fa8:	00db      	lsls	r3, r3, #3
    6faa:	0480      	lsls	r0, r0, #18
    6fac:	4303      	orrs	r3, r0
    6fae:	26ff      	movs	r6, #255	; 0xff
    6fb0:	e7da      	b.n	6f68 <__aeabi_d2f+0x38>
    6fb2:	432b      	orrs	r3, r5
    6fb4:	d003      	beq.n	6fbe <__aeabi_d2f+0x8e>
    6fb6:	2305      	movs	r3, #5
    6fb8:	08db      	lsrs	r3, r3, #3
    6fba:	2cff      	cmp	r4, #255	; 0xff
    6fbc:	d003      	beq.n	6fc6 <__aeabi_d2f+0x96>
    6fbe:	025b      	lsls	r3, r3, #9
    6fc0:	0a5b      	lsrs	r3, r3, #9
    6fc2:	b2e4      	uxtb	r4, r4
    6fc4:	e7e4      	b.n	6f90 <__aeabi_d2f+0x60>
    6fc6:	2b00      	cmp	r3, #0
    6fc8:	d032      	beq.n	7030 <__aeabi_d2f+0x100>
    6fca:	2080      	movs	r0, #128	; 0x80
    6fcc:	03c0      	lsls	r0, r0, #15
    6fce:	4303      	orrs	r3, r0
    6fd0:	025b      	lsls	r3, r3, #9
    6fd2:	0a5b      	lsrs	r3, r3, #9
    6fd4:	e7dc      	b.n	6f90 <__aeabi_d2f+0x60>
    6fd6:	0032      	movs	r2, r6
    6fd8:	3217      	adds	r2, #23
    6fda:	db14      	blt.n	7006 <__aeabi_d2f+0xd6>
    6fdc:	2280      	movs	r2, #128	; 0x80
    6fde:	271e      	movs	r7, #30
    6fe0:	0412      	lsls	r2, r2, #16
    6fe2:	4313      	orrs	r3, r2
    6fe4:	1bbf      	subs	r7, r7, r6
    6fe6:	2f1f      	cmp	r7, #31
    6fe8:	dc0f      	bgt.n	700a <__aeabi_d2f+0xda>
    6fea:	4a14      	ldr	r2, [pc, #80]	; (703c <__aeabi_d2f+0x10c>)
    6fec:	4694      	mov	ip, r2
    6fee:	4464      	add	r4, ip
    6ff0:	002a      	movs	r2, r5
    6ff2:	40a5      	lsls	r5, r4
    6ff4:	002e      	movs	r6, r5
    6ff6:	40a3      	lsls	r3, r4
    6ff8:	1e75      	subs	r5, r6, #1
    6ffa:	41ae      	sbcs	r6, r5
    6ffc:	40fa      	lsrs	r2, r7
    6ffe:	4333      	orrs	r3, r6
    7000:	4313      	orrs	r3, r2
    7002:	2600      	movs	r6, #0
    7004:	e7b0      	b.n	6f68 <__aeabi_d2f+0x38>
    7006:	2400      	movs	r4, #0
    7008:	e7d5      	b.n	6fb6 <__aeabi_d2f+0x86>
    700a:	2202      	movs	r2, #2
    700c:	4252      	negs	r2, r2
    700e:	1b96      	subs	r6, r2, r6
    7010:	001a      	movs	r2, r3
    7012:	40f2      	lsrs	r2, r6
    7014:	2f20      	cmp	r7, #32
    7016:	d009      	beq.n	702c <__aeabi_d2f+0xfc>
    7018:	4809      	ldr	r0, [pc, #36]	; (7040 <__aeabi_d2f+0x110>)
    701a:	4684      	mov	ip, r0
    701c:	4464      	add	r4, ip
    701e:	40a3      	lsls	r3, r4
    7020:	432b      	orrs	r3, r5
    7022:	1e5d      	subs	r5, r3, #1
    7024:	41ab      	sbcs	r3, r5
    7026:	2600      	movs	r6, #0
    7028:	4313      	orrs	r3, r2
    702a:	e79d      	b.n	6f68 <__aeabi_d2f+0x38>
    702c:	2300      	movs	r3, #0
    702e:	e7f7      	b.n	7020 <__aeabi_d2f+0xf0>
    7030:	2300      	movs	r3, #0
    7032:	e7ad      	b.n	6f90 <__aeabi_d2f+0x60>
    7034:	0034      	movs	r4, r6
    7036:	e7bf      	b.n	6fb8 <__aeabi_d2f+0x88>
    7038:	fffffc80 	.word	0xfffffc80
    703c:	fffffc82 	.word	0xfffffc82
    7040:	fffffca2 	.word	0xfffffca2

00007044 <__clzsi2>:
    7044:	211c      	movs	r1, #28
    7046:	2301      	movs	r3, #1
    7048:	041b      	lsls	r3, r3, #16
    704a:	4298      	cmp	r0, r3
    704c:	d301      	bcc.n	7052 <__clzsi2+0xe>
    704e:	0c00      	lsrs	r0, r0, #16
    7050:	3910      	subs	r1, #16
    7052:	0a1b      	lsrs	r3, r3, #8
    7054:	4298      	cmp	r0, r3
    7056:	d301      	bcc.n	705c <__clzsi2+0x18>
    7058:	0a00      	lsrs	r0, r0, #8
    705a:	3908      	subs	r1, #8
    705c:	091b      	lsrs	r3, r3, #4
    705e:	4298      	cmp	r0, r3
    7060:	d301      	bcc.n	7066 <__clzsi2+0x22>
    7062:	0900      	lsrs	r0, r0, #4
    7064:	3904      	subs	r1, #4
    7066:	a202      	add	r2, pc, #8	; (adr r2, 7070 <__clzsi2+0x2c>)
    7068:	5c10      	ldrb	r0, [r2, r0]
    706a:	1840      	adds	r0, r0, r1
    706c:	4770      	bx	lr
    706e:	46c0      	nop			; (mov r8, r8)
    7070:	02020304 	.word	0x02020304
    7074:	01010101 	.word	0x01010101
	...

00007080 <__clzdi2>:
    7080:	b510      	push	{r4, lr}
    7082:	2900      	cmp	r1, #0
    7084:	d103      	bne.n	708e <__clzdi2+0xe>
    7086:	f7ff ffdd 	bl	7044 <__clzsi2>
    708a:	3020      	adds	r0, #32
    708c:	e002      	b.n	7094 <__clzdi2+0x14>
    708e:	1c08      	adds	r0, r1, #0
    7090:	f7ff ffd8 	bl	7044 <__clzsi2>
    7094:	bd10      	pop	{r4, pc}
    7096:	46c0      	nop			; (mov r8, r8)

00007098 <__divdi3>:
    7098:	b5f0      	push	{r4, r5, r6, r7, lr}
    709a:	464e      	mov	r6, r9
    709c:	4657      	mov	r7, sl
    709e:	46de      	mov	lr, fp
    70a0:	4645      	mov	r5, r8
    70a2:	b5e0      	push	{r5, r6, r7, lr}
    70a4:	0006      	movs	r6, r0
    70a6:	2000      	movs	r0, #0
    70a8:	000f      	movs	r7, r1
    70aa:	b083      	sub	sp, #12
    70ac:	0019      	movs	r1, r3
    70ae:	4681      	mov	r9, r0
    70b0:	2f00      	cmp	r7, #0
    70b2:	da00      	bge.n	70b6 <__divdi3+0x1e>
    70b4:	e08c      	b.n	71d0 <__divdi3+0x138>
    70b6:	2900      	cmp	r1, #0
    70b8:	da00      	bge.n	70bc <__divdi3+0x24>
    70ba:	e080      	b.n	71be <__divdi3+0x126>
    70bc:	0034      	movs	r4, r6
    70be:	003d      	movs	r5, r7
    70c0:	4692      	mov	sl, r2
    70c2:	4698      	mov	r8, r3
    70c4:	42bb      	cmp	r3, r7
    70c6:	d869      	bhi.n	719c <__divdi3+0x104>
    70c8:	d066      	beq.n	7198 <__divdi3+0x100>
    70ca:	4641      	mov	r1, r8
    70cc:	4650      	mov	r0, sl
    70ce:	f7ff ffd7 	bl	7080 <__clzdi2>
    70d2:	4683      	mov	fp, r0
    70d4:	0039      	movs	r1, r7
    70d6:	0030      	movs	r0, r6
    70d8:	f7ff ffd2 	bl	7080 <__clzdi2>
    70dc:	465b      	mov	r3, fp
    70de:	1a1b      	subs	r3, r3, r0
    70e0:	469c      	mov	ip, r3
    70e2:	3b20      	subs	r3, #32
    70e4:	469b      	mov	fp, r3
    70e6:	d500      	bpl.n	70ea <__divdi3+0x52>
    70e8:	e087      	b.n	71fa <__divdi3+0x162>
    70ea:	4651      	mov	r1, sl
    70ec:	4658      	mov	r0, fp
    70ee:	4081      	lsls	r1, r0
    70f0:	000b      	movs	r3, r1
    70f2:	4651      	mov	r1, sl
    70f4:	4660      	mov	r0, ip
    70f6:	4081      	lsls	r1, r0
    70f8:	000a      	movs	r2, r1
    70fa:	42bb      	cmp	r3, r7
    70fc:	d900      	bls.n	7100 <__divdi3+0x68>
    70fe:	e072      	b.n	71e6 <__divdi3+0x14e>
    7100:	d06e      	beq.n	71e0 <__divdi3+0x148>
    7102:	0034      	movs	r4, r6
    7104:	003d      	movs	r5, r7
    7106:	4659      	mov	r1, fp
    7108:	1aa4      	subs	r4, r4, r2
    710a:	419d      	sbcs	r5, r3
    710c:	2900      	cmp	r1, #0
    710e:	da00      	bge.n	7112 <__divdi3+0x7a>
    7110:	e08a      	b.n	7228 <__divdi3+0x190>
    7112:	2100      	movs	r1, #0
    7114:	2000      	movs	r0, #0
    7116:	2601      	movs	r6, #1
    7118:	9000      	str	r0, [sp, #0]
    711a:	9101      	str	r1, [sp, #4]
    711c:	4659      	mov	r1, fp
    711e:	408e      	lsls	r6, r1
    7120:	9601      	str	r6, [sp, #4]
    7122:	4661      	mov	r1, ip
    7124:	2601      	movs	r6, #1
    7126:	408e      	lsls	r6, r1
    7128:	4661      	mov	r1, ip
    712a:	9600      	str	r6, [sp, #0]
    712c:	2900      	cmp	r1, #0
    712e:	d061      	beq.n	71f4 <__divdi3+0x15c>
    7130:	07d9      	lsls	r1, r3, #31
    7132:	0856      	lsrs	r6, r2, #1
    7134:	430e      	orrs	r6, r1
    7136:	085f      	lsrs	r7, r3, #1
    7138:	4661      	mov	r1, ip
    713a:	2201      	movs	r2, #1
    713c:	2300      	movs	r3, #0
    713e:	e00c      	b.n	715a <__divdi3+0xc2>
    7140:	42af      	cmp	r7, r5
    7142:	d101      	bne.n	7148 <__divdi3+0xb0>
    7144:	42a6      	cmp	r6, r4
    7146:	d80a      	bhi.n	715e <__divdi3+0xc6>
    7148:	1ba4      	subs	r4, r4, r6
    714a:	41bd      	sbcs	r5, r7
    714c:	1924      	adds	r4, r4, r4
    714e:	416d      	adcs	r5, r5
    7150:	3901      	subs	r1, #1
    7152:	18a4      	adds	r4, r4, r2
    7154:	415d      	adcs	r5, r3
    7156:	2900      	cmp	r1, #0
    7158:	d006      	beq.n	7168 <__divdi3+0xd0>
    715a:	42af      	cmp	r7, r5
    715c:	d9f0      	bls.n	7140 <__divdi3+0xa8>
    715e:	3901      	subs	r1, #1
    7160:	1924      	adds	r4, r4, r4
    7162:	416d      	adcs	r5, r5
    7164:	2900      	cmp	r1, #0
    7166:	d1f8      	bne.n	715a <__divdi3+0xc2>
    7168:	465b      	mov	r3, fp
    716a:	9800      	ldr	r0, [sp, #0]
    716c:	9901      	ldr	r1, [sp, #4]
    716e:	1900      	adds	r0, r0, r4
    7170:	4169      	adcs	r1, r5
    7172:	2b00      	cmp	r3, #0
    7174:	db4d      	blt.n	7212 <__divdi3+0x17a>
    7176:	002e      	movs	r6, r5
    7178:	40de      	lsrs	r6, r3
    717a:	4663      	mov	r3, ip
    717c:	002c      	movs	r4, r5
    717e:	40dc      	lsrs	r4, r3
    7180:	465b      	mov	r3, fp
    7182:	2b00      	cmp	r3, #0
    7184:	db5b      	blt.n	723e <__divdi3+0x1a6>
    7186:	0034      	movs	r4, r6
    7188:	409c      	lsls	r4, r3
    718a:	0023      	movs	r3, r4
    718c:	4664      	mov	r4, ip
    718e:	40a6      	lsls	r6, r4
    7190:	0032      	movs	r2, r6
    7192:	1a80      	subs	r0, r0, r2
    7194:	4199      	sbcs	r1, r3
    7196:	e003      	b.n	71a0 <__divdi3+0x108>
    7198:	42b2      	cmp	r2, r6
    719a:	d996      	bls.n	70ca <__divdi3+0x32>
    719c:	2000      	movs	r0, #0
    719e:	2100      	movs	r1, #0
    71a0:	464b      	mov	r3, r9
    71a2:	2b00      	cmp	r3, #0
    71a4:	d004      	beq.n	71b0 <__divdi3+0x118>
    71a6:	0003      	movs	r3, r0
    71a8:	000c      	movs	r4, r1
    71aa:	2100      	movs	r1, #0
    71ac:	4258      	negs	r0, r3
    71ae:	41a1      	sbcs	r1, r4
    71b0:	b003      	add	sp, #12
    71b2:	bc3c      	pop	{r2, r3, r4, r5}
    71b4:	4690      	mov	r8, r2
    71b6:	4699      	mov	r9, r3
    71b8:	46a2      	mov	sl, r4
    71ba:	46ab      	mov	fp, r5
    71bc:	bdf0      	pop	{r4, r5, r6, r7, pc}
    71be:	4649      	mov	r1, r9
    71c0:	43c9      	mvns	r1, r1
    71c2:	0010      	movs	r0, r2
    71c4:	4689      	mov	r9, r1
    71c6:	0019      	movs	r1, r3
    71c8:	2300      	movs	r3, #0
    71ca:	4242      	negs	r2, r0
    71cc:	418b      	sbcs	r3, r1
    71ce:	e775      	b.n	70bc <__divdi3+0x24>
    71d0:	0034      	movs	r4, r6
    71d2:	003d      	movs	r5, r7
    71d4:	3801      	subs	r0, #1
    71d6:	2700      	movs	r7, #0
    71d8:	4266      	negs	r6, r4
    71da:	41af      	sbcs	r7, r5
    71dc:	4681      	mov	r9, r0
    71de:	e76a      	b.n	70b6 <__divdi3+0x1e>
    71e0:	42b1      	cmp	r1, r6
    71e2:	d800      	bhi.n	71e6 <__divdi3+0x14e>
    71e4:	e78d      	b.n	7102 <__divdi3+0x6a>
    71e6:	2100      	movs	r1, #0
    71e8:	2000      	movs	r0, #0
    71ea:	9000      	str	r0, [sp, #0]
    71ec:	9101      	str	r1, [sp, #4]
    71ee:	4661      	mov	r1, ip
    71f0:	2900      	cmp	r1, #0
    71f2:	d19d      	bne.n	7130 <__divdi3+0x98>
    71f4:	9800      	ldr	r0, [sp, #0]
    71f6:	9901      	ldr	r1, [sp, #4]
    71f8:	e7d2      	b.n	71a0 <__divdi3+0x108>
    71fa:	4662      	mov	r2, ip
    71fc:	4640      	mov	r0, r8
    71fe:	2320      	movs	r3, #32
    7200:	4651      	mov	r1, sl
    7202:	4090      	lsls	r0, r2
    7204:	1a9b      	subs	r3, r3, r2
    7206:	40d9      	lsrs	r1, r3
    7208:	0003      	movs	r3, r0
    720a:	9100      	str	r1, [sp, #0]
    720c:	9900      	ldr	r1, [sp, #0]
    720e:	430b      	orrs	r3, r1
    7210:	e76f      	b.n	70f2 <__divdi3+0x5a>
    7212:	4662      	mov	r2, ip
    7214:	2320      	movs	r3, #32
    7216:	1a9b      	subs	r3, r3, r2
    7218:	002a      	movs	r2, r5
    721a:	409a      	lsls	r2, r3
    721c:	0026      	movs	r6, r4
    721e:	0013      	movs	r3, r2
    7220:	4662      	mov	r2, ip
    7222:	40d6      	lsrs	r6, r2
    7224:	431e      	orrs	r6, r3
    7226:	e7a8      	b.n	717a <__divdi3+0xe2>
    7228:	4661      	mov	r1, ip
    722a:	2620      	movs	r6, #32
    722c:	2701      	movs	r7, #1
    722e:	1a76      	subs	r6, r6, r1
    7230:	2000      	movs	r0, #0
    7232:	2100      	movs	r1, #0
    7234:	40f7      	lsrs	r7, r6
    7236:	9000      	str	r0, [sp, #0]
    7238:	9101      	str	r1, [sp, #4]
    723a:	9701      	str	r7, [sp, #4]
    723c:	e771      	b.n	7122 <__divdi3+0x8a>
    723e:	4662      	mov	r2, ip
    7240:	2320      	movs	r3, #32
    7242:	0035      	movs	r5, r6
    7244:	4094      	lsls	r4, r2
    7246:	1a9b      	subs	r3, r3, r2
    7248:	40dd      	lsrs	r5, r3
    724a:	0023      	movs	r3, r4
    724c:	432b      	orrs	r3, r5
    724e:	e79d      	b.n	718c <__divdi3+0xf4>

00007250 <__libc_init_array>:
    7250:	b570      	push	{r4, r5, r6, lr}
    7252:	2600      	movs	r6, #0
    7254:	4d0c      	ldr	r5, [pc, #48]	; (7288 <__libc_init_array+0x38>)
    7256:	4c0d      	ldr	r4, [pc, #52]	; (728c <__libc_init_array+0x3c>)
    7258:	1b64      	subs	r4, r4, r5
    725a:	10a4      	asrs	r4, r4, #2
    725c:	42a6      	cmp	r6, r4
    725e:	d109      	bne.n	7274 <__libc_init_array+0x24>
    7260:	2600      	movs	r6, #0
    7262:	f000 f9cf 	bl	7604 <_init>
    7266:	4d0a      	ldr	r5, [pc, #40]	; (7290 <__libc_init_array+0x40>)
    7268:	4c0a      	ldr	r4, [pc, #40]	; (7294 <__libc_init_array+0x44>)
    726a:	1b64      	subs	r4, r4, r5
    726c:	10a4      	asrs	r4, r4, #2
    726e:	42a6      	cmp	r6, r4
    7270:	d105      	bne.n	727e <__libc_init_array+0x2e>
    7272:	bd70      	pop	{r4, r5, r6, pc}
    7274:	00b3      	lsls	r3, r6, #2
    7276:	58eb      	ldr	r3, [r5, r3]
    7278:	4798      	blx	r3
    727a:	3601      	adds	r6, #1
    727c:	e7ee      	b.n	725c <__libc_init_array+0xc>
    727e:	00b3      	lsls	r3, r6, #2
    7280:	58eb      	ldr	r3, [r5, r3]
    7282:	4798      	blx	r3
    7284:	3601      	adds	r6, #1
    7286:	e7f2      	b.n	726e <__libc_init_array+0x1e>
    7288:	00007610 	.word	0x00007610
    728c:	00007610 	.word	0x00007610
    7290:	00007610 	.word	0x00007610
    7294:	00007614 	.word	0x00007614

00007298 <memcpy>:
    7298:	2300      	movs	r3, #0
    729a:	b510      	push	{r4, lr}
    729c:	429a      	cmp	r2, r3
    729e:	d100      	bne.n	72a2 <memcpy+0xa>
    72a0:	bd10      	pop	{r4, pc}
    72a2:	5ccc      	ldrb	r4, [r1, r3]
    72a4:	54c4      	strb	r4, [r0, r3]
    72a6:	3301      	adds	r3, #1
    72a8:	e7f8      	b.n	729c <memcpy+0x4>

000072aa <memset>:
    72aa:	0003      	movs	r3, r0
    72ac:	1882      	adds	r2, r0, r2
    72ae:	4293      	cmp	r3, r2
    72b0:	d100      	bne.n	72b4 <memset+0xa>
    72b2:	4770      	bx	lr
    72b4:	7019      	strb	r1, [r3, #0]
    72b6:	3301      	adds	r3, #1
    72b8:	e7f9      	b.n	72ae <memset+0x4>
    72ba:	0000      	movs	r0, r0
    72bc:	000002a0 	.word	0x000002a0
    72c0:	000002ae 	.word	0x000002ae
    72c4:	000002bc 	.word	0x000002bc
    72c8:	000002ca 	.word	0x000002ca
    72cc:	000002d8 	.word	0x000002d8
    72d0:	00000002 	.word	0x00000002
    72d4:	00000003 	.word	0x00000003
    72d8:	00000028 	.word	0x00000028
    72dc:	00000029 	.word	0x00000029
    72e0:	00000004 	.word	0x00000004
    72e4:	00000005 	.word	0x00000005
    72e8:	00000006 	.word	0x00000006
    72ec:	00000007 	.word	0x00000007
    72f0:	00000020 	.word	0x00000020
    72f4:	00000021 	.word	0x00000021
    72f8:	00000022 	.word	0x00000022
    72fc:	00000023 	.word	0x00000023
    7300:	00000024 	.word	0x00000024
    7304:	00000025 	.word	0x00000025
    7308:	00000026 	.word	0x00000026
    730c:	00000027 	.word	0x00000027
    7310:	00000008 	.word	0x00000008
    7314:	00000009 	.word	0x00000009
    7318:	0000000a 	.word	0x0000000a
    731c:	0000000b 	.word	0x0000000b
    7320:	0000ffff 	.word	0x0000ffff
    7324:	0000ffff 	.word	0x0000ffff
    7328:	0000ffff 	.word	0x0000ffff
    732c:	0000ffff 	.word	0x0000ffff
    7330:	00000688 	.word	0x00000688
    7334:	0000068e 	.word	0x0000068e
    7338:	0000068e 	.word	0x0000068e
    733c:	0000068e 	.word	0x0000068e
    7340:	0000068e 	.word	0x0000068e
    7344:	0000068e 	.word	0x0000068e
    7348:	0000068e 	.word	0x0000068e
    734c:	0000068e 	.word	0x0000068e
    7350:	0000068e 	.word	0x0000068e
    7354:	0000068e 	.word	0x0000068e
    7358:	0000068e 	.word	0x0000068e
    735c:	0000068e 	.word	0x0000068e
    7360:	0000068e 	.word	0x0000068e
    7364:	0000068e 	.word	0x0000068e
    7368:	0000068e 	.word	0x0000068e
    736c:	0000068e 	.word	0x0000068e
    7370:	00000666 	.word	0x00000666
    7374:	0000068e 	.word	0x0000068e
    7378:	0000068e 	.word	0x0000068e
    737c:	0000068e 	.word	0x0000068e
    7380:	0000068e 	.word	0x0000068e
    7384:	0000068e 	.word	0x0000068e
    7388:	0000068e 	.word	0x0000068e
    738c:	0000068e 	.word	0x0000068e
    7390:	0000068e 	.word	0x0000068e
    7394:	0000068e 	.word	0x0000068e
    7398:	0000068e 	.word	0x0000068e
    739c:	0000068e 	.word	0x0000068e
    73a0:	0000068e 	.word	0x0000068e
    73a4:	0000068e 	.word	0x0000068e
    73a8:	0000068e 	.word	0x0000068e
    73ac:	0000068e 	.word	0x0000068e
    73b0:	00000682 	.word	0x00000682
    73b4:	0000068e 	.word	0x0000068e
    73b8:	0000068e 	.word	0x0000068e
    73bc:	0000068e 	.word	0x0000068e
    73c0:	0000068e 	.word	0x0000068e
    73c4:	0000068e 	.word	0x0000068e
    73c8:	0000068e 	.word	0x0000068e
    73cc:	0000068e 	.word	0x0000068e
    73d0:	0000068e 	.word	0x0000068e
    73d4:	0000068e 	.word	0x0000068e
    73d8:	0000068e 	.word	0x0000068e
    73dc:	0000068e 	.word	0x0000068e
    73e0:	0000068e 	.word	0x0000068e
    73e4:	0000068e 	.word	0x0000068e
    73e8:	0000068e 	.word	0x0000068e
    73ec:	0000068e 	.word	0x0000068e
    73f0:	0000067c 	.word	0x0000067c
    73f4:	00000624 	.word	0x00000624
    73f8:	0000063a 	.word	0x0000063a
    73fc:	00000650 	.word	0x00000650
    7400:	0000060a 	.word	0x0000060a
    7404:	00000d34 	.word	0x00000d34
    7408:	00000d42 	.word	0x00000d42
    740c:	00000d50 	.word	0x00000d50
    7410:	00000d5e 	.word	0x00000d5e
    7414:	00000d6c 	.word	0x00000d6c
    7418:	0000156c 	.word	0x0000156c
    741c:	0000157a 	.word	0x0000157a
    7420:	00001588 	.word	0x00001588
    7424:	00001596 	.word	0x00001596
    7428:	000015a4 	.word	0x000015a4
    742c:	00002210 	.word	0x00002210
    7430:	0000221e 	.word	0x0000221e
    7434:	0000222c 	.word	0x0000222c
    7438:	0000223a 	.word	0x0000223a
    743c:	00002248 	.word	0x00002248
    7440:	42002000 	.word	0x42002000
    7444:	42002400 	.word	0x42002400
    7448:	42002800 	.word	0x42002800
    744c:	42002c00 	.word	0x42002c00
    7450:	43000800 	.word	0x43000800
    7454:	1c1c1b1b 	.word	0x1c1c1b1b
    7458:	0000001d 	.word	0x0000001d
    745c:	00000002 	.word	0x00000002
    7460:	00000100 	.word	0x00000100
    7464:	00000002 	.word	0x00000002
    7468:	00000200 	.word	0x00000200
    746c:	00000002 	.word	0x00000002
    7470:	00000400 	.word	0x00000400
    7474:	00000002 	.word	0x00000002
    7478:	00000800 	.word	0x00000800
    747c:	00000003 	.word	0x00000003
    7480:	00000004 	.word	0x00000004
    7484:	00002b62 	.word	0x00002b62
    7488:	00002b62 	.word	0x00002b62
    748c:	00002b32 	.word	0x00002b32
    7490:	00002b62 	.word	0x00002b62
    7494:	00002b4a 	.word	0x00002b4a
    7498:	00002b52 	.word	0x00002b52
    749c:	00002b62 	.word	0x00002b62
    74a0:	00002b62 	.word	0x00002b62
    74a4:	00002b62 	.word	0x00002b62
    74a8:	00002b62 	.word	0x00002b62
    74ac:	00002b62 	.word	0x00002b62
    74b0:	00002b62 	.word	0x00002b62
    74b4:	00002b62 	.word	0x00002b62
    74b8:	00002b62 	.word	0x00002b62
    74bc:	00002b62 	.word	0x00002b62
    74c0:	00002b62 	.word	0x00002b62
    74c4:	00002b62 	.word	0x00002b62
    74c8:	00002b62 	.word	0x00002b62
    74cc:	00002b62 	.word	0x00002b62
    74d0:	00002b62 	.word	0x00002b62
    74d4:	00002b62 	.word	0x00002b62
    74d8:	00002b62 	.word	0x00002b62
    74dc:	00002b62 	.word	0x00002b62
    74e0:	00002b62 	.word	0x00002b62
    74e4:	00002b62 	.word	0x00002b62
    74e8:	00002b62 	.word	0x00002b62
    74ec:	00002b62 	.word	0x00002b62
    74f0:	00002b62 	.word	0x00002b62
    74f4:	00002b62 	.word	0x00002b62
    74f8:	00002b62 	.word	0x00002b62
    74fc:	00002b62 	.word	0x00002b62
    7500:	00002b62 	.word	0x00002b62
    7504:	00002b62 	.word	0x00002b62
    7508:	00002b62 	.word	0x00002b62
    750c:	00002b5a 	.word	0x00002b5a
    7510:	00002b62 	.word	0x00002b62
    7514:	00002b62 	.word	0x00002b62
    7518:	00002b62 	.word	0x00002b62
    751c:	00002b62 	.word	0x00002b62
    7520:	00002b62 	.word	0x00002b62
    7524:	00002b3a 	.word	0x00002b3a
    7528:	00002b42 	.word	0x00002b42
    752c:	00004905 	.word	0x00004905
    7530:	00000905 	.word	0x00000905
    7534:	42000000 	.word	0x42000000
    7538:	42000400 	.word	0x42000400
    753c:	42000800 	.word	0x42000800
    7540:	42000c00 	.word	0x42000c00
    7544:	42001000 	.word	0x42001000
    7548:	43000400 	.word	0x43000400
    754c:	00004396 	.word	0x00004396
    7550:	00004412 	.word	0x00004412
    7554:	00004412 	.word	0x00004412
    7558:	000043b6 	.word	0x000043b6
    755c:	000043b0 	.word	0x000043b0
    7560:	000043bc 	.word	0x000043bc
    7564:	0000439c 	.word	0x0000439c
    7568:	000043c2 	.word	0x000043c2
    756c:	000043f8 	.word	0x000043f8
    7570:	00004530 	.word	0x00004530
    7574:	0000453e 	.word	0x0000453e
    7578:	0000454c 	.word	0x0000454c
    757c:	0000455a 	.word	0x0000455a
    7580:	00004568 	.word	0x00004568
    7584:	00005e38 	.word	0x00005e38
    7588:	00005e1a 	.word	0x00005e1a
    758c:	00005dd4 	.word	0x00005dd4
    7590:	00005cf2 	.word	0x00005cf2
    7594:	00005dd4 	.word	0x00005dd4
    7598:	00005e0c 	.word	0x00005e0c
    759c:	00005dd4 	.word	0x00005dd4
    75a0:	00005cf2 	.word	0x00005cf2
    75a4:	00005e1a 	.word	0x00005e1a
    75a8:	00005e1a 	.word	0x00005e1a
    75ac:	00005e0c 	.word	0x00005e0c
    75b0:	00005cf2 	.word	0x00005cf2
    75b4:	00005cea 	.word	0x00005cea
    75b8:	00005cea 	.word	0x00005cea
    75bc:	00005cea 	.word	0x00005cea
    75c0:	00006050 	.word	0x00006050
    75c4:	00006498 	.word	0x00006498
    75c8:	00006358 	.word	0x00006358
    75cc:	00006358 	.word	0x00006358
    75d0:	00006354 	.word	0x00006354
    75d4:	00006470 	.word	0x00006470
    75d8:	00006470 	.word	0x00006470
    75dc:	00006462 	.word	0x00006462
    75e0:	00006354 	.word	0x00006354
    75e4:	00006470 	.word	0x00006470
    75e8:	00006462 	.word	0x00006462
    75ec:	00006470 	.word	0x00006470
    75f0:	00006354 	.word	0x00006354
    75f4:	00006478 	.word	0x00006478
    75f8:	00006478 	.word	0x00006478
    75fc:	00006478 	.word	0x00006478
    7600:	0000667c 	.word	0x0000667c

00007604 <_init>:
    7604:	b5f8      	push	{r3, r4, r5, r6, r7, lr}
    7606:	46c0      	nop			; (mov r8, r8)
    7608:	bcf8      	pop	{r3, r4, r5, r6, r7}
    760a:	bc08      	pop	{r3}
    760c:	469e      	mov	lr, r3
    760e:	4770      	bx	lr

00007610 <__init_array_start>:
    7610:	000000dd 	.word	0x000000dd

00007614 <_fini>:
    7614:	b5f8      	push	{r3, r4, r5, r6, r7, lr}
    7616:	46c0      	nop			; (mov r8, r8)
    7618:	bcf8      	pop	{r3, r4, r5, r6, r7}
    761a:	bc08      	pop	{r3}
    761c:	469e      	mov	lr, r3
    761e:	4770      	bx	lr

00007620 <__fini_array_start>:
    7620:	000000b5 	.word	0x000000b5

Disassembly of section .relocate:

20000000 <portable_delay_cycles>:
20000000:	f3bf 8f5f 	dmb	sy
20000004:	3801      	subs	r0, #1
20000006:	2800      	cmp	r0, #0
20000008:	d1fa      	bne.n	20000000 <portable_delay_cycles>
2000000a:	4770      	bx	lr

2000000c <g_interrupt_enabled>:
2000000c:	0001 0000                                   ....
