
Feather_ULP.elf:     file format elf32-littlearm

Sections:
Idx Name          Size      VMA       LMA       File off  Algn
  0 .text         000036c4  00000000  00000000  00010000  2**2
                  CONTENTS, ALLOC, LOAD, READONLY, CODE
  1 .ARM.exidx    00000008  000036c4  000036c4  000136c4  2**2
                  CONTENTS, ALLOC, LOAD, READONLY, DATA
  2 .relocate     00000010  20000000  000036cc  00020000  2**1
                  CONTENTS, ALLOC, LOAD, CODE
  3 .lpram        00000000  30000000  30000000  00020010  2**0
                  CONTENTS
  4 .bss          000000a4  20000010  000036dc  00020010  2**2
                  ALLOC
  5 .stack        00002004  200000b4  00003780  00020010  2**0
                  ALLOC
  6 .ARM.attributes 00000028  00000000  00000000  00020010  2**0
                  CONTENTS, READONLY
  7 .comment      00000059  00000000  00000000  00020038  2**0
                  CONTENTS, READONLY
  8 .debug_frame  0000030c  00000000  00000000  00020094  2**2
                  CONTENTS, READONLY, DEBUGGING

Disassembly of section .text:

00000000 <exception_table>:
       0:	b8 20 00 20 39 14 00 00 35 14 00 00 35 14 00 00     . . 9...5...5...
	...
      2c:	35 14 00 00 00 00 00 00 00 00 00 00 35 14 00 00     5...........5...
      3c:	35 14 00 00 35 14 00 00 a5 0c 00 00 35 14 00 00     5...5.......5...
      4c:	35 14 00 00 35 14 00 00 35 14 00 00 35 14 00 00     5...5...5...5...
      5c:	35 14 00 00 35 14 00 00 35 14 00 00 35 14 00 00     5...5...5...5...
      6c:	35 14 00 00 35 14 00 00 35 14 00 00 35 14 00 00     5...5...5...5...
      7c:	35 14 00 00 35 14 00 00 35 14 00 00 35 14 00 00     5...5...5...5...
      8c:	35 14 00 00 35 14 00 00 35 14 00 00 31 01 00 00     5...5...5...1...
      9c:	35 14 00 00 35 14 00 00 35 14 00 00 35 14 00 00     5...5...5...5...
      ac:	35 14 00 00 00 00 00 00                             5.......

000000b4 <__do_global_dtors_aux>:
      b4:	b510      	push	{r4, lr}
      b6:	4c06      	ldr	r4, [pc, #24]	; (d0 <__do_global_dtors_aux+0x1c>)
      b8:	7823      	ldrb	r3, [r4, #0]
      ba:	2b00      	cmp	r3, #0
      bc:	d107      	bne.n	ce <__do_global_dtors_aux+0x1a>
      be:	4b05      	ldr	r3, [pc, #20]	; (d4 <__do_global_dtors_aux+0x20>)
      c0:	2b00      	cmp	r3, #0
      c2:	d002      	beq.n	ca <__do_global_dtors_aux+0x16>
      c4:	4804      	ldr	r0, [pc, #16]	; (d8 <__do_global_dtors_aux+0x24>)
      c6:	e000      	b.n	ca <__do_global_dtors_aux+0x16>
      c8:	bf00      	nop
      ca:	2301      	movs	r3, #1
      cc:	7023      	strb	r3, [r4, #0]
      ce:	bd10      	pop	{r4, pc}
      d0:	20000010 	.word	0x20000010
      d4:	00000000 	.word	0x00000000
      d8:	000036cc 	.word	0x000036cc

000000dc <frame_dummy>:
      dc:	4b08      	ldr	r3, [pc, #32]	; (100 <frame_dummy+0x24>)
      de:	b510      	push	{r4, lr}
      e0:	2b00      	cmp	r3, #0
      e2:	d003      	beq.n	ec <frame_dummy+0x10>
      e4:	4907      	ldr	r1, [pc, #28]	; (104 <frame_dummy+0x28>)
      e6:	4808      	ldr	r0, [pc, #32]	; (108 <frame_dummy+0x2c>)
      e8:	e000      	b.n	ec <frame_dummy+0x10>
      ea:	bf00      	nop
      ec:	4807      	ldr	r0, [pc, #28]	; (10c <frame_dummy+0x30>)
      ee:	6803      	ldr	r3, [r0, #0]
      f0:	2b00      	cmp	r3, #0
      f2:	d100      	bne.n	f6 <frame_dummy+0x1a>
      f4:	bd10      	pop	{r4, pc}
      f6:	4b06      	ldr	r3, [pc, #24]	; (110 <frame_dummy+0x34>)
      f8:	2b00      	cmp	r3, #0
      fa:	d0fb      	beq.n	f4 <frame_dummy+0x18>
      fc:	4798      	blx	r3
      fe:	e7f9      	b.n	f4 <frame_dummy+0x18>
     100:	00000000 	.word	0x00000000
     104:	20000014 	.word	0x20000014
     108:	000036cc 	.word	0x000036cc
     10c:	000036cc 	.word	0x000036cc
     110:	00000000 	.word	0x00000000

00000114 <adc_start_conversion>:
     114:	6803      	ldr	r3, [r0, #0]
     116:	8c1a      	ldrh	r2, [r3, #32]
     118:	2a00      	cmp	r2, #0
     11a:	d1fc      	bne.n	116 <adc_start_conversion+0x2>
     11c:	2202      	movs	r2, #2
     11e:	7e19      	ldrb	r1, [r3, #24]
     120:	430a      	orrs	r2, r1
     122:	761a      	strb	r2, [r3, #24]
     124:	6803      	ldr	r3, [r0, #0]
     126:	8c1a      	ldrh	r2, [r3, #32]
     128:	2a00      	cmp	r2, #0
     12a:	d1fc      	bne.n	126 <adc_start_conversion+0x12>
     12c:	4770      	bx	lr
	...

00000130 <ADC_Handler>:
     130:	b570      	push	{r4, r5, r6, lr}
     132:	4b28      	ldr	r3, [pc, #160]	; (1d4 <ADC_Handler+0xa4>)
     134:	681c      	ldr	r4, [r3, #0]
     136:	6823      	ldr	r3, [r4, #0]
     138:	799a      	ldrb	r2, [r3, #6]
     13a:	795d      	ldrb	r5, [r3, #5]
     13c:	4015      	ands	r5, r2
     13e:	2201      	movs	r2, #1
     140:	4215      	tst	r5, r2
     142:	d018      	beq.n	176 <ADC_Handler+0x46>
     144:	719a      	strb	r2, [r3, #6]
     146:	6961      	ldr	r1, [r4, #20]
     148:	1c8b      	adds	r3, r1, #2
     14a:	6163      	str	r3, [r4, #20]
     14c:	6823      	ldr	r3, [r4, #0]
     14e:	8c9b      	ldrh	r3, [r3, #36]	; 0x24
     150:	b29b      	uxth	r3, r3
     152:	800b      	strh	r3, [r1, #0]
     154:	8b23      	ldrh	r3, [r4, #24]
     156:	3b01      	subs	r3, #1
     158:	b29b      	uxth	r3, r3
     15a:	8323      	strh	r3, [r4, #24]
     15c:	2b00      	cmp	r3, #0
     15e:	d029      	beq.n	1b4 <ADC_Handler+0x84>
     160:	7f63      	ldrb	r3, [r4, #29]
     162:	2b00      	cmp	r3, #0
     164:	d007      	beq.n	176 <ADC_Handler+0x46>
     166:	6823      	ldr	r3, [r4, #0]
     168:	79db      	ldrb	r3, [r3, #7]
     16a:	b25b      	sxtb	r3, r3
     16c:	2b00      	cmp	r3, #0
     16e:	db02      	blt.n	176 <ADC_Handler+0x46>
     170:	0020      	movs	r0, r4
     172:	4b19      	ldr	r3, [pc, #100]	; (1d8 <ADC_Handler+0xa8>)
     174:	4798      	blx	r3
     176:	2304      	movs	r3, #4
     178:	421d      	tst	r5, r3
     17a:	d00b      	beq.n	194 <ADC_Handler+0x64>
     17c:	6822      	ldr	r2, [r4, #0]
     17e:	7193      	strb	r3, [r2, #6]
     180:	7ee2      	ldrb	r2, [r4, #27]
     182:	3b02      	subs	r3, #2
     184:	421a      	tst	r2, r3
     186:	d005      	beq.n	194 <ADC_Handler+0x64>
     188:	7ea2      	ldrb	r2, [r4, #26]
     18a:	421a      	tst	r2, r3
     18c:	d002      	beq.n	194 <ADC_Handler+0x64>
     18e:	0020      	movs	r0, r4
     190:	68e3      	ldr	r3, [r4, #12]
     192:	4798      	blx	r3
     194:	2302      	movs	r3, #2
     196:	421d      	tst	r5, r3
     198:	d00b      	beq.n	1b2 <ADC_Handler+0x82>
     19a:	6822      	ldr	r2, [r4, #0]
     19c:	7193      	strb	r3, [r2, #6]
     19e:	7ee2      	ldrb	r2, [r4, #27]
     1a0:	18db      	adds	r3, r3, r3
     1a2:	421a      	tst	r2, r3
     1a4:	d005      	beq.n	1b2 <ADC_Handler+0x82>
     1a6:	7ea2      	ldrb	r2, [r4, #26]
     1a8:	421a      	tst	r2, r3
     1aa:	d002      	beq.n	1b2 <ADC_Handler+0x82>
     1ac:	6923      	ldr	r3, [r4, #16]
     1ae:	0020      	movs	r0, r4
     1b0:	4798      	blx	r3
     1b2:	bd70      	pop	{r4, r5, r6, pc}
     1b4:	6821      	ldr	r1, [r4, #0]
     1b6:	710a      	strb	r2, [r1, #4]
     1b8:	7f21      	ldrb	r1, [r4, #28]
     1ba:	2905      	cmp	r1, #5
     1bc:	d1db      	bne.n	176 <ADC_Handler+0x46>
     1be:	7723      	strb	r3, [r4, #28]
     1c0:	7ee3      	ldrb	r3, [r4, #27]
     1c2:	4213      	tst	r3, r2
     1c4:	d0d7      	beq.n	176 <ADC_Handler+0x46>
     1c6:	7ea3      	ldrb	r3, [r4, #26]
     1c8:	4213      	tst	r3, r2
     1ca:	d0d4      	beq.n	176 <ADC_Handler+0x46>
     1cc:	0020      	movs	r0, r4
     1ce:	68a3      	ldr	r3, [r4, #8]
     1d0:	4798      	blx	r3
     1d2:	e7d0      	b.n	176 <ADC_Handler+0x46>
     1d4:	200000ac 	.word	0x200000ac
     1d8:	00000115 	.word	0x00000115

000001dc <_i2c_master_wait_for_sync>:
     1dc:	2307      	movs	r3, #7
     1de:	6801      	ldr	r1, [r0, #0]
     1e0:	69ca      	ldr	r2, [r1, #28]
     1e2:	421a      	tst	r2, r3
     1e4:	d1fc      	bne.n	1e0 <_i2c_master_wait_for_sync+0x4>
     1e6:	4770      	bx	lr

000001e8 <i2c_master_init>:
     1e8:	b5f0      	push	{r4, r5, r6, r7, lr}
     1ea:	0006      	movs	r6, r0
     1ec:	b08d      	sub	sp, #52	; 0x34
     1ee:	6031      	str	r1, [r6, #0]
     1f0:	0008      	movs	r0, r1
     1f2:	4b97      	ldr	r3, [pc, #604]	; (450 <i2c_master_init+0x268>)
     1f4:	0017      	movs	r7, r2
     1f6:	000d      	movs	r5, r1
     1f8:	4798      	blx	r3
     1fa:	4a96      	ldr	r2, [pc, #600]	; (454 <i2c_master_init+0x26c>)
     1fc:	2805      	cmp	r0, #5
     1fe:	d100      	bne.n	202 <i2c_master_init+0x1a>
     200:	e115      	b.n	42e <i2c_master_init+0x246>
     202:	2301      	movs	r3, #1
     204:	4083      	lsls	r3, r0
     206:	0004      	movs	r4, r0
     208:	69d1      	ldr	r1, [r2, #28]
     20a:	3412      	adds	r4, #18
     20c:	430b      	orrs	r3, r1
     20e:	61d3      	str	r3, [r2, #28]
     210:	7b3b      	ldrb	r3, [r7, #12]
     212:	aa0a      	add	r2, sp, #40	; 0x28
     214:	b2e4      	uxtb	r4, r4
     216:	7013      	strb	r3, [r2, #0]
     218:	0011      	movs	r1, r2
     21a:	0020      	movs	r0, r4
     21c:	4b8e      	ldr	r3, [pc, #568]	; (458 <i2c_master_init+0x270>)
     21e:	4798      	blx	r3
     220:	0020      	movs	r0, r4
     222:	4b8e      	ldr	r3, [pc, #568]	; (45c <i2c_master_init+0x274>)
     224:	4798      	blx	r3
     226:	4b8e      	ldr	r3, [pc, #568]	; (460 <i2c_master_init+0x278>)
     228:	7b38      	ldrb	r0, [r7, #12]
     22a:	2100      	movs	r1, #0
     22c:	4798      	blx	r3
     22e:	682b      	ldr	r3, [r5, #0]
     230:	201c      	movs	r0, #28
     232:	079b      	lsls	r3, r3, #30
     234:	d500      	bpl.n	238 <i2c_master_init+0x50>
     236:	e0f8      	b.n	42a <i2c_master_init+0x242>
     238:	2301      	movs	r3, #1
     23a:	682c      	ldr	r4, [r5, #0]
     23c:	3817      	subs	r0, #23
     23e:	401c      	ands	r4, r3
     240:	d000      	beq.n	244 <i2c_master_init+0x5c>
     242:	e0f2      	b.n	42a <i2c_master_init+0x242>
     244:	3313      	adds	r3, #19
     246:	602b      	str	r3, [r5, #0]
     248:	6833      	ldr	r3, [r6, #0]
     24a:	ad0b      	add	r5, sp, #44	; 0x2c
     24c:	9301      	str	r3, [sp, #4]
     24e:	0018      	movs	r0, r3
     250:	4b7f      	ldr	r3, [pc, #508]	; (450 <i2c_master_init+0x268>)
     252:	4798      	blx	r3
     254:	2380      	movs	r3, #128	; 0x80
     256:	9002      	str	r0, [sp, #8]
     258:	69f8      	ldr	r0, [r7, #28]
     25a:	702b      	strb	r3, [r5, #0]
     25c:	3b7f      	subs	r3, #127	; 0x7f
     25e:	706c      	strb	r4, [r5, #1]
     260:	70ec      	strb	r4, [r5, #3]
     262:	70ab      	strb	r3, [r5, #2]
     264:	6a3c      	ldr	r4, [r7, #32]
     266:	2800      	cmp	r0, #0
     268:	d103      	bne.n	272 <i2c_master_init+0x8a>
     26a:	0001      	movs	r1, r0
     26c:	4b7d      	ldr	r3, [pc, #500]	; (464 <i2c_master_init+0x27c>)
     26e:	9801      	ldr	r0, [sp, #4]
     270:	4798      	blx	r3
     272:	2302      	movs	r3, #2
     274:	7028      	strb	r0, [r5, #0]
     276:	0c00      	lsrs	r0, r0, #16
     278:	706b      	strb	r3, [r5, #1]
     27a:	b2c0      	uxtb	r0, r0
     27c:	0029      	movs	r1, r5
     27e:	4b7a      	ldr	r3, [pc, #488]	; (468 <i2c_master_init+0x280>)
     280:	4798      	blx	r3
     282:	2c00      	cmp	r4, #0
     284:	d104      	bne.n	290 <i2c_master_init+0xa8>
     286:	2101      	movs	r1, #1
     288:	9801      	ldr	r0, [sp, #4]
     28a:	4b76      	ldr	r3, [pc, #472]	; (464 <i2c_master_init+0x27c>)
     28c:	4798      	blx	r3
     28e:	0004      	movs	r4, r0
     290:	2302      	movs	r3, #2
     292:	702c      	strb	r4, [r5, #0]
     294:	0c24      	lsrs	r4, r4, #16
     296:	706b      	strb	r3, [r5, #1]
     298:	b2e0      	uxtb	r0, r4
     29a:	4b73      	ldr	r3, [pc, #460]	; (468 <i2c_master_init+0x280>)
     29c:	0029      	movs	r1, r5
     29e:	4798      	blx	r3
     2a0:	8abb      	ldrh	r3, [r7, #20]
     2a2:	80f3      	strh	r3, [r6, #6]
     2a4:	8afb      	ldrh	r3, [r7, #22]
     2a6:	8133      	strh	r3, [r6, #8]
     2a8:	7e3a      	ldrb	r2, [r7, #24]
     2aa:	2380      	movs	r3, #128	; 0x80
     2ac:	2a00      	cmp	r2, #0
     2ae:	d106      	bne.n	2be <i2c_master_init+0xd6>
     2b0:	4b6e      	ldr	r3, [pc, #440]	; (46c <i2c_master_init+0x284>)
     2b2:	3202      	adds	r2, #2
     2b4:	789b      	ldrb	r3, [r3, #2]
     2b6:	4013      	ands	r3, r2
     2b8:	1e5e      	subs	r6, r3, #1
     2ba:	41b3      	sbcs	r3, r6
     2bc:	01db      	lsls	r3, r3, #7
     2be:	68ba      	ldr	r2, [r7, #8]
     2c0:	693e      	ldr	r6, [r7, #16]
     2c2:	4316      	orrs	r6, r2
     2c4:	431e      	orrs	r6, r3
     2c6:	1d7b      	adds	r3, r7, #5
     2c8:	7fdb      	ldrb	r3, [r3, #31]
     2ca:	2b00      	cmp	r3, #0
     2cc:	d002      	beq.n	2d4 <i2c_master_init+0xec>
     2ce:	2380      	movs	r3, #128	; 0x80
     2d0:	05db      	lsls	r3, r3, #23
     2d2:	431e      	orrs	r6, r3
     2d4:	6abb      	ldr	r3, [r7, #40]	; 0x28
     2d6:	431e      	orrs	r6, r3
     2d8:	003b      	movs	r3, r7
     2da:	332c      	adds	r3, #44	; 0x2c
     2dc:	781b      	ldrb	r3, [r3, #0]
     2de:	2b00      	cmp	r3, #0
     2e0:	d103      	bne.n	2ea <i2c_master_init+0x102>
     2e2:	2380      	movs	r3, #128	; 0x80
     2e4:	049b      	lsls	r3, r3, #18
     2e6:	429a      	cmp	r2, r3
     2e8:	d102      	bne.n	2f0 <i2c_master_init+0x108>
     2ea:	2380      	movs	r3, #128	; 0x80
     2ec:	051b      	lsls	r3, r3, #20
     2ee:	431e      	orrs	r6, r3
     2f0:	003b      	movs	r3, r7
     2f2:	332d      	adds	r3, #45	; 0x2d
     2f4:	781b      	ldrb	r3, [r3, #0]
     2f6:	2b00      	cmp	r3, #0
     2f8:	d002      	beq.n	300 <i2c_master_init+0x118>
     2fa:	2380      	movs	r3, #128	; 0x80
     2fc:	041b      	lsls	r3, r3, #16
     2fe:	431e      	orrs	r6, r3
     300:	003b      	movs	r3, r7
     302:	332e      	adds	r3, #46	; 0x2e
     304:	781b      	ldrb	r3, [r3, #0]
     306:	2b00      	cmp	r3, #0
     308:	d002      	beq.n	310 <i2c_master_init+0x128>
     30a:	2380      	movs	r3, #128	; 0x80
     30c:	03db      	lsls	r3, r3, #15
     30e:	431e      	orrs	r6, r3
     310:	9b01      	ldr	r3, [sp, #4]
     312:	9a01      	ldr	r2, [sp, #4]
     314:	681b      	ldr	r3, [r3, #0]
     316:	431e      	orrs	r6, r3
     318:	9b01      	ldr	r3, [sp, #4]
     31a:	601e      	str	r6, [r3, #0]
     31c:	2380      	movs	r3, #128	; 0x80
     31e:	005b      	lsls	r3, r3, #1
     320:	6053      	str	r3, [r2, #4]
     322:	9b02      	ldr	r3, [sp, #8]
     324:	26fa      	movs	r6, #250	; 0xfa
     326:	3312      	adds	r3, #18
     328:	b2d8      	uxtb	r0, r3
     32a:	4b51      	ldr	r3, [pc, #324]	; (470 <i2c_master_init+0x288>)
     32c:	4798      	blx	r3
     32e:	683b      	ldr	r3, [r7, #0]
     330:	00b6      	lsls	r6, r6, #2
     332:	435e      	muls	r6, r3
     334:	687b      	ldr	r3, [r7, #4]
     336:	9006      	str	r0, [sp, #24]
     338:	9307      	str	r3, [sp, #28]
     33a:	4b4e      	ldr	r3, [pc, #312]	; (474 <i2c_master_init+0x28c>)
     33c:	4798      	blx	r3
     33e:	4b4d      	ldr	r3, [pc, #308]	; (474 <i2c_master_init+0x28c>)
     340:	9002      	str	r0, [sp, #8]
     342:	9103      	str	r1, [sp, #12]
     344:	0070      	lsls	r0, r6, #1
     346:	4798      	blx	r3
     348:	9004      	str	r0, [sp, #16]
     34a:	9105      	str	r1, [sp, #20]
     34c:	4b49      	ldr	r3, [pc, #292]	; (474 <i2c_master_init+0x28c>)
     34e:	8e38      	ldrh	r0, [r7, #48]	; 0x30
     350:	4798      	blx	r3
     352:	4c49      	ldr	r4, [pc, #292]	; (478 <i2c_master_init+0x290>)
     354:	9008      	str	r0, [sp, #32]
     356:	9109      	str	r1, [sp, #36]	; 0x24
     358:	9802      	ldr	r0, [sp, #8]
     35a:	9903      	ldr	r1, [sp, #12]
     35c:	4a47      	ldr	r2, [pc, #284]	; (47c <i2c_master_init+0x294>)
     35e:	4b48      	ldr	r3, [pc, #288]	; (480 <i2c_master_init+0x298>)
     360:	47a0      	blx	r4
     362:	0002      	movs	r2, r0
     364:	000b      	movs	r3, r1
     366:	9808      	ldr	r0, [sp, #32]
     368:	9909      	ldr	r1, [sp, #36]	; 0x24
     36a:	47a0      	blx	r4
     36c:	2200      	movs	r2, #0
     36e:	4c45      	ldr	r4, [pc, #276]	; (484 <i2c_master_init+0x29c>)
     370:	4b45      	ldr	r3, [pc, #276]	; (488 <i2c_master_init+0x2a0>)
     372:	47a0      	blx	r4
     374:	4b3f      	ldr	r3, [pc, #252]	; (474 <i2c_master_init+0x28c>)
     376:	0004      	movs	r4, r0
     378:	0030      	movs	r0, r6
     37a:	000d      	movs	r5, r1
     37c:	4798      	blx	r3
     37e:	0002      	movs	r2, r0
     380:	000b      	movs	r3, r1
     382:	0020      	movs	r0, r4
     384:	0029      	movs	r1, r5
     386:	4c3c      	ldr	r4, [pc, #240]	; (478 <i2c_master_init+0x290>)
     388:	47a0      	blx	r4
     38a:	4d40      	ldr	r5, [pc, #256]	; (48c <i2c_master_init+0x2a4>)
     38c:	0002      	movs	r2, r0
     38e:	000b      	movs	r3, r1
     390:	9802      	ldr	r0, [sp, #8]
     392:	9903      	ldr	r1, [sp, #12]
     394:	47a8      	blx	r5
     396:	9a04      	ldr	r2, [sp, #16]
     398:	9b05      	ldr	r3, [sp, #20]
     39a:	4c3a      	ldr	r4, [pc, #232]	; (484 <i2c_master_init+0x29c>)
     39c:	47a0      	blx	r4
     39e:	2200      	movs	r2, #0
     3a0:	4b3b      	ldr	r3, [pc, #236]	; (490 <i2c_master_init+0x2a8>)
     3a2:	47a8      	blx	r5
     3a4:	9a04      	ldr	r2, [sp, #16]
     3a6:	9b05      	ldr	r3, [sp, #20]
     3a8:	4c3a      	ldr	r4, [pc, #232]	; (494 <i2c_master_init+0x2ac>)
     3aa:	47a0      	blx	r4
     3ac:	4b3a      	ldr	r3, [pc, #232]	; (498 <i2c_master_init+0x2b0>)
     3ae:	4798      	blx	r3
     3b0:	2380      	movs	r3, #128	; 0x80
     3b2:	9004      	str	r0, [sp, #16]
     3b4:	68ba      	ldr	r2, [r7, #8]
     3b6:	049b      	lsls	r3, r3, #18
     3b8:	429a      	cmp	r2, r3
     3ba:	d145      	bne.n	448 <i2c_master_init+0x260>
     3bc:	23fa      	movs	r3, #250	; 0xfa
     3be:	9c07      	ldr	r4, [sp, #28]
     3c0:	009b      	lsls	r3, r3, #2
     3c2:	435c      	muls	r4, r3
     3c4:	9a02      	ldr	r2, [sp, #8]
     3c6:	9b03      	ldr	r3, [sp, #12]
     3c8:	4e2e      	ldr	r6, [pc, #184]	; (484 <i2c_master_init+0x29c>)
     3ca:	0010      	movs	r0, r2
     3cc:	0019      	movs	r1, r3
     3ce:	47b0      	blx	r6
     3d0:	4b28      	ldr	r3, [pc, #160]	; (474 <i2c_master_init+0x28c>)
     3d2:	9002      	str	r0, [sp, #8]
     3d4:	9103      	str	r1, [sp, #12]
     3d6:	0020      	movs	r0, r4
     3d8:	4798      	blx	r3
     3da:	2200      	movs	r2, #0
     3dc:	4b2f      	ldr	r3, [pc, #188]	; (49c <i2c_master_init+0x2b4>)
     3de:	4e26      	ldr	r6, [pc, #152]	; (478 <i2c_master_init+0x290>)
     3e0:	47b0      	blx	r6
     3e2:	4e2c      	ldr	r6, [pc, #176]	; (494 <i2c_master_init+0x2ac>)
     3e4:	0002      	movs	r2, r0
     3e6:	000b      	movs	r3, r1
     3e8:	9802      	ldr	r0, [sp, #8]
     3ea:	9903      	ldr	r1, [sp, #12]
     3ec:	47b0      	blx	r6
     3ee:	2200      	movs	r2, #0
     3f0:	4b27      	ldr	r3, [pc, #156]	; (490 <i2c_master_init+0x2a8>)
     3f2:	47a8      	blx	r5
     3f4:	4b28      	ldr	r3, [pc, #160]	; (498 <i2c_master_init+0x2b0>)
     3f6:	4798      	blx	r3
     3f8:	4b29      	ldr	r3, [pc, #164]	; (4a0 <i2c_master_init+0x2b8>)
     3fa:	1e06      	subs	r6, r0, #0
     3fc:	d01d      	beq.n	43a <i2c_master_init+0x252>
     3fe:	0021      	movs	r1, r4
     400:	9806      	ldr	r0, [sp, #24]
     402:	4798      	blx	r3
     404:	3802      	subs	r0, #2
     406:	1b83      	subs	r3, r0, r6
     408:	9a04      	ldr	r2, [sp, #16]
     40a:	2040      	movs	r0, #64	; 0x40
     40c:	2aff      	cmp	r2, #255	; 0xff
     40e:	d80c      	bhi.n	42a <i2c_master_init+0x242>
     410:	2bff      	cmp	r3, #255	; 0xff
     412:	d80a      	bhi.n	42a <i2c_master_init+0x242>
     414:	20ff      	movs	r0, #255	; 0xff
     416:	0015      	movs	r5, r2
     418:	0400      	lsls	r0, r0, #16
     41a:	041b      	lsls	r3, r3, #16
     41c:	4003      	ands	r3, r0
     41e:	2000      	movs	r0, #0
     420:	0636      	lsls	r6, r6, #24
     422:	4335      	orrs	r5, r6
     424:	431d      	orrs	r5, r3
     426:	9b01      	ldr	r3, [sp, #4]
     428:	60dd      	str	r5, [r3, #12]
     42a:	b00d      	add	sp, #52	; 0x34
     42c:	bdf0      	pop	{r4, r5, r6, r7, pc}
     42e:	2302      	movs	r3, #2
     430:	6a11      	ldr	r1, [r2, #32]
     432:	2418      	movs	r4, #24
     434:	430b      	orrs	r3, r1
     436:	6213      	str	r3, [r2, #32]
     438:	e6ea      	b.n	210 <i2c_master_init+0x28>
     43a:	0061      	lsls	r1, r4, #1
     43c:	9a06      	ldr	r2, [sp, #24]
     43e:	1e48      	subs	r0, r1, #1
     440:	1880      	adds	r0, r0, r2
     442:	4798      	blx	r3
     444:	1e43      	subs	r3, r0, #1
     446:	e7df      	b.n	408 <i2c_master_init+0x220>
     448:	2600      	movs	r6, #0
     44a:	0033      	movs	r3, r6
     44c:	e7dc      	b.n	408 <i2c_master_init+0x220>
     44e:	46c0      	nop			; (mov r8, r8)
     450:	00000e5d 	.word	0x00000e5d
     454:	40000400 	.word	0x40000400
     458:	00001301 	.word	0x00001301
     45c:	000012a1 	.word	0x000012a1
     460:	00000cc1 	.word	0x00000cc1
     464:	00000d05 	.word	0x00000d05
     468:	000013d9 	.word	0x000013d9
     46c:	41002000 	.word	0x41002000
     470:	00001325 	.word	0x00001325
     474:	00003211 	.word	0x00003211
     478:	000025f9 	.word	0x000025f9
     47c:	e826d695 	.word	0xe826d695
     480:	3e112e0b 	.word	0x3e112e0b
     484:	00001971 	.word	0x00001971
     488:	40240000 	.word	0x40240000
     48c:	00002af9 	.word	0x00002af9
     490:	3ff00000 	.word	0x3ff00000
     494:	00001f91 	.word	0x00001f91
     498:	00003125 	.word	0x00003125
     49c:	40080000 	.word	0x40080000
     4a0:	000015c5 	.word	0x000015c5

000004a4 <_i2c_master_address_response>:
     4a4:	2202      	movs	r2, #2
     4a6:	6803      	ldr	r3, [r0, #0]
     4a8:	7e19      	ldrb	r1, [r3, #24]
     4aa:	4211      	tst	r1, r2
     4ac:	d006      	beq.n	4bc <_i2c_master_address_response+0x18>
     4ae:	761a      	strb	r2, [r3, #24]
     4b0:	8b5b      	ldrh	r3, [r3, #26]
     4b2:	2041      	movs	r0, #65	; 0x41
     4b4:	4213      	tst	r3, r2
     4b6:	d10a      	bne.n	4ce <_i2c_master_address_response+0x2a>
     4b8:	2000      	movs	r0, #0
     4ba:	e008      	b.n	4ce <_i2c_master_address_response+0x2a>
     4bc:	8b5a      	ldrh	r2, [r3, #26]
     4be:	0752      	lsls	r2, r2, #29
     4c0:	d5fa      	bpl.n	4b8 <_i2c_master_address_response+0x14>
     4c2:	22c0      	movs	r2, #192	; 0xc0
     4c4:	2018      	movs	r0, #24
     4c6:	6859      	ldr	r1, [r3, #4]
     4c8:	0292      	lsls	r2, r2, #10
     4ca:	430a      	orrs	r2, r1
     4cc:	605a      	str	r2, [r3, #4]
     4ce:	4770      	bx	lr

000004d0 <_i2c_master_wait_for_bus>:
     4d0:	b570      	push	{r4, r5, r6, lr}
     4d2:	2200      	movs	r2, #0
     4d4:	2601      	movs	r6, #1
     4d6:	2402      	movs	r4, #2
     4d8:	6801      	ldr	r1, [r0, #0]
     4da:	7e0b      	ldrb	r3, [r1, #24]
     4dc:	4033      	ands	r3, r6
     4de:	d102      	bne.n	4e6 <_i2c_master_wait_for_bus+0x16>
     4e0:	7e0d      	ldrb	r5, [r1, #24]
     4e2:	4225      	tst	r5, r4
     4e4:	d001      	beq.n	4ea <_i2c_master_wait_for_bus+0x1a>
     4e6:	2000      	movs	r0, #0
     4e8:	e005      	b.n	4f6 <_i2c_master_wait_for_bus+0x26>
     4ea:	3201      	adds	r2, #1
     4ec:	8903      	ldrh	r3, [r0, #8]
     4ee:	b292      	uxth	r2, r2
     4f0:	4293      	cmp	r3, r2
     4f2:	d8f2      	bhi.n	4da <_i2c_master_wait_for_bus+0xa>
     4f4:	2012      	movs	r0, #18
     4f6:	bd70      	pop	{r4, r5, r6, pc}

000004f8 <_i2c_master_send_hs_master_code>:
     4f8:	2380      	movs	r3, #128	; 0x80
     4fa:	b510      	push	{r4, lr}
     4fc:	6804      	ldr	r4, [r0, #0]
     4fe:	02db      	lsls	r3, r3, #11
     500:	6862      	ldr	r2, [r4, #4]
     502:	4313      	orrs	r3, r2
     504:	6063      	str	r3, [r4, #4]
     506:	6261      	str	r1, [r4, #36]	; 0x24
     508:	4b02      	ldr	r3, [pc, #8]	; (514 <_i2c_master_send_hs_master_code+0x1c>)
     50a:	4798      	blx	r3
     50c:	2301      	movs	r3, #1
     50e:	7623      	strb	r3, [r4, #24]
     510:	bd10      	pop	{r4, pc}
     512:	46c0      	nop			; (mov r8, r8)
     514:	000004d1 	.word	0x000004d1

00000518 <_i2c_master_read_packet>:
     518:	b5f0      	push	{r4, r5, r6, r7, lr}
     51a:	6804      	ldr	r4, [r0, #0]
     51c:	b085      	sub	sp, #20
     51e:	6823      	ldr	r3, [r4, #0]
     520:	9001      	str	r0, [sp, #4]
     522:	011b      	lsls	r3, r3, #4
     524:	0fdb      	lsrs	r3, r3, #31
     526:	884d      	ldrh	r5, [r1, #2]
     528:	9303      	str	r3, [sp, #12]
     52a:	7a4b      	ldrb	r3, [r1, #9]
     52c:	000e      	movs	r6, r1
     52e:	2b00      	cmp	r3, #0
     530:	d002      	beq.n	538 <_i2c_master_read_packet+0x20>
     532:	7a89      	ldrb	r1, [r1, #10]
     534:	4b47      	ldr	r3, [pc, #284]	; (654 <_i2c_master_read_packet+0x13c>)
     536:	4798      	blx	r3
     538:	6863      	ldr	r3, [r4, #4]
     53a:	4f47      	ldr	r7, [pc, #284]	; (658 <_i2c_master_read_packet+0x140>)
     53c:	403b      	ands	r3, r7
     53e:	6063      	str	r3, [r4, #4]
     540:	7a72      	ldrb	r2, [r6, #9]
     542:	8833      	ldrh	r3, [r6, #0]
     544:	7a31      	ldrb	r1, [r6, #8]
     546:	0392      	lsls	r2, r2, #14
     548:	005b      	lsls	r3, r3, #1
     54a:	4313      	orrs	r3, r2
     54c:	2201      	movs	r2, #1
     54e:	2900      	cmp	r1, #0
     550:	d019      	beq.n	586 <_i2c_master_read_packet+0x6e>
     552:	2280      	movs	r2, #128	; 0x80
     554:	0212      	lsls	r2, r2, #8
     556:	4313      	orrs	r3, r2
     558:	6263      	str	r3, [r4, #36]	; 0x24
     55a:	9801      	ldr	r0, [sp, #4]
     55c:	4b3f      	ldr	r3, [pc, #252]	; (65c <_i2c_master_read_packet+0x144>)
     55e:	4798      	blx	r3
     560:	6863      	ldr	r3, [r4, #4]
     562:	403b      	ands	r3, r7
     564:	6063      	str	r3, [r4, #4]
     566:	2800      	cmp	r0, #0
     568:	d163      	bne.n	632 <_i2c_master_read_packet+0x11a>
     56a:	9801      	ldr	r0, [sp, #4]
     56c:	4b3c      	ldr	r3, [pc, #240]	; (660 <_i2c_master_read_packet+0x148>)
     56e:	4798      	blx	r3
     570:	2800      	cmp	r0, #0
     572:	d15e      	bne.n	632 <_i2c_master_read_packet+0x11a>
     574:	2378      	movs	r3, #120	; 0x78
     576:	8832      	ldrh	r2, [r6, #0]
     578:	7a71      	ldrb	r1, [r6, #9]
     57a:	0a12      	lsrs	r2, r2, #8
     57c:	4313      	orrs	r3, r2
     57e:	2201      	movs	r2, #1
     580:	0389      	lsls	r1, r1, #14
     582:	005b      	lsls	r3, r3, #1
     584:	430a      	orrs	r2, r1
     586:	4313      	orrs	r3, r2
     588:	6263      	str	r3, [r4, #36]	; 0x24
     58a:	9801      	ldr	r0, [sp, #4]
     58c:	4b33      	ldr	r3, [pc, #204]	; (65c <_i2c_master_read_packet+0x144>)
     58e:	4798      	blx	r3
     590:	9b03      	ldr	r3, [sp, #12]
     592:	0002      	movs	r2, r0
     594:	2b00      	cmp	r3, #0
     596:	d017      	beq.n	5c8 <_i2c_master_read_packet+0xb0>
     598:	8873      	ldrh	r3, [r6, #2]
     59a:	2b01      	cmp	r3, #1
     59c:	d114      	bne.n	5c8 <_i2c_master_read_packet+0xb0>
     59e:	2380      	movs	r3, #128	; 0x80
     5a0:	6861      	ldr	r1, [r4, #4]
     5a2:	02db      	lsls	r3, r3, #11
     5a4:	430b      	orrs	r3, r1
     5a6:	6063      	str	r3, [r4, #4]
     5a8:	2a00      	cmp	r2, #0
     5aa:	d142      	bne.n	632 <_i2c_master_read_packet+0x11a>
     5ac:	9801      	ldr	r0, [sp, #4]
     5ae:	4b2c      	ldr	r3, [pc, #176]	; (660 <_i2c_master_read_packet+0x148>)
     5b0:	4798      	blx	r3
     5b2:	2800      	cmp	r0, #0
     5b4:	d13d      	bne.n	632 <_i2c_master_read_packet+0x11a>
     5b6:	3d01      	subs	r5, #1
     5b8:	b2af      	uxth	r7, r5
     5ba:	0005      	movs	r5, r0
     5bc:	4b29      	ldr	r3, [pc, #164]	; (664 <_i2c_master_read_packet+0x14c>)
     5be:	429f      	cmp	r7, r3
     5c0:	d106      	bne.n	5d0 <_i2c_master_read_packet+0xb8>
     5c2:	9502      	str	r5, [sp, #8]
     5c4:	2500      	movs	r5, #0
     5c6:	e020      	b.n	60a <_i2c_master_read_packet+0xf2>
     5c8:	6863      	ldr	r3, [r4, #4]
     5ca:	401f      	ands	r7, r3
     5cc:	6067      	str	r7, [r4, #4]
     5ce:	e7eb      	b.n	5a8 <_i2c_master_read_packet+0x90>
     5d0:	2220      	movs	r2, #32
     5d2:	8b63      	ldrh	r3, [r4, #26]
     5d4:	4213      	tst	r3, r2
     5d6:	d03a      	beq.n	64e <_i2c_master_read_packet+0x136>
     5d8:	9b01      	ldr	r3, [sp, #4]
     5da:	7adb      	ldrb	r3, [r3, #11]
     5dc:	2b00      	cmp	r3, #0
     5de:	d004      	beq.n	5ea <_i2c_master_read_packet+0xd2>
     5e0:	9b03      	ldr	r3, [sp, #12]
     5e2:	2b00      	cmp	r3, #0
     5e4:	d127      	bne.n	636 <_i2c_master_read_packet+0x11e>
     5e6:	2f00      	cmp	r7, #0
     5e8:	d027      	beq.n	63a <_i2c_master_read_packet+0x122>
     5ea:	9801      	ldr	r0, [sp, #4]
     5ec:	4b1e      	ldr	r3, [pc, #120]	; (668 <_i2c_master_read_packet+0x150>)
     5ee:	4798      	blx	r3
     5f0:	1c6b      	adds	r3, r5, #1
     5f2:	b29b      	uxth	r3, r3
     5f4:	9302      	str	r3, [sp, #8]
     5f6:	0023      	movs	r3, r4
     5f8:	3328      	adds	r3, #40	; 0x28
     5fa:	781b      	ldrb	r3, [r3, #0]
     5fc:	6872      	ldr	r2, [r6, #4]
     5fe:	9801      	ldr	r0, [sp, #4]
     600:	5553      	strb	r3, [r2, r5]
     602:	4b16      	ldr	r3, [pc, #88]	; (65c <_i2c_master_read_packet+0x144>)
     604:	4798      	blx	r3
     606:	1e05      	subs	r5, r0, #0
     608:	d01d      	beq.n	646 <_i2c_master_read_packet+0x12e>
     60a:	9b01      	ldr	r3, [sp, #4]
     60c:	4f16      	ldr	r7, [pc, #88]	; (668 <_i2c_master_read_packet+0x150>)
     60e:	7a9b      	ldrb	r3, [r3, #10]
     610:	2b00      	cmp	r3, #0
     612:	d006      	beq.n	622 <_i2c_master_read_packet+0x10a>
     614:	9801      	ldr	r0, [sp, #4]
     616:	47b8      	blx	r7
     618:	23c0      	movs	r3, #192	; 0xc0
     61a:	6862      	ldr	r2, [r4, #4]
     61c:	029b      	lsls	r3, r3, #10
     61e:	4313      	orrs	r3, r2
     620:	6063      	str	r3, [r4, #4]
     622:	9801      	ldr	r0, [sp, #4]
     624:	47b8      	blx	r7
     626:	0028      	movs	r0, r5
     628:	3428      	adds	r4, #40	; 0x28
     62a:	7822      	ldrb	r2, [r4, #0]
     62c:	6873      	ldr	r3, [r6, #4]
     62e:	9902      	ldr	r1, [sp, #8]
     630:	545a      	strb	r2, [r3, r1]
     632:	b005      	add	sp, #20
     634:	bdf0      	pop	{r4, r5, r6, r7, pc}
     636:	2f01      	cmp	r7, #1
     638:	d1d7      	bne.n	5ea <_i2c_master_read_packet+0xd2>
     63a:	2280      	movs	r2, #128	; 0x80
     63c:	6863      	ldr	r3, [r4, #4]
     63e:	02d2      	lsls	r2, r2, #11
     640:	4313      	orrs	r3, r2
     642:	6063      	str	r3, [r4, #4]
     644:	9502      	str	r5, [sp, #8]
     646:	3f01      	subs	r7, #1
     648:	b2bf      	uxth	r7, r7
     64a:	9d02      	ldr	r5, [sp, #8]
     64c:	e7b6      	b.n	5bc <_i2c_master_read_packet+0xa4>
     64e:	2041      	movs	r0, #65	; 0x41
     650:	e7ef      	b.n	632 <_i2c_master_read_packet+0x11a>
     652:	46c0      	nop			; (mov r8, r8)
     654:	000004f9 	.word	0x000004f9
     658:	fffbffff 	.word	0xfffbffff
     65c:	000004d1 	.word	0x000004d1
     660:	000004a5 	.word	0x000004a5
     664:	0000ffff 	.word	0x0000ffff
     668:	000001dd 	.word	0x000001dd

0000066c <_i2c_master_write_packet>:
     66c:	b5f7      	push	{r0, r1, r2, r4, r5, r6, r7, lr}
     66e:	000f      	movs	r7, r1
     670:	884b      	ldrh	r3, [r1, #2]
     672:	0005      	movs	r5, r0
     674:	9301      	str	r3, [sp, #4]
     676:	4b2a      	ldr	r3, [pc, #168]	; (720 <_i2c_master_write_packet+0xb4>)
     678:	6804      	ldr	r4, [r0, #0]
     67a:	4798      	blx	r3
     67c:	7a7b      	ldrb	r3, [r7, #9]
     67e:	2b00      	cmp	r3, #0
     680:	d003      	beq.n	68a <_i2c_master_write_packet+0x1e>
     682:	7ab9      	ldrb	r1, [r7, #10]
     684:	0028      	movs	r0, r5
     686:	4b27      	ldr	r3, [pc, #156]	; (724 <_i2c_master_write_packet+0xb8>)
     688:	4798      	blx	r3
     68a:	6863      	ldr	r3, [r4, #4]
     68c:	4a26      	ldr	r2, [pc, #152]	; (728 <_i2c_master_write_packet+0xbc>)
     68e:	4013      	ands	r3, r2
     690:	6063      	str	r3, [r4, #4]
     692:	7a7a      	ldrb	r2, [r7, #9]
     694:	883b      	ldrh	r3, [r7, #0]
     696:	7a39      	ldrb	r1, [r7, #8]
     698:	005b      	lsls	r3, r3, #1
     69a:	0392      	lsls	r2, r2, #14
     69c:	4313      	orrs	r3, r2
     69e:	2900      	cmp	r1, #0
     6a0:	d002      	beq.n	6a8 <_i2c_master_write_packet+0x3c>
     6a2:	2280      	movs	r2, #128	; 0x80
     6a4:	0212      	lsls	r2, r2, #8
     6a6:	4313      	orrs	r3, r2
     6a8:	6263      	str	r3, [r4, #36]	; 0x24
     6aa:	0028      	movs	r0, r5
     6ac:	4b1f      	ldr	r3, [pc, #124]	; (72c <_i2c_master_write_packet+0xc0>)
     6ae:	4798      	blx	r3
     6b0:	1e06      	subs	r6, r0, #0
     6b2:	d115      	bne.n	6e0 <_i2c_master_write_packet+0x74>
     6b4:	0028      	movs	r0, r5
     6b6:	4b1e      	ldr	r3, [pc, #120]	; (730 <_i2c_master_write_packet+0xc4>)
     6b8:	4798      	blx	r3
     6ba:	1e06      	subs	r6, r0, #0
     6bc:	d110      	bne.n	6e0 <_i2c_master_write_packet+0x74>
     6be:	9000      	str	r0, [sp, #0]
     6c0:	9b00      	ldr	r3, [sp, #0]
     6c2:	9a01      	ldr	r2, [sp, #4]
     6c4:	4293      	cmp	r3, r2
     6c6:	d10d      	bne.n	6e4 <_i2c_master_write_packet+0x78>
     6c8:	2600      	movs	r6, #0
     6ca:	7aab      	ldrb	r3, [r5, #10]
     6cc:	2b00      	cmp	r3, #0
     6ce:	d007      	beq.n	6e0 <_i2c_master_write_packet+0x74>
     6d0:	4b13      	ldr	r3, [pc, #76]	; (720 <_i2c_master_write_packet+0xb4>)
     6d2:	0028      	movs	r0, r5
     6d4:	4798      	blx	r3
     6d6:	23c0      	movs	r3, #192	; 0xc0
     6d8:	6862      	ldr	r2, [r4, #4]
     6da:	029b      	lsls	r3, r3, #10
     6dc:	4313      	orrs	r3, r2
     6de:	6063      	str	r3, [r4, #4]
     6e0:	0030      	movs	r0, r6
     6e2:	bdfe      	pop	{r1, r2, r3, r4, r5, r6, r7, pc}
     6e4:	2220      	movs	r2, #32
     6e6:	8b63      	ldrh	r3, [r4, #26]
     6e8:	4213      	tst	r3, r2
     6ea:	d016      	beq.n	71a <_i2c_master_write_packet+0xae>
     6ec:	0028      	movs	r0, r5
     6ee:	4b0c      	ldr	r3, [pc, #48]	; (720 <_i2c_master_write_packet+0xb4>)
     6f0:	4798      	blx	r3
     6f2:	687b      	ldr	r3, [r7, #4]
     6f4:	9a00      	ldr	r2, [sp, #0]
     6f6:	0028      	movs	r0, r5
     6f8:	5c9a      	ldrb	r2, [r3, r2]
     6fa:	0023      	movs	r3, r4
     6fc:	3328      	adds	r3, #40	; 0x28
     6fe:	701a      	strb	r2, [r3, #0]
     700:	4b0a      	ldr	r3, [pc, #40]	; (72c <_i2c_master_write_packet+0xc0>)
     702:	4798      	blx	r3
     704:	1e06      	subs	r6, r0, #0
     706:	d1e0      	bne.n	6ca <_i2c_master_write_packet+0x5e>
     708:	9a00      	ldr	r2, [sp, #0]
     70a:	8b63      	ldrh	r3, [r4, #26]
     70c:	3201      	adds	r2, #1
     70e:	9200      	str	r2, [sp, #0]
     710:	2204      	movs	r2, #4
     712:	4213      	tst	r3, r2
     714:	d0d4      	beq.n	6c0 <_i2c_master_write_packet+0x54>
     716:	261e      	movs	r6, #30
     718:	e7d7      	b.n	6ca <_i2c_master_write_packet+0x5e>
     71a:	2641      	movs	r6, #65	; 0x41
     71c:	e7e0      	b.n	6e0 <_i2c_master_write_packet+0x74>
     71e:	46c0      	nop			; (mov r8, r8)
     720:	000001dd 	.word	0x000001dd
     724:	000004f9 	.word	0x000004f9
     728:	fffbffff 	.word	0xfffbffff
     72c:	000004d1 	.word	0x000004d1
     730:	000004a5 	.word	0x000004a5

00000734 <i2c_master_read_packet_wait>:
     734:	2301      	movs	r3, #1
     736:	b510      	push	{r4, lr}
     738:	7283      	strb	r3, [r0, #10]
     73a:	72c3      	strb	r3, [r0, #11]
     73c:	4b01      	ldr	r3, [pc, #4]	; (744 <i2c_master_read_packet_wait+0x10>)
     73e:	4798      	blx	r3
     740:	bd10      	pop	{r4, pc}
     742:	46c0      	nop			; (mov r8, r8)
     744:	00000519 	.word	0x00000519

00000748 <i2c_master_write_packet_wait>:
     748:	2301      	movs	r3, #1
     74a:	b510      	push	{r4, lr}
     74c:	7283      	strb	r3, [r0, #10]
     74e:	72c3      	strb	r3, [r0, #11]
     750:	4b01      	ldr	r3, [pc, #4]	; (758 <i2c_master_write_packet_wait+0x10>)
     752:	4798      	blx	r3
     754:	bd10      	pop	{r4, pc}
     756:	46c0      	nop			; (mov r8, r8)
     758:	0000066d 	.word	0x0000066d

0000075c <init_bmp280>:
     75c:	b570      	push	{r4, r5, r6, lr}
     75e:	b088      	sub	sp, #32
     760:	466b      	mov	r3, sp
     762:	1ddc      	adds	r4, r3, #7
     764:	2300      	movs	r3, #0
     766:	2276      	movs	r2, #118	; 0x76
     768:	7023      	strb	r3, [r4, #0]
     76a:	2101      	movs	r1, #1
     76c:	33d0      	adds	r3, #208	; 0xd0
     76e:	0020      	movs	r0, r4
     770:	4e2f      	ldr	r6, [pc, #188]	; (830 <init_bmp280+0xd4>)
     772:	47b0      	blx	r6
     774:	7823      	ldrb	r3, [r4, #0]
     776:	2b58      	cmp	r3, #88	; 0x58
     778:	d158      	bne.n	82c <init_bmp280+0xd0>
     77a:	4d2e      	ldr	r5, [pc, #184]	; (834 <init_bmp280+0xd8>)
     77c:	ac02      	add	r4, sp, #8
     77e:	8829      	ldrh	r1, [r5, #0]
     780:	2900      	cmp	r1, #0
     782:	d144      	bne.n	80e <init_bmp280+0xb2>
     784:	2218      	movs	r2, #24
     786:	4b2c      	ldr	r3, [pc, #176]	; (838 <init_bmp280+0xdc>)
     788:	0020      	movs	r0, r4
     78a:	4798      	blx	r3
     78c:	2388      	movs	r3, #136	; 0x88
     78e:	2276      	movs	r2, #118	; 0x76
     790:	2118      	movs	r1, #24
     792:	0020      	movs	r0, r4
     794:	47b0      	blx	r6
     796:	7862      	ldrb	r2, [r4, #1]
     798:	7823      	ldrb	r3, [r4, #0]
     79a:	0212      	lsls	r2, r2, #8
     79c:	4313      	orrs	r3, r2
     79e:	78e2      	ldrb	r2, [r4, #3]
     7a0:	802b      	strh	r3, [r5, #0]
     7a2:	78a3      	ldrb	r3, [r4, #2]
     7a4:	0212      	lsls	r2, r2, #8
     7a6:	4313      	orrs	r3, r2
     7a8:	7962      	ldrb	r2, [r4, #5]
     7aa:	806b      	strh	r3, [r5, #2]
     7ac:	7923      	ldrb	r3, [r4, #4]
     7ae:	0212      	lsls	r2, r2, #8
     7b0:	4313      	orrs	r3, r2
     7b2:	79e2      	ldrb	r2, [r4, #7]
     7b4:	80ab      	strh	r3, [r5, #4]
     7b6:	79a3      	ldrb	r3, [r4, #6]
     7b8:	0212      	lsls	r2, r2, #8
     7ba:	4313      	orrs	r3, r2
     7bc:	7a62      	ldrb	r2, [r4, #9]
     7be:	80eb      	strh	r3, [r5, #6]
     7c0:	7a23      	ldrb	r3, [r4, #8]
     7c2:	0212      	lsls	r2, r2, #8
     7c4:	4313      	orrs	r3, r2
     7c6:	7ae2      	ldrb	r2, [r4, #11]
     7c8:	812b      	strh	r3, [r5, #8]
     7ca:	7aa3      	ldrb	r3, [r4, #10]
     7cc:	0212      	lsls	r2, r2, #8
     7ce:	4313      	orrs	r3, r2
     7d0:	7b62      	ldrb	r2, [r4, #13]
     7d2:	816b      	strh	r3, [r5, #10]
     7d4:	7b23      	ldrb	r3, [r4, #12]
     7d6:	0212      	lsls	r2, r2, #8
     7d8:	4313      	orrs	r3, r2
     7da:	7be2      	ldrb	r2, [r4, #15]
     7dc:	81ab      	strh	r3, [r5, #12]
     7de:	7ba3      	ldrb	r3, [r4, #14]
     7e0:	0212      	lsls	r2, r2, #8
     7e2:	4313      	orrs	r3, r2
     7e4:	7c62      	ldrb	r2, [r4, #17]
     7e6:	81eb      	strh	r3, [r5, #14]
     7e8:	7c23      	ldrb	r3, [r4, #16]
     7ea:	0212      	lsls	r2, r2, #8
     7ec:	4313      	orrs	r3, r2
     7ee:	7ce2      	ldrb	r2, [r4, #19]
     7f0:	822b      	strh	r3, [r5, #16]
     7f2:	7ca3      	ldrb	r3, [r4, #18]
     7f4:	0212      	lsls	r2, r2, #8
     7f6:	4313      	orrs	r3, r2
     7f8:	7d62      	ldrb	r2, [r4, #21]
     7fa:	826b      	strh	r3, [r5, #18]
     7fc:	7d23      	ldrb	r3, [r4, #20]
     7fe:	0212      	lsls	r2, r2, #8
     800:	4313      	orrs	r3, r2
     802:	82ab      	strh	r3, [r5, #20]
     804:	7de2      	ldrb	r2, [r4, #23]
     806:	7da3      	ldrb	r3, [r4, #22]
     808:	0212      	lsls	r2, r2, #8
     80a:	4313      	orrs	r3, r2
     80c:	82eb      	strh	r3, [r5, #22]
     80e:	23a0      	movs	r3, #160	; 0xa0
     810:	2276      	movs	r2, #118	; 0x76
     812:	7023      	strb	r3, [r4, #0]
     814:	2101      	movs	r1, #1
     816:	3355      	adds	r3, #85	; 0x55
     818:	0020      	movs	r0, r4
     81a:	4d08      	ldr	r5, [pc, #32]	; (83c <init_bmp280+0xe0>)
     81c:	47a8      	blx	r5
     81e:	2325      	movs	r3, #37	; 0x25
     820:	2276      	movs	r2, #118	; 0x76
     822:	7023      	strb	r3, [r4, #0]
     824:	2101      	movs	r1, #1
     826:	33cf      	adds	r3, #207	; 0xcf
     828:	0020      	movs	r0, r4
     82a:	47a8      	blx	r5
     82c:	b008      	add	sp, #32
     82e:	bd70      	pop	{r4, r5, r6, pc}
     830:	00000b6d 	.word	0x00000b6d
     834:	2000002c 	.word	0x2000002c
     838:	000035fb 	.word	0x000035fb
     83c:	00000b1d 	.word	0x00000b1d

00000840 <read_bmp280_integer>:
     840:	b5f0      	push	{r4, r5, r6, r7, lr}
     842:	b089      	sub	sp, #36	; 0x24
     844:	9004      	str	r0, [sp, #16]
     846:	2206      	movs	r2, #6
     848:	2100      	movs	r1, #0
     84a:	4b72      	ldr	r3, [pc, #456]	; (a14 <read_bmp280_integer+0x1d4>)
     84c:	a806      	add	r0, sp, #24
     84e:	4798      	blx	r3
     850:	23f7      	movs	r3, #247	; 0xf7
     852:	2276      	movs	r2, #118	; 0x76
     854:	2106      	movs	r1, #6
     856:	a806      	add	r0, sp, #24
     858:	4c6f      	ldr	r4, [pc, #444]	; (a18 <read_bmp280_integer+0x1d8>)
     85a:	47a0      	blx	r4
     85c:	ab06      	add	r3, sp, #24
     85e:	7859      	ldrb	r1, [r3, #1]
     860:	789a      	ldrb	r2, [r3, #2]
     862:	781b      	ldrb	r3, [r3, #0]
     864:	0209      	lsls	r1, r1, #8
     866:	041b      	lsls	r3, r3, #16
     868:	430a      	orrs	r2, r1
     86a:	431a      	orrs	r2, r3
     86c:	ab06      	add	r3, sp, #24
     86e:	9205      	str	r2, [sp, #20]
     870:	7919      	ldrb	r1, [r3, #4]
     872:	aa06      	add	r2, sp, #24
     874:	795b      	ldrb	r3, [r3, #5]
     876:	78d2      	ldrb	r2, [r2, #3]
     878:	0209      	lsls	r1, r1, #8
     87a:	0412      	lsls	r2, r2, #16
     87c:	430b      	orrs	r3, r1
     87e:	4313      	orrs	r3, r2
     880:	4a66      	ldr	r2, [pc, #408]	; (a1c <read_bmp280_integer+0x1dc>)
     882:	091b      	lsrs	r3, r3, #4
     884:	8810      	ldrh	r0, [r2, #0]
     886:	4965      	ldr	r1, [pc, #404]	; (a1c <read_bmp280_integer+0x1dc>)
     888:	111a      	asrs	r2, r3, #4
     88a:	1a12      	subs	r2, r2, r0
     88c:	10db      	asrs	r3, r3, #3
     88e:	0040      	lsls	r0, r0, #1
     890:	1a1b      	subs	r3, r3, r0
     892:	2002      	movs	r0, #2
     894:	5e09      	ldrsh	r1, [r1, r0]
     896:	4352      	muls	r2, r2
     898:	4359      	muls	r1, r3
     89a:	4b60      	ldr	r3, [pc, #384]	; (a1c <read_bmp280_integer+0x1dc>)
     89c:	1312      	asrs	r2, r2, #12
     89e:	2004      	movs	r0, #4
     8a0:	5e1b      	ldrsh	r3, [r3, r0]
     8a2:	12c9      	asrs	r1, r1, #11
     8a4:	435a      	muls	r2, r3
     8a6:	4b5e      	ldr	r3, [pc, #376]	; (a20 <read_bmp280_integer+0x1e0>)
     8a8:	1392      	asrs	r2, r2, #14
     8aa:	1889      	adds	r1, r1, r2
     8ac:	6019      	str	r1, [r3, #0]
     8ae:	2305      	movs	r3, #5
     8b0:	434b      	muls	r3, r1
     8b2:	9a04      	ldr	r2, [sp, #16]
     8b4:	3380      	adds	r3, #128	; 0x80
     8b6:	121b      	asrs	r3, r3, #8
     8b8:	2701      	movs	r7, #1
     8ba:	6053      	str	r3, [r2, #4]
     8bc:	000a      	movs	r2, r1
     8be:	4e59      	ldr	r6, [pc, #356]	; (a24 <read_bmp280_integer+0x1e4>)
     8c0:	17cb      	asrs	r3, r1, #31
     8c2:	427f      	negs	r7, r7
     8c4:	18b6      	adds	r6, r6, r2
     8c6:	415f      	adcs	r7, r3
     8c8:	4c57      	ldr	r4, [pc, #348]	; (a28 <read_bmp280_integer+0x1e8>)
     8ca:	0032      	movs	r2, r6
     8cc:	9600      	str	r6, [sp, #0]
     8ce:	9701      	str	r7, [sp, #4]
     8d0:	003b      	movs	r3, r7
     8d2:	0030      	movs	r0, r6
     8d4:	0039      	movs	r1, r7
     8d6:	47a0      	blx	r4
     8d8:	9002      	str	r0, [sp, #8]
     8da:	9103      	str	r1, [sp, #12]
     8dc:	4b4f      	ldr	r3, [pc, #316]	; (a1c <read_bmp280_integer+0x1dc>)
     8de:	2008      	movs	r0, #8
     8e0:	5e18      	ldrsh	r0, [r3, r0]
     8e2:	9a00      	ldr	r2, [sp, #0]
     8e4:	9b01      	ldr	r3, [sp, #4]
     8e6:	17c1      	asrs	r1, r0, #31
     8e8:	47a0      	blx	r4
     8ea:	0d03      	lsrs	r3, r0, #20
     8ec:	030d      	lsls	r5, r1, #12
     8ee:	431d      	orrs	r5, r3
     8f0:	4b4a      	ldr	r3, [pc, #296]	; (a1c <read_bmp280_integer+0x1dc>)
     8f2:	0304      	lsls	r4, r0, #12
     8f4:	200a      	movs	r0, #10
     8f6:	5e18      	ldrsh	r0, [r3, r0]
     8f8:	4e4b      	ldr	r6, [pc, #300]	; (a28 <read_bmp280_integer+0x1e8>)
     8fa:	9a02      	ldr	r2, [sp, #8]
     8fc:	9b03      	ldr	r3, [sp, #12]
     8fe:	17c1      	asrs	r1, r0, #31
     900:	47b0      	blx	r6
     902:	060b      	lsls	r3, r1, #24
     904:	469c      	mov	ip, r3
     906:	0a02      	lsrs	r2, r0, #8
     908:	4660      	mov	r0, ip
     90a:	120b      	asrs	r3, r1, #8
     90c:	4302      	orrs	r2, r0
     90e:	1912      	adds	r2, r2, r4
     910:	416b      	adcs	r3, r5
     912:	0019      	movs	r1, r3
     914:	2380      	movs	r3, #128	; 0x80
     916:	0010      	movs	r0, r2
     918:	2200      	movs	r2, #0
     91a:	021b      	lsls	r3, r3, #8
     91c:	1880      	adds	r0, r0, r2
     91e:	4159      	adcs	r1, r3
     920:	4b3e      	ldr	r3, [pc, #248]	; (a1c <read_bmp280_integer+0x1dc>)
     922:	88da      	ldrh	r2, [r3, #6]
     924:	2300      	movs	r3, #0
     926:	47b0      	blx	r6
     928:	104c      	asrs	r4, r1, #1
     92a:	0023      	movs	r3, r4
     92c:	17cd      	asrs	r5, r1, #31
     92e:	432b      	orrs	r3, r5
     930:	d06b      	beq.n	a0a <read_bmp280_integer+0x1ca>
     932:	4b3a      	ldr	r3, [pc, #232]	; (a1c <read_bmp280_integer+0x1dc>)
     934:	2010      	movs	r0, #16
     936:	5e18      	ldrsh	r0, [r3, r0]
     938:	9a02      	ldr	r2, [sp, #8]
     93a:	9b03      	ldr	r3, [sp, #12]
     93c:	17c1      	asrs	r1, r0, #31
     93e:	47b0      	blx	r6
     940:	9002      	str	r0, [sp, #8]
     942:	9103      	str	r1, [sp, #12]
     944:	4b35      	ldr	r3, [pc, #212]	; (a1c <read_bmp280_integer+0x1dc>)
     946:	200e      	movs	r0, #14
     948:	5e18      	ldrsh	r0, [r3, r0]
     94a:	9a00      	ldr	r2, [sp, #0]
     94c:	9b01      	ldr	r3, [sp, #4]
     94e:	17c1      	asrs	r1, r0, #31
     950:	47b0      	blx	r6
     952:	0bc6      	lsrs	r6, r0, #15
     954:	044b      	lsls	r3, r1, #17
     956:	4333      	orrs	r3, r6
     958:	0442      	lsls	r2, r0, #17
     95a:	9802      	ldr	r0, [sp, #8]
     95c:	9903      	ldr	r1, [sp, #12]
     95e:	1880      	adds	r0, r0, r2
     960:	4159      	adcs	r1, r3
     962:	2280      	movs	r2, #128	; 0x80
     964:	9b05      	ldr	r3, [sp, #20]
     966:	0352      	lsls	r2, r2, #13
     968:	091b      	lsrs	r3, r3, #4
     96a:	1ad3      	subs	r3, r2, r3
     96c:	17de      	asrs	r6, r3, #31
     96e:	9000      	str	r0, [sp, #0]
     970:	9101      	str	r1, [sp, #4]
     972:	085a      	lsrs	r2, r3, #1
     974:	07f1      	lsls	r1, r6, #31
     976:	4311      	orrs	r1, r2
     978:	2200      	movs	r2, #0
     97a:	07d8      	lsls	r0, r3, #31
     97c:	4b27      	ldr	r3, [pc, #156]	; (a1c <read_bmp280_integer+0x1dc>)
     97e:	260c      	movs	r6, #12
     980:	5f9e      	ldrsh	r6, [r3, r6]
     982:	00f3      	lsls	r3, r6, #3
     984:	9e00      	ldr	r6, [sp, #0]
     986:	9f01      	ldr	r7, [sp, #4]
     988:	1992      	adds	r2, r2, r6
     98a:	417b      	adcs	r3, r7
     98c:	4e26      	ldr	r6, [pc, #152]	; (a28 <read_bmp280_integer+0x1e8>)
     98e:	1a80      	subs	r0, r0, r2
     990:	4199      	sbcs	r1, r3
     992:	4a26      	ldr	r2, [pc, #152]	; (a2c <read_bmp280_integer+0x1ec>)
     994:	2300      	movs	r3, #0
     996:	47b0      	blx	r6
     998:	0022      	movs	r2, r4
     99a:	002b      	movs	r3, r5
     99c:	4c24      	ldr	r4, [pc, #144]	; (a30 <read_bmp280_integer+0x1f0>)
     99e:	47a0      	blx	r4
     9a0:	04cb      	lsls	r3, r1, #19
     9a2:	0b44      	lsrs	r4, r0, #13
     9a4:	431c      	orrs	r4, r3
     9a6:	134b      	asrs	r3, r1, #13
     9a8:	9300      	str	r3, [sp, #0]
     9aa:	4b1c      	ldr	r3, [pc, #112]	; (a1c <read_bmp280_integer+0x1dc>)
     9ac:	0006      	movs	r6, r0
     9ae:	2016      	movs	r0, #22
     9b0:	5e18      	ldrsh	r0, [r3, r0]
     9b2:	000f      	movs	r7, r1
     9b4:	0022      	movs	r2, r4
     9b6:	4d1c      	ldr	r5, [pc, #112]	; (a28 <read_bmp280_integer+0x1e8>)
     9b8:	9b00      	ldr	r3, [sp, #0]
     9ba:	17c1      	asrs	r1, r0, #31
     9bc:	47a8      	blx	r5
     9be:	0022      	movs	r2, r4
     9c0:	9b00      	ldr	r3, [sp, #0]
     9c2:	47a8      	blx	r5
     9c4:	01cb      	lsls	r3, r1, #7
     9c6:	0e44      	lsrs	r4, r0, #25
     9c8:	431c      	orrs	r4, r3
     9ca:	4b14      	ldr	r3, [pc, #80]	; (a1c <read_bmp280_integer+0x1dc>)
     9cc:	164d      	asrs	r5, r1, #25
     9ce:	2014      	movs	r0, #20
     9d0:	5e18      	ldrsh	r0, [r3, r0]
     9d2:	0032      	movs	r2, r6
     9d4:	19a4      	adds	r4, r4, r6
     9d6:	417d      	adcs	r5, r7
     9d8:	003b      	movs	r3, r7
     9da:	4e13      	ldr	r6, [pc, #76]	; (a28 <read_bmp280_integer+0x1e8>)
     9dc:	17c1      	asrs	r1, r0, #31
     9de:	47b0      	blx	r6
     9e0:	034e      	lsls	r6, r1, #13
     9e2:	0cc2      	lsrs	r2, r0, #19
     9e4:	4332      	orrs	r2, r6
     9e6:	14cb      	asrs	r3, r1, #19
     9e8:	18a4      	adds	r4, r4, r2
     9ea:	415d      	adcs	r5, r3
     9ec:	0629      	lsls	r1, r5, #24
     9ee:	0a22      	lsrs	r2, r4, #8
     9f0:	430a      	orrs	r2, r1
     9f2:	490a      	ldr	r1, [pc, #40]	; (a1c <read_bmp280_integer+0x1dc>)
     9f4:	122b      	asrs	r3, r5, #8
     9f6:	2412      	movs	r4, #18
     9f8:	5f0c      	ldrsh	r4, [r1, r4]
     9fa:	17e6      	asrs	r6, r4, #31
     9fc:	0f25      	lsrs	r5, r4, #28
     9fe:	0131      	lsls	r1, r6, #4
     a00:	0120      	lsls	r0, r4, #4
     a02:	4329      	orrs	r1, r5
     a04:	1880      	adds	r0, r0, r2
     a06:	4159      	adcs	r1, r3
     a08:	0004      	movs	r4, r0
     a0a:	9b04      	ldr	r3, [sp, #16]
     a0c:	601c      	str	r4, [r3, #0]
     a0e:	b009      	add	sp, #36	; 0x24
     a10:	bdf0      	pop	{r4, r5, r6, r7, pc}
     a12:	46c0      	nop			; (mov r8, r8)
     a14:	000035fb 	.word	0x000035fb
     a18:	00000b6d 	.word	0x00000b6d
     a1c:	2000002c 	.word	0x2000002c
     a20:	20000044 	.word	0x20000044
     a24:	fffe0c00 	.word	0xfffe0c00
     a28:	00001765 	.word	0x00001765
     a2c:	00000c35 	.word	0x00000c35
     a30:	000016dd 	.word	0x000016dd

00000a34 <read_bmp280>:
     a34:	b573      	push	{r0, r1, r4, r5, r6, lr}
     a36:	4b0b      	ldr	r3, [pc, #44]	; (a64 <read_bmp280+0x30>)
     a38:	0004      	movs	r4, r0
     a3a:	4668      	mov	r0, sp
     a3c:	4798      	blx	r3
     a3e:	4b0a      	ldr	r3, [pc, #40]	; (a68 <read_bmp280+0x34>)
     a40:	9800      	ldr	r0, [sp, #0]
     a42:	4798      	blx	r3
     a44:	4e09      	ldr	r6, [pc, #36]	; (a6c <read_bmp280+0x38>)
     a46:	2200      	movs	r2, #0
     a48:	4b09      	ldr	r3, [pc, #36]	; (a70 <read_bmp280+0x3c>)
     a4a:	47b0      	blx	r6
     a4c:	4d09      	ldr	r5, [pc, #36]	; (a74 <read_bmp280+0x40>)
     a4e:	47a8      	blx	r5
     a50:	4b09      	ldr	r3, [pc, #36]	; (a78 <read_bmp280+0x44>)
     a52:	6020      	str	r0, [r4, #0]
     a54:	9801      	ldr	r0, [sp, #4]
     a56:	4798      	blx	r3
     a58:	4a08      	ldr	r2, [pc, #32]	; (a7c <read_bmp280+0x48>)
     a5a:	4b09      	ldr	r3, [pc, #36]	; (a80 <read_bmp280+0x4c>)
     a5c:	47b0      	blx	r6
     a5e:	47a8      	blx	r5
     a60:	6060      	str	r0, [r4, #4]
     a62:	bd73      	pop	{r0, r1, r4, r5, r6, pc}
     a64:	00000841 	.word	0x00000841
     a68:	00003211 	.word	0x00003211
     a6c:	000025f9 	.word	0x000025f9
     a70:	3f700000 	.word	0x3f700000
     a74:	00003281 	.word	0x00003281
     a78:	0000318d 	.word	0x0000318d
     a7c:	47ae147b 	.word	0x47ae147b
     a80:	3f847ae1 	.word	0x3f847ae1

00000a84 <i2c_interface_init>:
     a84:	2364      	movs	r3, #100	; 0x64
     a86:	4a1d      	ldr	r2, [pc, #116]	; (afc <i2c_interface_init+0x78>)
     a88:	b510      	push	{r4, lr}
     a8a:	2101      	movs	r1, #1
     a8c:	6013      	str	r3, [r2, #0]
     a8e:	4b1c      	ldr	r3, [pc, #112]	; (b00 <i2c_interface_init+0x7c>)
     a90:	4249      	negs	r1, r1
     a92:	6053      	str	r3, [r2, #4]
     a94:	2300      	movs	r3, #0
     a96:	8291      	strh	r1, [r2, #20]
     a98:	1d51      	adds	r1, r2, #5
     a9a:	77cb      	strb	r3, [r1, #31]
     a9c:	0011      	movs	r1, r2
     a9e:	312c      	adds	r1, #44	; 0x2c
     aa0:	700b      	strb	r3, [r1, #0]
     aa2:	0011      	movs	r1, r2
     aa4:	312d      	adds	r1, #45	; 0x2d
     aa6:	700b      	strb	r3, [r1, #0]
     aa8:	0011      	movs	r1, r2
     aaa:	312e      	adds	r1, #46	; 0x2e
     aac:	6093      	str	r3, [r2, #8]
     aae:	7313      	strb	r3, [r2, #12]
     ab0:	7613      	strb	r3, [r2, #24]
     ab2:	6293      	str	r3, [r2, #40]	; 0x28
     ab4:	700b      	strb	r3, [r1, #0]
     ab6:	33d7      	adds	r3, #215	; 0xd7
     ab8:	8613      	strh	r3, [r2, #48]	; 0x30
     aba:	23c0      	movs	r3, #192	; 0xc0
     abc:	039b      	lsls	r3, r3, #14
     abe:	6113      	str	r3, [r2, #16]
     ac0:	4b10      	ldr	r3, [pc, #64]	; (b04 <i2c_interface_init+0x80>)
     ac2:	4c11      	ldr	r4, [pc, #68]	; (b08 <i2c_interface_init+0x84>)
     ac4:	82d3      	strh	r3, [r2, #22]
     ac6:	4b11      	ldr	r3, [pc, #68]	; (b0c <i2c_interface_init+0x88>)
     ac8:	4911      	ldr	r1, [pc, #68]	; (b10 <i2c_interface_init+0x8c>)
     aca:	61d3      	str	r3, [r2, #28]
     acc:	4b11      	ldr	r3, [pc, #68]	; (b14 <i2c_interface_init+0x90>)
     ace:	0020      	movs	r0, r4
     ad0:	6213      	str	r3, [r2, #32]
     ad2:	4b11      	ldr	r3, [pc, #68]	; (b18 <i2c_interface_init+0x94>)
     ad4:	4798      	blx	r3
     ad6:	2107      	movs	r1, #7
     ad8:	6822      	ldr	r2, [r4, #0]
     ada:	69d3      	ldr	r3, [r2, #28]
     adc:	400b      	ands	r3, r1
     ade:	d1fc      	bne.n	ada <i2c_interface_init+0x56>
     ae0:	2102      	movs	r1, #2
     ae2:	6810      	ldr	r0, [r2, #0]
     ae4:	4301      	orrs	r1, r0
     ae6:	6011      	str	r1, [r2, #0]
     ae8:	2110      	movs	r1, #16
     aea:	88e4      	ldrh	r4, [r4, #6]
     aec:	8b50      	ldrh	r0, [r2, #26]
     aee:	4208      	tst	r0, r1
     af0:	d103      	bne.n	afa <i2c_interface_init+0x76>
     af2:	3301      	adds	r3, #1
     af4:	42a3      	cmp	r3, r4
     af6:	d3f9      	bcc.n	aec <i2c_interface_init+0x68>
     af8:	8351      	strh	r1, [r2, #26]
     afa:	bd10      	pop	{r4, pc}
     afc:	20000048 	.word	0x20000048
     b00:	00000d48 	.word	0x00000d48
     b04:	00002710 	.word	0x00002710
     b08:	2000007c 	.word	0x2000007c
     b0c:	00160002 	.word	0x00160002
     b10:	42000c00 	.word	0x42000c00
     b14:	00170002 	.word	0x00170002
     b18:	000001e9 	.word	0x000001e9

00000b1c <i2c_write_bytes>:
     b1c:	b5bf      	push	{r0, r1, r2, r3, r4, r5, r7, lr}
     b1e:	0015      	movs	r5, r2
     b20:	000a      	movs	r2, r1
     b22:	000c      	movs	r4, r1
     b24:	4669      	mov	r1, sp
     b26:	3209      	adds	r2, #9
     b28:	08d2      	lsrs	r2, r2, #3
     b2a:	00d2      	lsls	r2, r2, #3
     b2c:	1a8a      	subs	r2, r1, r2
     b2e:	af00      	add	r7, sp, #0
     b30:	4695      	mov	sp, r2
     b32:	7013      	strb	r3, [r2, #0]
     b34:	466b      	mov	r3, sp
     b36:	3301      	adds	r3, #1
     b38:	0022      	movs	r2, r4
     b3a:	0001      	movs	r1, r0
     b3c:	0018      	movs	r0, r3
     b3e:	4b08      	ldr	r3, [pc, #32]	; (b60 <i2c_write_bytes+0x44>)
     b40:	4798      	blx	r3
     b42:	466b      	mov	r3, sp
     b44:	60bb      	str	r3, [r7, #8]
     b46:	2300      	movs	r3, #0
     b48:	1d39      	adds	r1, r7, #4
     b4a:	737b      	strb	r3, [r7, #13]
     b4c:	73bb      	strb	r3, [r7, #14]
     b4e:	733b      	strb	r3, [r7, #12]
     b50:	3401      	adds	r4, #1
     b52:	4b04      	ldr	r3, [pc, #16]	; (b64 <i2c_write_bytes+0x48>)
     b54:	4804      	ldr	r0, [pc, #16]	; (b68 <i2c_write_bytes+0x4c>)
     b56:	80bd      	strh	r5, [r7, #4]
     b58:	80fc      	strh	r4, [r7, #6]
     b5a:	4798      	blx	r3
     b5c:	46bd      	mov	sp, r7
     b5e:	bdbf      	pop	{r0, r1, r2, r3, r4, r5, r7, pc}
     b60:	000035e9 	.word	0x000035e9
     b64:	00000749 	.word	0x00000749
     b68:	2000007c 	.word	0x2000007c

00000b6c <i2c_read_bytes>:
     b6c:	b5f0      	push	{r4, r5, r6, r7, lr}
     b6e:	b089      	sub	sp, #36	; 0x24
     b70:	9100      	str	r1, [sp, #0]
     b72:	4669      	mov	r1, sp
     b74:	71cb      	strb	r3, [r1, #7]
     b76:	2301      	movs	r3, #1
     b78:	2400      	movs	r4, #0
     b7a:	4e0e      	ldr	r6, [pc, #56]	; (bb4 <i2c_read_bytes+0x48>)
     b7c:	0007      	movs	r7, r0
     b7e:	1dc8      	adds	r0, r1, #7
     b80:	a902      	add	r1, sp, #8
     b82:	b295      	uxth	r5, r2
     b84:	6048      	str	r0, [r1, #4]
     b86:	804b      	strh	r3, [r1, #2]
     b88:	0030      	movs	r0, r6
     b8a:	4b0b      	ldr	r3, [pc, #44]	; (bb8 <i2c_read_bytes+0x4c>)
     b8c:	800d      	strh	r5, [r1, #0]
     b8e:	724c      	strb	r4, [r1, #9]
     b90:	728c      	strb	r4, [r1, #10]
     b92:	720c      	strb	r4, [r1, #8]
     b94:	4798      	blx	r3
     b96:	466b      	mov	r3, sp
     b98:	881b      	ldrh	r3, [r3, #0]
     b9a:	a905      	add	r1, sp, #20
     b9c:	804b      	strh	r3, [r1, #2]
     b9e:	0030      	movs	r0, r6
     ba0:	4b06      	ldr	r3, [pc, #24]	; (bbc <i2c_read_bytes+0x50>)
     ba2:	800d      	strh	r5, [r1, #0]
     ba4:	604f      	str	r7, [r1, #4]
     ba6:	724c      	strb	r4, [r1, #9]
     ba8:	728c      	strb	r4, [r1, #10]
     baa:	720c      	strb	r4, [r1, #8]
     bac:	4798      	blx	r3
     bae:	b009      	add	sp, #36	; 0x24
     bb0:	bdf0      	pop	{r4, r5, r6, r7, pc}
     bb2:	46c0      	nop			; (mov r8, r8)
     bb4:	2000007c 	.word	0x2000007c
     bb8:	00000749 	.word	0x00000749
     bbc:	00000735 	.word	0x00000735

00000bc0 <init_lis3dh>:
     bc0:	b537      	push	{r0, r1, r2, r4, r5, lr}
     bc2:	466b      	mov	r3, sp
     bc4:	1d9c      	adds	r4, r3, #6
     bc6:	2300      	movs	r3, #0
     bc8:	2219      	movs	r2, #25
     bca:	7023      	strb	r3, [r4, #0]
     bcc:	2101      	movs	r1, #1
     bce:	330f      	adds	r3, #15
     bd0:	0020      	movs	r0, r4
     bd2:	4d0b      	ldr	r5, [pc, #44]	; (c00 <init_lis3dh+0x40>)
     bd4:	47a8      	blx	r5
     bd6:	7823      	ldrb	r3, [r4, #0]
     bd8:	2b33      	cmp	r3, #51	; 0x33
     bda:	d110      	bne.n	bfe <init_lis3dh+0x3e>
     bdc:	466b      	mov	r3, sp
     bde:	1ddc      	adds	r4, r3, #7
     be0:	234f      	movs	r3, #79	; 0x4f
     be2:	2219      	movs	r2, #25
     be4:	7023      	strb	r3, [r4, #0]
     be6:	2101      	movs	r1, #1
     be8:	3b2f      	subs	r3, #47	; 0x2f
     bea:	0020      	movs	r0, r4
     bec:	4d05      	ldr	r5, [pc, #20]	; (c04 <init_lis3dh+0x44>)
     bee:	47a8      	blx	r5
     bf0:	2310      	movs	r3, #16
     bf2:	2219      	movs	r2, #25
     bf4:	7023      	strb	r3, [r4, #0]
     bf6:	2101      	movs	r1, #1
     bf8:	3313      	adds	r3, #19
     bfa:	0020      	movs	r0, r4
     bfc:	47a8      	blx	r5
     bfe:	bd37      	pop	{r0, r1, r2, r4, r5, pc}
     c00:	00000b6d 	.word	0x00000b6d
     c04:	00000b1d 	.word	0x00000b1d

00000c08 <read_lis3dh_raw>:
     c08:	b537      	push	{r0, r1, r2, r4, r5, lr}
     c0a:	23a8      	movs	r3, #168	; 0xa8
     c0c:	0004      	movs	r4, r0
     c0e:	4d0c      	ldr	r5, [pc, #48]	; (c40 <read_lis3dh_raw+0x38>)
     c10:	2219      	movs	r2, #25
     c12:	2106      	movs	r1, #6
     c14:	4668      	mov	r0, sp
     c16:	47a8      	blx	r5
     c18:	466b      	mov	r3, sp
     c1a:	785a      	ldrb	r2, [r3, #1]
     c1c:	781b      	ldrb	r3, [r3, #0]
     c1e:	0212      	lsls	r2, r2, #8
     c20:	4313      	orrs	r3, r2
     c22:	8023      	strh	r3, [r4, #0]
     c24:	466b      	mov	r3, sp
     c26:	78da      	ldrb	r2, [r3, #3]
     c28:	789b      	ldrb	r3, [r3, #2]
     c2a:	0212      	lsls	r2, r2, #8
     c2c:	4313      	orrs	r3, r2
     c2e:	8063      	strh	r3, [r4, #2]
     c30:	466b      	mov	r3, sp
     c32:	795a      	ldrb	r2, [r3, #5]
     c34:	791b      	ldrb	r3, [r3, #4]
     c36:	0212      	lsls	r2, r2, #8
     c38:	4313      	orrs	r3, r2
     c3a:	80a3      	strh	r3, [r4, #4]
     c3c:	bd37      	pop	{r0, r1, r2, r4, r5, pc}
     c3e:	46c0      	nop			; (mov r8, r8)
     c40:	00000b6d 	.word	0x00000b6d

00000c44 <read_lis3dh_g>:
     c44:	b5f7      	push	{r0, r1, r2, r4, r5, r6, r7, lr}
     c46:	4b11      	ldr	r3, [pc, #68]	; (c8c <read_lis3dh_g+0x48>)
     c48:	0004      	movs	r4, r0
     c4a:	4668      	mov	r0, sp
     c4c:	4798      	blx	r3
     c4e:	466b      	mov	r3, sp
     c50:	4f0f      	ldr	r7, [pc, #60]	; (c90 <read_lis3dh_g+0x4c>)
     c52:	2000      	movs	r0, #0
     c54:	5e18      	ldrsh	r0, [r3, r0]
     c56:	47b8      	blx	r7
     c58:	4e0e      	ldr	r6, [pc, #56]	; (c94 <read_lis3dh_g+0x50>)
     c5a:	4a0f      	ldr	r2, [pc, #60]	; (c98 <read_lis3dh_g+0x54>)
     c5c:	4b0f      	ldr	r3, [pc, #60]	; (c9c <read_lis3dh_g+0x58>)
     c5e:	47b0      	blx	r6
     c60:	4d0f      	ldr	r5, [pc, #60]	; (ca0 <read_lis3dh_g+0x5c>)
     c62:	47a8      	blx	r5
     c64:	466b      	mov	r3, sp
     c66:	6020      	str	r0, [r4, #0]
     c68:	2002      	movs	r0, #2
     c6a:	5e18      	ldrsh	r0, [r3, r0]
     c6c:	47b8      	blx	r7
     c6e:	4a0a      	ldr	r2, [pc, #40]	; (c98 <read_lis3dh_g+0x54>)
     c70:	4b0a      	ldr	r3, [pc, #40]	; (c9c <read_lis3dh_g+0x58>)
     c72:	47b0      	blx	r6
     c74:	47a8      	blx	r5
     c76:	466b      	mov	r3, sp
     c78:	6060      	str	r0, [r4, #4]
     c7a:	2004      	movs	r0, #4
     c7c:	5e18      	ldrsh	r0, [r3, r0]
     c7e:	47b8      	blx	r7
     c80:	4a05      	ldr	r2, [pc, #20]	; (c98 <read_lis3dh_g+0x54>)
     c82:	4b06      	ldr	r3, [pc, #24]	; (c9c <read_lis3dh_g+0x58>)
     c84:	47b0      	blx	r6
     c86:	47a8      	blx	r5
     c88:	60a0      	str	r0, [r4, #8]
     c8a:	bdf7      	pop	{r0, r1, r2, r4, r5, r6, r7, pc}
     c8c:	00000c09 	.word	0x00000c09
     c90:	0000318d 	.word	0x0000318d
     c94:	000025f9 	.word	0x000025f9
     c98:	a19c4774 	.word	0xa19c4774
     c9c:	3f1ffffa 	.word	0x3f1ffffa
     ca0:	00003281 	.word	0x00003281

00000ca4 <WDT_Handler>:
     ca4:	2201      	movs	r2, #1
     ca6:	b510      	push	{r4, lr}
     ca8:	4b03      	ldr	r3, [pc, #12]	; (cb8 <WDT_Handler+0x14>)
     caa:	719a      	strb	r2, [r3, #6]
     cac:	4b03      	ldr	r3, [pc, #12]	; (cbc <WDT_Handler+0x18>)
     cae:	681b      	ldr	r3, [r3, #0]
     cb0:	2b00      	cmp	r3, #0
     cb2:	d000      	beq.n	cb6 <WDT_Handler+0x12>
     cb4:	4798      	blx	r3
     cb6:	bd10      	pop	{r4, pc}
     cb8:	40001c00 	.word	0x40001c00
     cbc:	200000b0 	.word	0x200000b0

00000cc0 <sercom_set_gclk_generator>:
     cc0:	b537      	push	{r0, r1, r2, r4, r5, lr}
     cc2:	4c0d      	ldr	r4, [pc, #52]	; (cf8 <sercom_set_gclk_generator+0x38>)
     cc4:	0005      	movs	r5, r0
     cc6:	7823      	ldrb	r3, [r4, #0]
     cc8:	2b00      	cmp	r3, #0
     cca:	d001      	beq.n	cd0 <sercom_set_gclk_generator+0x10>
     ccc:	2900      	cmp	r1, #0
     cce:	d00c      	beq.n	cea <sercom_set_gclk_generator+0x2a>
     cd0:	a901      	add	r1, sp, #4
     cd2:	2011      	movs	r0, #17
     cd4:	4b09      	ldr	r3, [pc, #36]	; (cfc <sercom_set_gclk_generator+0x3c>)
     cd6:	700d      	strb	r5, [r1, #0]
     cd8:	4798      	blx	r3
     cda:	2011      	movs	r0, #17
     cdc:	4b08      	ldr	r3, [pc, #32]	; (d00 <sercom_set_gclk_generator+0x40>)
     cde:	4798      	blx	r3
     ce0:	2301      	movs	r3, #1
     ce2:	2000      	movs	r0, #0
     ce4:	7065      	strb	r5, [r4, #1]
     ce6:	7023      	strb	r3, [r4, #0]
     ce8:	bd3e      	pop	{r1, r2, r3, r4, r5, pc}
     cea:	7863      	ldrb	r3, [r4, #1]
     cec:	0008      	movs	r0, r1
     cee:	42ab      	cmp	r3, r5
     cf0:	d0fa      	beq.n	ce8 <sercom_set_gclk_generator+0x28>
     cf2:	201d      	movs	r0, #29
     cf4:	e7f8      	b.n	ce8 <sercom_set_gclk_generator+0x28>
     cf6:	46c0      	nop			; (mov r8, r8)
     cf8:	20000088 	.word	0x20000088
     cfc:	00001301 	.word	0x00001301
     d00:	000012a1 	.word	0x000012a1

00000d04 <_sercom_get_default_pad>:
     d04:	4a39      	ldr	r2, [pc, #228]	; (dec <_sercom_get_default_pad+0xe8>)
     d06:	0003      	movs	r3, r0
     d08:	b500      	push	{lr}
     d0a:	0008      	movs	r0, r1
     d0c:	4293      	cmp	r3, r2
     d0e:	d034      	beq.n	d7a <_sercom_get_default_pad+0x76>
     d10:	d808      	bhi.n	d24 <_sercom_get_default_pad+0x20>
     d12:	2284      	movs	r2, #132	; 0x84
     d14:	05d2      	lsls	r2, r2, #23
     d16:	4293      	cmp	r3, r2
     d18:	d014      	beq.n	d44 <_sercom_get_default_pad+0x40>
     d1a:	4a35      	ldr	r2, [pc, #212]	; (df0 <_sercom_get_default_pad+0xec>)
     d1c:	4293      	cmp	r3, r2
     d1e:	d01f      	beq.n	d60 <_sercom_get_default_pad+0x5c>
     d20:	2300      	movs	r3, #0
     d22:	e017      	b.n	d54 <_sercom_get_default_pad+0x50>
     d24:	4a33      	ldr	r2, [pc, #204]	; (df4 <_sercom_get_default_pad+0xf0>)
     d26:	4293      	cmp	r3, r2
     d28:	d03a      	beq.n	da0 <_sercom_get_default_pad+0x9c>
     d2a:	4a33      	ldr	r2, [pc, #204]	; (df8 <_sercom_get_default_pad+0xf4>)
     d2c:	4293      	cmp	r3, r2
     d2e:	d044      	beq.n	dba <_sercom_get_default_pad+0xb6>
     d30:	4a32      	ldr	r2, [pc, #200]	; (dfc <_sercom_get_default_pad+0xf8>)
     d32:	4293      	cmp	r3, r2
     d34:	d1f4      	bne.n	d20 <_sercom_get_default_pad+0x1c>
     d36:	2300      	movs	r3, #0
     d38:	2903      	cmp	r1, #3
     d3a:	d80b      	bhi.n	d54 <_sercom_get_default_pad+0x50>
     d3c:	f000 fc38 	bl	15b0 <__gnu_thumb1_case_uqi>
     d40:	2e2c2a50 	.word	0x2e2c2a50
     d44:	2300      	movs	r3, #0
     d46:	2903      	cmp	r1, #3
     d48:	d804      	bhi.n	d54 <_sercom_get_default_pad+0x50>
     d4a:	f000 fc31 	bl	15b0 <__gnu_thumb1_case_uqi>
     d4e:	0243      	.short	0x0243
     d50:	0705      	.short	0x0705
     d52:	4b2b      	ldr	r3, [pc, #172]	; (e00 <_sercom_get_default_pad+0xfc>)
     d54:	0018      	movs	r0, r3
     d56:	bd00      	pop	{pc}
     d58:	4b2a      	ldr	r3, [pc, #168]	; (e04 <_sercom_get_default_pad+0x100>)
     d5a:	e7fb      	b.n	d54 <_sercom_get_default_pad+0x50>
     d5c:	4b2a      	ldr	r3, [pc, #168]	; (e08 <_sercom_get_default_pad+0x104>)
     d5e:	e7f9      	b.n	d54 <_sercom_get_default_pad+0x50>
     d60:	2300      	movs	r3, #0
     d62:	2903      	cmp	r1, #3
     d64:	d8f6      	bhi.n	d54 <_sercom_get_default_pad+0x50>
     d66:	f000 fc23 	bl	15b0 <__gnu_thumb1_case_uqi>
     d6a:	0237      	.short	0x0237
     d6c:	0604      	.short	0x0604
     d6e:	4b27      	ldr	r3, [pc, #156]	; (e0c <_sercom_get_default_pad+0x108>)
     d70:	e7f0      	b.n	d54 <_sercom_get_default_pad+0x50>
     d72:	4b27      	ldr	r3, [pc, #156]	; (e10 <_sercom_get_default_pad+0x10c>)
     d74:	e7ee      	b.n	d54 <_sercom_get_default_pad+0x50>
     d76:	4b27      	ldr	r3, [pc, #156]	; (e14 <_sercom_get_default_pad+0x110>)
     d78:	e7ec      	b.n	d54 <_sercom_get_default_pad+0x50>
     d7a:	2300      	movs	r3, #0
     d7c:	2903      	cmp	r1, #3
     d7e:	d8e9      	bhi.n	d54 <_sercom_get_default_pad+0x50>
     d80:	f000 fc16 	bl	15b0 <__gnu_thumb1_case_uqi>
     d84:	0604022c 	.word	0x0604022c
     d88:	4b23      	ldr	r3, [pc, #140]	; (e18 <_sercom_get_default_pad+0x114>)
     d8a:	e7e3      	b.n	d54 <_sercom_get_default_pad+0x50>
     d8c:	4b23      	ldr	r3, [pc, #140]	; (e1c <_sercom_get_default_pad+0x118>)
     d8e:	e7e1      	b.n	d54 <_sercom_get_default_pad+0x50>
     d90:	4b23      	ldr	r3, [pc, #140]	; (e20 <_sercom_get_default_pad+0x11c>)
     d92:	e7df      	b.n	d54 <_sercom_get_default_pad+0x50>
     d94:	4b23      	ldr	r3, [pc, #140]	; (e24 <_sercom_get_default_pad+0x120>)
     d96:	e7dd      	b.n	d54 <_sercom_get_default_pad+0x50>
     d98:	4b23      	ldr	r3, [pc, #140]	; (e28 <_sercom_get_default_pad+0x124>)
     d9a:	e7db      	b.n	d54 <_sercom_get_default_pad+0x50>
     d9c:	4b23      	ldr	r3, [pc, #140]	; (e2c <_sercom_get_default_pad+0x128>)
     d9e:	e7d9      	b.n	d54 <_sercom_get_default_pad+0x50>
     da0:	2300      	movs	r3, #0
     da2:	2903      	cmp	r1, #3
     da4:	d8d6      	bhi.n	d54 <_sercom_get_default_pad+0x50>
     da6:	f000 fc03 	bl	15b0 <__gnu_thumb1_case_uqi>
     daa:	021d      	.short	0x021d
     dac:	0604      	.short	0x0604
     dae:	4b20      	ldr	r3, [pc, #128]	; (e30 <_sercom_get_default_pad+0x12c>)
     db0:	e7d0      	b.n	d54 <_sercom_get_default_pad+0x50>
     db2:	4b20      	ldr	r3, [pc, #128]	; (e34 <_sercom_get_default_pad+0x130>)
     db4:	e7ce      	b.n	d54 <_sercom_get_default_pad+0x50>
     db6:	4b20      	ldr	r3, [pc, #128]	; (e38 <_sercom_get_default_pad+0x134>)
     db8:	e7cc      	b.n	d54 <_sercom_get_default_pad+0x50>
     dba:	2300      	movs	r3, #0
     dbc:	2903      	cmp	r1, #3
     dbe:	d8c9      	bhi.n	d54 <_sercom_get_default_pad+0x50>
     dc0:	f000 fbf6 	bl	15b0 <__gnu_thumb1_case_uqi>
     dc4:	06040212 	.word	0x06040212
     dc8:	4b1c      	ldr	r3, [pc, #112]	; (e3c <_sercom_get_default_pad+0x138>)
     dca:	e7c3      	b.n	d54 <_sercom_get_default_pad+0x50>
     dcc:	4b1c      	ldr	r3, [pc, #112]	; (e40 <_sercom_get_default_pad+0x13c>)
     dce:	e7c1      	b.n	d54 <_sercom_get_default_pad+0x50>
     dd0:	4b1c      	ldr	r3, [pc, #112]	; (e44 <_sercom_get_default_pad+0x140>)
     dd2:	e7bf      	b.n	d54 <_sercom_get_default_pad+0x50>
     dd4:	4b1c      	ldr	r3, [pc, #112]	; (e48 <_sercom_get_default_pad+0x144>)
     dd6:	e7bd      	b.n	d54 <_sercom_get_default_pad+0x50>
     dd8:	2303      	movs	r3, #3
     dda:	e7bb      	b.n	d54 <_sercom_get_default_pad+0x50>
     ddc:	4b1b      	ldr	r3, [pc, #108]	; (e4c <_sercom_get_default_pad+0x148>)
     dde:	e7b9      	b.n	d54 <_sercom_get_default_pad+0x50>
     de0:	4b1b      	ldr	r3, [pc, #108]	; (e50 <_sercom_get_default_pad+0x14c>)
     de2:	e7b7      	b.n	d54 <_sercom_get_default_pad+0x50>
     de4:	4b1b      	ldr	r3, [pc, #108]	; (e54 <_sercom_get_default_pad+0x150>)
     de6:	e7b5      	b.n	d54 <_sercom_get_default_pad+0x50>
     de8:	4b1b      	ldr	r3, [pc, #108]	; (e58 <_sercom_get_default_pad+0x154>)
     dea:	e7b3      	b.n	d54 <_sercom_get_default_pad+0x50>
     dec:	42000800 	.word	0x42000800
     df0:	42000400 	.word	0x42000400
     df4:	42001000 	.word	0x42001000
     df8:	43000400 	.word	0x43000400
     dfc:	42000c00 	.word	0x42000c00
     e00:	00050003 	.word	0x00050003
     e04:	00060003 	.word	0x00060003
     e08:	00070003 	.word	0x00070003
     e0c:	00010003 	.word	0x00010003
     e10:	001e0003 	.word	0x001e0003
     e14:	001f0003 	.word	0x001f0003
     e18:	00090003 	.word	0x00090003
     e1c:	000a0003 	.word	0x000a0003
     e20:	000b0003 	.word	0x000b0003
     e24:	00110003 	.word	0x00110003
     e28:	00120003 	.word	0x00120003
     e2c:	00130003 	.word	0x00130003
     e30:	000d0003 	.word	0x000d0003
     e34:	000e0003 	.word	0x000e0003
     e38:	000f0003 	.word	0x000f0003
     e3c:	00170003 	.word	0x00170003
     e40:	00180003 	.word	0x00180003
     e44:	00190003 	.word	0x00190003
     e48:	00040003 	.word	0x00040003
     e4c:	00080003 	.word	0x00080003
     e50:	00100003 	.word	0x00100003
     e54:	000c0003 	.word	0x000c0003
     e58:	00160003 	.word	0x00160003

00000e5c <_sercom_get_sercom_inst_index>:
     e5c:	b570      	push	{r4, r5, r6, lr}
     e5e:	b086      	sub	sp, #24
     e60:	4669      	mov	r1, sp
     e62:	4b09      	ldr	r3, [pc, #36]	; (e88 <_sercom_get_sercom_inst_index+0x2c>)
     e64:	466a      	mov	r2, sp
     e66:	cb70      	ldmia	r3!, {r4, r5, r6}
     e68:	c170      	stmia	r1!, {r4, r5, r6}
     e6a:	cb70      	ldmia	r3!, {r4, r5, r6}
     e6c:	c170      	stmia	r1!, {r4, r5, r6}
     e6e:	2300      	movs	r3, #0
     e70:	0099      	lsls	r1, r3, #2
     e72:	5851      	ldr	r1, [r2, r1]
     e74:	4281      	cmp	r1, r0
     e76:	d102      	bne.n	e7e <_sercom_get_sercom_inst_index+0x22>
     e78:	b2d8      	uxtb	r0, r3
     e7a:	b006      	add	sp, #24
     e7c:	bd70      	pop	{r4, r5, r6, pc}
     e7e:	3301      	adds	r3, #1
     e80:	2b06      	cmp	r3, #6
     e82:	d1f5      	bne.n	e70 <_sercom_get_sercom_inst_index+0x14>
     e84:	2000      	movs	r0, #0
     e86:	e7f8      	b.n	e7a <_sercom_get_sercom_inst_index+0x1e>
     e88:	0000360c 	.word	0x0000360c

00000e8c <delay_init>:
     e8c:	4770      	bx	lr
	...

00000e90 <arch_ioport_set_port_mode>:
     e90:	4b15      	ldr	r3, [pc, #84]	; (ee8 <arch_ioport_set_port_mode+0x58>)
     e92:	01c0      	lsls	r0, r0, #7
     e94:	18c0      	adds	r0, r0, r3
     e96:	2330      	movs	r3, #48	; 0x30
     e98:	b570      	push	{r4, r5, r6, lr}
     e9a:	421a      	tst	r2, r3
     e9c:	d01c      	beq.n	ed8 <arch_ioport_set_port_mode+0x48>
     e9e:	25c0      	movs	r5, #192	; 0xc0
     ea0:	02ed      	lsls	r5, r5, #11
     ea2:	0613      	lsls	r3, r2, #24
     ea4:	d502      	bpl.n	eac <arch_ioport_set_port_mode+0x1c>
     ea6:	2380      	movs	r3, #128	; 0x80
     ea8:	03db      	lsls	r3, r3, #15
     eaa:	431d      	orrs	r5, r3
     eac:	23f0      	movs	r3, #240	; 0xf0
     eae:	24a0      	movs	r4, #160	; 0xa0
     eb0:	051b      	lsls	r3, r3, #20
     eb2:	0616      	lsls	r6, r2, #24
     eb4:	401e      	ands	r6, r3
     eb6:	05e4      	lsls	r4, r4, #23
     eb8:	b28b      	uxth	r3, r1
     eba:	431c      	orrs	r4, r3
     ebc:	23d0      	movs	r3, #208	; 0xd0
     ebe:	4334      	orrs	r4, r6
     ec0:	432c      	orrs	r4, r5
     ec2:	6284      	str	r4, [r0, #40]	; 0x28
     ec4:	061b      	lsls	r3, r3, #24
     ec6:	0c0c      	lsrs	r4, r1, #16
     ec8:	4323      	orrs	r3, r4
     eca:	4333      	orrs	r3, r6
     ecc:	432b      	orrs	r3, r5
     ece:	6283      	str	r3, [r0, #40]	; 0x28
     ed0:	0693      	lsls	r3, r2, #26
     ed2:	d504      	bpl.n	ede <arch_ioport_set_port_mode+0x4e>
     ed4:	6141      	str	r1, [r0, #20]
     ed6:	bd70      	pop	{r4, r5, r6, pc}
     ed8:	2580      	movs	r5, #128	; 0x80
     eda:	02ad      	lsls	r5, r5, #10
     edc:	e7e1      	b.n	ea2 <arch_ioport_set_port_mode+0x12>
     ede:	06d3      	lsls	r3, r2, #27
     ee0:	d5f9      	bpl.n	ed6 <arch_ioport_set_port_mode+0x46>
     ee2:	6181      	str	r1, [r0, #24]
     ee4:	e7f7      	b.n	ed6 <arch_ioport_set_port_mode+0x46>
     ee6:	46c0      	nop			; (mov r8, r8)
     ee8:	40002800 	.word	0x40002800

00000eec <system_board_init>:
     eec:	b570      	push	{r4, r5, r6, lr}
     eee:	2680      	movs	r6, #128	; 0x80
     ef0:	2580      	movs	r5, #128	; 0x80
     ef2:	03f6      	lsls	r6, r6, #15
     ef4:	4c16      	ldr	r4, [pc, #88]	; (f50 <system_board_init+0x64>)
     ef6:	0031      	movs	r1, r6
     ef8:	042d      	lsls	r5, r5, #16
     efa:	2202      	movs	r2, #2
     efc:	2000      	movs	r0, #0
     efe:	47a0      	blx	r4
     f00:	0029      	movs	r1, r5
     f02:	2202      	movs	r2, #2
     f04:	2000      	movs	r0, #0
     f06:	47a0      	blx	r4
     f08:	2201      	movs	r2, #1
     f0a:	2104      	movs	r1, #4
     f0c:	2000      	movs	r0, #0
     f0e:	47a0      	blx	r4
     f10:	2201      	movs	r2, #1
     f12:	2180      	movs	r1, #128	; 0x80
     f14:	0010      	movs	r0, r2
     f16:	0049      	lsls	r1, r1, #1
     f18:	47a0      	blx	r4
     f1a:	2201      	movs	r2, #1
     f1c:	2180      	movs	r1, #128	; 0x80
     f1e:	0010      	movs	r0, r2
     f20:	0089      	lsls	r1, r1, #2
     f22:	47a0      	blx	r4
     f24:	2201      	movs	r2, #1
     f26:	2110      	movs	r1, #16
     f28:	2000      	movs	r0, #0
     f2a:	47a0      	blx	r4
     f2c:	2201      	movs	r2, #1
     f2e:	2120      	movs	r1, #32
     f30:	2000      	movs	r0, #0
     f32:	47a0      	blx	r4
     f34:	2201      	movs	r2, #1
     f36:	2104      	movs	r1, #4
     f38:	0010      	movs	r0, r2
     f3a:	47a0      	blx	r4
     f3c:	0031      	movs	r1, r6
     f3e:	2203      	movs	r2, #3
     f40:	2001      	movs	r0, #1
     f42:	47a0      	blx	r4
     f44:	0029      	movs	r1, r5
     f46:	2203      	movs	r2, #3
     f48:	2001      	movs	r0, #1
     f4a:	47a0      	blx	r4
     f4c:	bd70      	pop	{r4, r5, r6, pc}
     f4e:	46c0      	nop			; (mov r8, r8)
     f50:	00000e91 	.word	0x00000e91

00000f54 <cpu_irq_enter_critical>:
     f54:	4b09      	ldr	r3, [pc, #36]	; (f7c <cpu_irq_enter_critical+0x28>)
     f56:	6819      	ldr	r1, [r3, #0]
     f58:	2900      	cmp	r1, #0
     f5a:	d10b      	bne.n	f74 <cpu_irq_enter_critical+0x20>
     f5c:	f3ef 8010 	mrs	r0, PRIMASK
     f60:	4a07      	ldr	r2, [pc, #28]	; (f80 <cpu_irq_enter_critical+0x2c>)
     f62:	2800      	cmp	r0, #0
     f64:	d105      	bne.n	f72 <cpu_irq_enter_critical+0x1e>
     f66:	b672      	cpsid	i
     f68:	f3bf 8f5f 	dmb	sy
     f6c:	4905      	ldr	r1, [pc, #20]	; (f84 <cpu_irq_enter_critical+0x30>)
     f6e:	7008      	strb	r0, [r1, #0]
     f70:	2101      	movs	r1, #1
     f72:	7011      	strb	r1, [r2, #0]
     f74:	681a      	ldr	r2, [r3, #0]
     f76:	3201      	adds	r2, #1
     f78:	601a      	str	r2, [r3, #0]
     f7a:	4770      	bx	lr
     f7c:	2000008c 	.word	0x2000008c
     f80:	20000090 	.word	0x20000090
     f84:	2000000c 	.word	0x2000000c

00000f88 <cpu_irq_leave_critical>:
     f88:	4b08      	ldr	r3, [pc, #32]	; (fac <cpu_irq_leave_critical+0x24>)
     f8a:	681a      	ldr	r2, [r3, #0]
     f8c:	3a01      	subs	r2, #1
     f8e:	601a      	str	r2, [r3, #0]
     f90:	681b      	ldr	r3, [r3, #0]
     f92:	2b00      	cmp	r3, #0
     f94:	d109      	bne.n	faa <cpu_irq_leave_critical+0x22>
     f96:	4b06      	ldr	r3, [pc, #24]	; (fb0 <cpu_irq_leave_critical+0x28>)
     f98:	781b      	ldrb	r3, [r3, #0]
     f9a:	2b00      	cmp	r3, #0
     f9c:	d005      	beq.n	faa <cpu_irq_leave_critical+0x22>
     f9e:	2201      	movs	r2, #1
     fa0:	4b04      	ldr	r3, [pc, #16]	; (fb4 <cpu_irq_leave_critical+0x2c>)
     fa2:	701a      	strb	r2, [r3, #0]
     fa4:	f3bf 8f5f 	dmb	sy
     fa8:	b662      	cpsie	i
     faa:	4770      	bx	lr
     fac:	2000008c 	.word	0x2000008c
     fb0:	20000090 	.word	0x20000090
     fb4:	2000000c 	.word	0x2000000c

00000fb8 <_system_dfll_wait_for_sync>:
     fb8:	2380      	movs	r3, #128	; 0x80
     fba:	4903      	ldr	r1, [pc, #12]	; (fc8 <_system_dfll_wait_for_sync+0x10>)
     fbc:	005b      	lsls	r3, r3, #1
     fbe:	68ca      	ldr	r2, [r1, #12]
     fc0:	421a      	tst	r2, r3
     fc2:	d0fc      	beq.n	fbe <_system_dfll_wait_for_sync+0x6>
     fc4:	4770      	bx	lr
     fc6:	46c0      	nop			; (mov r8, r8)
     fc8:	40000c00 	.word	0x40000c00

00000fcc <system_switch_performance_level>:
     fcc:	2380      	movs	r3, #128	; 0x80
     fce:	05db      	lsls	r3, r3, #23
     fd0:	789a      	ldrb	r2, [r3, #2]
     fd2:	4282      	cmp	r2, r0
     fd4:	d102      	bne.n	fdc <system_switch_performance_level+0x10>
     fd6:	2100      	movs	r1, #0
     fd8:	0008      	movs	r0, r1
     fda:	4770      	bx	lr
     fdc:	789a      	ldrb	r2, [r3, #2]
     fde:	2117      	movs	r1, #23
     fe0:	b252      	sxtb	r2, r2
     fe2:	2a00      	cmp	r2, #0
     fe4:	dbf8      	blt.n	fd8 <system_switch_performance_level+0xc>
     fe6:	2201      	movs	r2, #1
     fe8:	719a      	strb	r2, [r3, #6]
     fea:	7098      	strb	r0, [r3, #2]
     fec:	799a      	ldrb	r2, [r3, #6]
     fee:	2a00      	cmp	r2, #0
     ff0:	d0fc      	beq.n	fec <system_switch_performance_level+0x20>
     ff2:	e7f0      	b.n	fd6 <system_switch_performance_level+0xa>

00000ff4 <system_clock_source_get_hz>:
     ff4:	b570      	push	{r4, r5, r6, lr}
     ff6:	2808      	cmp	r0, #8
     ff8:	d806      	bhi.n	1008 <system_clock_source_get_hz+0x14>
     ffa:	f000 fad9 	bl	15b0 <__gnu_thumb1_case_uqi>
     ffe:	0508      	.short	0x0508
    1000:	13303005 	.word	0x13303005
    1004:	160b      	.short	0x160b
    1006:	28          	.byte	0x28
    1007:	00          	.byte	0x00
    1008:	2400      	movs	r4, #0
    100a:	0020      	movs	r0, r4
    100c:	bd70      	pop	{r4, r5, r6, pc}
    100e:	4b16      	ldr	r3, [pc, #88]	; (1068 <system_clock_source_get_hz+0x74>)
    1010:	691c      	ldr	r4, [r3, #16]
    1012:	e7fa      	b.n	100a <system_clock_source_get_hz+0x16>
    1014:	4b15      	ldr	r3, [pc, #84]	; (106c <system_clock_source_get_hz+0x78>)
    1016:	7d1c      	ldrb	r4, [r3, #20]
    1018:	0724      	lsls	r4, r4, #28
    101a:	0fa4      	lsrs	r4, r4, #30
    101c:	1c60      	adds	r0, r4, #1
    101e:	4c14      	ldr	r4, [pc, #80]	; (1070 <system_clock_source_get_hz+0x7c>)
    1020:	4344      	muls	r4, r0
    1022:	e7f2      	b.n	100a <system_clock_source_get_hz+0x16>
    1024:	4b10      	ldr	r3, [pc, #64]	; (1068 <system_clock_source_get_hz+0x74>)
    1026:	695c      	ldr	r4, [r3, #20]
    1028:	e7ef      	b.n	100a <system_clock_source_get_hz+0x16>
    102a:	4d0f      	ldr	r5, [pc, #60]	; (1068 <system_clock_source_get_hz+0x74>)
    102c:	2400      	movs	r4, #0
    102e:	682b      	ldr	r3, [r5, #0]
    1030:	079b      	lsls	r3, r3, #30
    1032:	d5ea      	bpl.n	100a <system_clock_source_get_hz+0x16>
    1034:	4b0f      	ldr	r3, [pc, #60]	; (1074 <system_clock_source_get_hz+0x80>)
    1036:	4798      	blx	r3
    1038:	2224      	movs	r2, #36	; 0x24
    103a:	682b      	ldr	r3, [r5, #0]
    103c:	4013      	ands	r3, r2
    103e:	2b04      	cmp	r3, #4
    1040:	d110      	bne.n	1064 <system_clock_source_get_hz+0x70>
    1042:	0020      	movs	r0, r4
    1044:	4b0c      	ldr	r3, [pc, #48]	; (1078 <system_clock_source_get_hz+0x84>)
    1046:	4798      	blx	r3
    1048:	68ac      	ldr	r4, [r5, #8]
    104a:	b2a4      	uxth	r4, r4
    104c:	e7e8      	b.n	1020 <system_clock_source_get_hz+0x2c>
    104e:	4b0b      	ldr	r3, [pc, #44]	; (107c <system_clock_source_get_hz+0x88>)
    1050:	2400      	movs	r4, #0
    1052:	781b      	ldrb	r3, [r3, #0]
    1054:	079b      	lsls	r3, r3, #30
    1056:	d5d8      	bpl.n	100a <system_clock_source_get_hz+0x16>
    1058:	4b03      	ldr	r3, [pc, #12]	; (1068 <system_clock_source_get_hz+0x74>)
    105a:	68dc      	ldr	r4, [r3, #12]
    105c:	e7d5      	b.n	100a <system_clock_source_get_hz+0x16>
    105e:	2480      	movs	r4, #128	; 0x80
    1060:	0224      	lsls	r4, r4, #8
    1062:	e7d2      	b.n	100a <system_clock_source_get_hz+0x16>
    1064:	4c06      	ldr	r4, [pc, #24]	; (1080 <system_clock_source_get_hz+0x8c>)
    1066:	e7d0      	b.n	100a <system_clock_source_get_hz+0x16>
    1068:	20000094 	.word	0x20000094
    106c:	40000c00 	.word	0x40000c00
    1070:	003d0900 	.word	0x003d0900
    1074:	00000fb9 	.word	0x00000fb9
    1078:	00001325 	.word	0x00001325
    107c:	40000c28 	.word	0x40000c28
    1080:	02dc6c00 	.word	0x02dc6c00

00001084 <system_clock_init>:
    1084:	b57f      	push	{r0, r1, r2, r3, r4, r5, r6, lr}
    1086:	2380      	movs	r3, #128	; 0x80
    1088:	2203      	movs	r2, #3
    108a:	211e      	movs	r1, #30
    108c:	4c1b      	ldr	r4, [pc, #108]	; (10fc <system_clock_init+0x78>)
    108e:	005b      	lsls	r3, r3, #1
    1090:	60a3      	str	r3, [r4, #8]
    1092:	4b1b      	ldr	r3, [pc, #108]	; (1100 <system_clock_init+0x7c>)
    1094:	2002      	movs	r0, #2
    1096:	609a      	str	r2, [r3, #8]
    1098:	4a1a      	ldr	r2, [pc, #104]	; (1104 <system_clock_init+0x80>)
    109a:	4d1b      	ldr	r5, [pc, #108]	; (1108 <system_clock_init+0x84>)
    109c:	6853      	ldr	r3, [r2, #4]
    109e:	4e1b      	ldr	r6, [pc, #108]	; (110c <system_clock_init+0x88>)
    10a0:	438b      	bics	r3, r1
    10a2:	6053      	str	r3, [r2, #4]
    10a4:	47a8      	blx	r5
    10a6:	2380      	movs	r3, #128	; 0x80
    10a8:	7d22      	ldrb	r2, [r4, #20]
    10aa:	425b      	negs	r3, r3
    10ac:	4313      	orrs	r3, r2
    10ae:	2240      	movs	r2, #64	; 0x40
    10b0:	7523      	strb	r3, [r4, #20]
    10b2:	7d23      	ldrb	r3, [r4, #20]
    10b4:	4393      	bics	r3, r2
    10b6:	7523      	strb	r3, [r4, #20]
    10b8:	4b15      	ldr	r3, [pc, #84]	; (1110 <system_clock_init+0x8c>)
    10ba:	4798      	blx	r3
    10bc:	2301      	movs	r3, #1
    10be:	2400      	movs	r4, #0
    10c0:	a901      	add	r1, sp, #4
    10c2:	71b3      	strb	r3, [r6, #6]
    10c4:	7173      	strb	r3, [r6, #5]
    10c6:	7133      	strb	r3, [r6, #4]
    10c8:	604b      	str	r3, [r1, #4]
    10ca:	3305      	adds	r3, #5
    10cc:	700b      	strb	r3, [r1, #0]
    10ce:	0020      	movs	r0, r4
    10d0:	4b10      	ldr	r3, [pc, #64]	; (1114 <system_clock_init+0x90>)
    10d2:	704c      	strb	r4, [r1, #1]
    10d4:	720c      	strb	r4, [r1, #8]
    10d6:	724c      	strb	r4, [r1, #9]
    10d8:	4798      	blx	r3
    10da:	0020      	movs	r0, r4
    10dc:	4b0e      	ldr	r3, [pc, #56]	; (1118 <system_clock_init+0x94>)
    10de:	4798      	blx	r3
    10e0:	4b0e      	ldr	r3, [pc, #56]	; (111c <system_clock_init+0x98>)
    10e2:	0020      	movs	r0, r4
    10e4:	4798      	blx	r3
    10e6:	7931      	ldrb	r1, [r6, #4]
    10e8:	4b0d      	ldr	r3, [pc, #52]	; (1120 <system_clock_init+0x9c>)
    10ea:	b2c9      	uxtb	r1, r1
    10ec:	4798      	blx	r3
    10ee:	4b0d      	ldr	r3, [pc, #52]	; (1124 <system_clock_init+0xa0>)
    10f0:	4298      	cmp	r0, r3
    10f2:	d801      	bhi.n	10f8 <system_clock_init+0x74>
    10f4:	0020      	movs	r0, r4
    10f6:	47a8      	blx	r5
    10f8:	bd7f      	pop	{r0, r1, r2, r3, r4, r5, r6, pc}
    10fa:	46c0      	nop			; (mov r8, r8)
    10fc:	40000c00 	.word	0x40000c00
    1100:	40001400 	.word	0x40001400
    1104:	41004000 	.word	0x41004000
    1108:	00000fcd 	.word	0x00000fcd
    110c:	40000400 	.word	0x40000400
    1110:	00001149 	.word	0x00001149
    1114:	00001169 	.word	0x00001169
    1118:	00001201 	.word	0x00001201
    111c:	00001239 	.word	0x00001239
    1120:	000015c5 	.word	0x000015c5
    1124:	00b71b00 	.word	0x00b71b00

00001128 <system_gclk_is_syncing>:
    1128:	2204      	movs	r2, #4
    112a:	4082      	lsls	r2, r0
    112c:	4b04      	ldr	r3, [pc, #16]	; (1140 <system_gclk_is_syncing+0x18>)
    112e:	4805      	ldr	r0, [pc, #20]	; (1144 <system_gclk_is_syncing+0x1c>)
    1130:	685b      	ldr	r3, [r3, #4]
    1132:	4018      	ands	r0, r3
    1134:	4010      	ands	r0, r2
    1136:	1e43      	subs	r3, r0, #1
    1138:	4198      	sbcs	r0, r3
    113a:	b2c0      	uxtb	r0, r0
    113c:	4770      	bx	lr
    113e:	46c0      	nop			; (mov r8, r8)
    1140:	40001800 	.word	0x40001800
    1144:	000007fc 	.word	0x000007fc

00001148 <system_gclk_init>:
    1148:	2340      	movs	r3, #64	; 0x40
    114a:	4a05      	ldr	r2, [pc, #20]	; (1160 <system_gclk_init+0x18>)
    114c:	6951      	ldr	r1, [r2, #20]
    114e:	430b      	orrs	r3, r1
    1150:	6153      	str	r3, [r2, #20]
    1152:	2301      	movs	r3, #1
    1154:	4a03      	ldr	r2, [pc, #12]	; (1164 <system_gclk_init+0x1c>)
    1156:	7013      	strb	r3, [r2, #0]
    1158:	7811      	ldrb	r1, [r2, #0]
    115a:	4219      	tst	r1, r3
    115c:	d1fc      	bne.n	1158 <system_gclk_init+0x10>
    115e:	4770      	bx	lr
    1160:	40000400 	.word	0x40000400
    1164:	40001800 	.word	0x40001800

00001168 <system_gclk_gen_set_config>:
    1168:	b570      	push	{r4, r5, r6, lr}
    116a:	784b      	ldrb	r3, [r1, #1]
    116c:	0005      	movs	r5, r0
    116e:	780c      	ldrb	r4, [r1, #0]
    1170:	2b00      	cmp	r3, #0
    1172:	d002      	beq.n	117a <system_gclk_gen_set_config+0x12>
    1174:	2380      	movs	r3, #128	; 0x80
    1176:	00db      	lsls	r3, r3, #3
    1178:	431c      	orrs	r4, r3
    117a:	7a4b      	ldrb	r3, [r1, #9]
    117c:	2b00      	cmp	r3, #0
    117e:	d002      	beq.n	1186 <system_gclk_gen_set_config+0x1e>
    1180:	2380      	movs	r3, #128	; 0x80
    1182:	011b      	lsls	r3, r3, #4
    1184:	431c      	orrs	r4, r3
    1186:	684a      	ldr	r2, [r1, #4]
    1188:	2a01      	cmp	r2, #1
    118a:	d913      	bls.n	11b4 <system_gclk_gen_set_config+0x4c>
    118c:	1e53      	subs	r3, r2, #1
    118e:	4013      	ands	r3, r2
    1190:	2002      	movs	r0, #2
    1192:	2b00      	cmp	r3, #0
    1194:	d007      	beq.n	11a6 <system_gclk_gen_set_config+0x3e>
    1196:	2380      	movs	r3, #128	; 0x80
    1198:	0412      	lsls	r2, r2, #16
    119a:	009b      	lsls	r3, r3, #2
    119c:	431a      	orrs	r2, r3
    119e:	4314      	orrs	r4, r2
    11a0:	e008      	b.n	11b4 <system_gclk_gen_set_config+0x4c>
    11a2:	3301      	adds	r3, #1
    11a4:	0040      	lsls	r0, r0, #1
    11a6:	4290      	cmp	r0, r2
    11a8:	d3fb      	bcc.n	11a2 <system_gclk_gen_set_config+0x3a>
    11aa:	2280      	movs	r2, #128	; 0x80
    11ac:	0152      	lsls	r2, r2, #5
    11ae:	4314      	orrs	r4, r2
    11b0:	041b      	lsls	r3, r3, #16
    11b2:	431c      	orrs	r4, r3
    11b4:	7a0b      	ldrb	r3, [r1, #8]
    11b6:	2b00      	cmp	r3, #0
    11b8:	d002      	beq.n	11c0 <system_gclk_gen_set_config+0x58>
    11ba:	2380      	movs	r3, #128	; 0x80
    11bc:	019b      	lsls	r3, r3, #6
    11be:	431c      	orrs	r4, r3
    11c0:	0028      	movs	r0, r5
    11c2:	4e0b      	ldr	r6, [pc, #44]	; (11f0 <system_gclk_gen_set_config+0x88>)
    11c4:	47b0      	blx	r6
    11c6:	2800      	cmp	r0, #0
    11c8:	d1fa      	bne.n	11c0 <system_gclk_gen_set_config+0x58>
    11ca:	4b0a      	ldr	r3, [pc, #40]	; (11f4 <system_gclk_gen_set_config+0x8c>)
    11cc:	4798      	blx	r3
    11ce:	2180      	movs	r1, #128	; 0x80
    11d0:	4b09      	ldr	r3, [pc, #36]	; (11f8 <system_gclk_gen_set_config+0x90>)
    11d2:	00aa      	lsls	r2, r5, #2
    11d4:	18d2      	adds	r2, r2, r3
    11d6:	6a13      	ldr	r3, [r2, #32]
    11d8:	0049      	lsls	r1, r1, #1
    11da:	400b      	ands	r3, r1
    11dc:	431c      	orrs	r4, r3
    11de:	6214      	str	r4, [r2, #32]
    11e0:	0028      	movs	r0, r5
    11e2:	47b0      	blx	r6
    11e4:	2800      	cmp	r0, #0
    11e6:	d1fb      	bne.n	11e0 <system_gclk_gen_set_config+0x78>
    11e8:	4b04      	ldr	r3, [pc, #16]	; (11fc <system_gclk_gen_set_config+0x94>)
    11ea:	4798      	blx	r3
    11ec:	bd70      	pop	{r4, r5, r6, pc}
    11ee:	46c0      	nop			; (mov r8, r8)
    11f0:	00001129 	.word	0x00001129
    11f4:	00000f55 	.word	0x00000f55
    11f8:	40001800 	.word	0x40001800
    11fc:	00000f89 	.word	0x00000f89

00001200 <system_gclk_gen_enable>:
    1200:	b510      	push	{r4, lr}
    1202:	0004      	movs	r4, r0
    1204:	0020      	movs	r0, r4
    1206:	4b08      	ldr	r3, [pc, #32]	; (1228 <system_gclk_gen_enable+0x28>)
    1208:	4798      	blx	r3
    120a:	2800      	cmp	r0, #0
    120c:	d1fa      	bne.n	1204 <system_gclk_gen_enable+0x4>
    120e:	4b07      	ldr	r3, [pc, #28]	; (122c <system_gclk_gen_enable+0x2c>)
    1210:	4798      	blx	r3
    1212:	4b07      	ldr	r3, [pc, #28]	; (1230 <system_gclk_gen_enable+0x30>)
    1214:	00a4      	lsls	r4, r4, #2
    1216:	18e4      	adds	r4, r4, r3
    1218:	2380      	movs	r3, #128	; 0x80
    121a:	6a22      	ldr	r2, [r4, #32]
    121c:	005b      	lsls	r3, r3, #1
    121e:	4313      	orrs	r3, r2
    1220:	6223      	str	r3, [r4, #32]
    1222:	4b04      	ldr	r3, [pc, #16]	; (1234 <system_gclk_gen_enable+0x34>)
    1224:	4798      	blx	r3
    1226:	bd10      	pop	{r4, pc}
    1228:	00001129 	.word	0x00001129
    122c:	00000f55 	.word	0x00000f55
    1230:	40001800 	.word	0x40001800
    1234:	00000f89 	.word	0x00000f89

00001238 <system_gclk_gen_get_hz>:
    1238:	b5f8      	push	{r3, r4, r5, r6, r7, lr}
    123a:	0004      	movs	r4, r0
    123c:	0020      	movs	r0, r4
    123e:	4b12      	ldr	r3, [pc, #72]	; (1288 <system_gclk_gen_get_hz+0x50>)
    1240:	4798      	blx	r3
    1242:	2800      	cmp	r0, #0
    1244:	d1fa      	bne.n	123c <system_gclk_gen_get_hz+0x4>
    1246:	4f11      	ldr	r7, [pc, #68]	; (128c <system_gclk_gen_get_hz+0x54>)
    1248:	3408      	adds	r4, #8
    124a:	00a4      	lsls	r4, r4, #2
    124c:	4b10      	ldr	r3, [pc, #64]	; (1290 <system_gclk_gen_get_hz+0x58>)
    124e:	4798      	blx	r3
    1250:	59e0      	ldr	r0, [r4, r7]
    1252:	4b10      	ldr	r3, [pc, #64]	; (1294 <system_gclk_gen_get_hz+0x5c>)
    1254:	0700      	lsls	r0, r0, #28
    1256:	0f00      	lsrs	r0, r0, #28
    1258:	4798      	blx	r3
    125a:	59e6      	ldr	r6, [r4, r7]
    125c:	59e4      	ldr	r4, [r4, r7]
    125e:	04f6      	lsls	r6, r6, #19
    1260:	4b0d      	ldr	r3, [pc, #52]	; (1298 <system_gclk_gen_get_hz+0x60>)
    1262:	0ff6      	lsrs	r6, r6, #31
    1264:	0005      	movs	r5, r0
    1266:	0c24      	lsrs	r4, r4, #16
    1268:	4798      	blx	r3
    126a:	2e00      	cmp	r6, #0
    126c:	d108      	bne.n	1280 <system_gclk_gen_get_hz+0x48>
    126e:	2c01      	cmp	r4, #1
    1270:	d904      	bls.n	127c <system_gclk_gen_get_hz+0x44>
    1272:	0028      	movs	r0, r5
    1274:	0021      	movs	r1, r4
    1276:	4b09      	ldr	r3, [pc, #36]	; (129c <system_gclk_gen_get_hz+0x64>)
    1278:	4798      	blx	r3
    127a:	0005      	movs	r5, r0
    127c:	0028      	movs	r0, r5
    127e:	bdf8      	pop	{r3, r4, r5, r6, r7, pc}
    1280:	3401      	adds	r4, #1
    1282:	40e5      	lsrs	r5, r4
    1284:	e7fa      	b.n	127c <system_gclk_gen_get_hz+0x44>
    1286:	46c0      	nop			; (mov r8, r8)
    1288:	00001129 	.word	0x00001129
    128c:	40001800 	.word	0x40001800
    1290:	00000f55 	.word	0x00000f55
    1294:	00000ff5 	.word	0x00000ff5
    1298:	00000f89 	.word	0x00000f89
    129c:	000015c5 	.word	0x000015c5

000012a0 <system_gclk_chan_enable>:
    12a0:	b510      	push	{r4, lr}
    12a2:	0004      	movs	r4, r0
    12a4:	4b07      	ldr	r3, [pc, #28]	; (12c4 <system_gclk_chan_enable+0x24>)
    12a6:	4798      	blx	r3
    12a8:	4b07      	ldr	r3, [pc, #28]	; (12c8 <system_gclk_chan_enable+0x28>)
    12aa:	00a0      	lsls	r0, r4, #2
    12ac:	18c1      	adds	r1, r0, r3
    12ae:	2340      	movs	r3, #64	; 0x40
    12b0:	0008      	movs	r0, r1
    12b2:	6fca      	ldr	r2, [r1, #124]	; 0x7c
    12b4:	431a      	orrs	r2, r3
    12b6:	67ca      	str	r2, [r1, #124]	; 0x7c
    12b8:	6fc2      	ldr	r2, [r0, #124]	; 0x7c
    12ba:	421a      	tst	r2, r3
    12bc:	d0fc      	beq.n	12b8 <system_gclk_chan_enable+0x18>
    12be:	4b03      	ldr	r3, [pc, #12]	; (12cc <system_gclk_chan_enable+0x2c>)
    12c0:	4798      	blx	r3
    12c2:	bd10      	pop	{r4, pc}
    12c4:	00000f55 	.word	0x00000f55
    12c8:	40001804 	.word	0x40001804
    12cc:	00000f89 	.word	0x00000f89

000012d0 <system_gclk_chan_disable>:
    12d0:	b510      	push	{r4, lr}
    12d2:	0004      	movs	r4, r0
    12d4:	4b07      	ldr	r3, [pc, #28]	; (12f4 <system_gclk_chan_disable+0x24>)
    12d6:	4798      	blx	r3
    12d8:	4b07      	ldr	r3, [pc, #28]	; (12f8 <system_gclk_chan_disable+0x28>)
    12da:	00a0      	lsls	r0, r4, #2
    12dc:	18c1      	adds	r1, r0, r3
    12de:	2340      	movs	r3, #64	; 0x40
    12e0:	0008      	movs	r0, r1
    12e2:	6fca      	ldr	r2, [r1, #124]	; 0x7c
    12e4:	439a      	bics	r2, r3
    12e6:	67ca      	str	r2, [r1, #124]	; 0x7c
    12e8:	6fc2      	ldr	r2, [r0, #124]	; 0x7c
    12ea:	421a      	tst	r2, r3
    12ec:	d1fc      	bne.n	12e8 <system_gclk_chan_disable+0x18>
    12ee:	4b03      	ldr	r3, [pc, #12]	; (12fc <system_gclk_chan_disable+0x2c>)
    12f0:	4798      	blx	r3
    12f2:	bd10      	pop	{r4, pc}
    12f4:	00000f55 	.word	0x00000f55
    12f8:	40001804 	.word	0x40001804
    12fc:	00000f89 	.word	0x00000f89

00001300 <system_gclk_chan_set_config>:
    1300:	b570      	push	{r4, r5, r6, lr}
    1302:	000d      	movs	r5, r1
    1304:	4b05      	ldr	r3, [pc, #20]	; (131c <system_gclk_chan_set_config+0x1c>)
    1306:	0004      	movs	r4, r0
    1308:	4798      	blx	r3
    130a:	220f      	movs	r2, #15
    130c:	782b      	ldrb	r3, [r5, #0]
    130e:	3420      	adds	r4, #32
    1310:	4013      	ands	r3, r2
    1312:	4a03      	ldr	r2, [pc, #12]	; (1320 <system_gclk_chan_set_config+0x20>)
    1314:	00a4      	lsls	r4, r4, #2
    1316:	50a3      	str	r3, [r4, r2]
    1318:	bd70      	pop	{r4, r5, r6, pc}
    131a:	46c0      	nop			; (mov r8, r8)
    131c:	000012d1 	.word	0x000012d1
    1320:	40001800 	.word	0x40001800

00001324 <system_gclk_chan_get_hz>:
    1324:	b510      	push	{r4, lr}
    1326:	0004      	movs	r4, r0
    1328:	4b06      	ldr	r3, [pc, #24]	; (1344 <system_gclk_chan_get_hz+0x20>)
    132a:	4798      	blx	r3
    132c:	3420      	adds	r4, #32
    132e:	4b06      	ldr	r3, [pc, #24]	; (1348 <system_gclk_chan_get_hz+0x24>)
    1330:	00a4      	lsls	r4, r4, #2
    1332:	58e4      	ldr	r4, [r4, r3]
    1334:	4b05      	ldr	r3, [pc, #20]	; (134c <system_gclk_chan_get_hz+0x28>)
    1336:	0724      	lsls	r4, r4, #28
    1338:	0f24      	lsrs	r4, r4, #28
    133a:	4798      	blx	r3
    133c:	0020      	movs	r0, r4
    133e:	4b04      	ldr	r3, [pc, #16]	; (1350 <system_gclk_chan_get_hz+0x2c>)
    1340:	4798      	blx	r3
    1342:	bd10      	pop	{r4, pc}
    1344:	00000f55 	.word	0x00000f55
    1348:	40001800 	.word	0x40001800
    134c:	00000f89 	.word	0x00000f89
    1350:	00001239 	.word	0x00001239

00001354 <_system_pinmux_config>:
    1354:	78d3      	ldrb	r3, [r2, #3]
    1356:	b530      	push	{r4, r5, lr}
    1358:	2b00      	cmp	r3, #0
    135a:	d135      	bne.n	13c8 <_system_pinmux_config+0x74>
    135c:	7814      	ldrb	r4, [r2, #0]
    135e:	2c80      	cmp	r4, #128	; 0x80
    1360:	d003      	beq.n	136a <_system_pinmux_config+0x16>
    1362:	2380      	movs	r3, #128	; 0x80
    1364:	0624      	lsls	r4, r4, #24
    1366:	025b      	lsls	r3, r3, #9
    1368:	4323      	orrs	r3, r4
    136a:	2502      	movs	r5, #2
    136c:	7854      	ldrb	r4, [r2, #1]
    136e:	43ac      	bics	r4, r5
    1370:	d106      	bne.n	1380 <_system_pinmux_config+0x2c>
    1372:	7894      	ldrb	r4, [r2, #2]
    1374:	2c00      	cmp	r4, #0
    1376:	d124      	bne.n	13c2 <_system_pinmux_config+0x6e>
    1378:	2480      	movs	r4, #128	; 0x80
    137a:	02a4      	lsls	r4, r4, #10
    137c:	4323      	orrs	r3, r4
    137e:	6041      	str	r1, [r0, #4]
    1380:	7854      	ldrb	r4, [r2, #1]
    1382:	3c01      	subs	r4, #1
    1384:	2c01      	cmp	r4, #1
    1386:	d801      	bhi.n	138c <_system_pinmux_config+0x38>
    1388:	4c12      	ldr	r4, [pc, #72]	; (13d4 <_system_pinmux_config+0x80>)
    138a:	4023      	ands	r3, r4
    138c:	24a0      	movs	r4, #160	; 0xa0
    138e:	b28d      	uxth	r5, r1
    1390:	05e4      	lsls	r4, r4, #23
    1392:	432c      	orrs	r4, r5
    1394:	431c      	orrs	r4, r3
    1396:	6284      	str	r4, [r0, #40]	; 0x28
    1398:	24d0      	movs	r4, #208	; 0xd0
    139a:	0c0d      	lsrs	r5, r1, #16
    139c:	0624      	lsls	r4, r4, #24
    139e:	432c      	orrs	r4, r5
    13a0:	431c      	orrs	r4, r3
    13a2:	6284      	str	r4, [r0, #40]	; 0x28
    13a4:	78d4      	ldrb	r4, [r2, #3]
    13a6:	2c00      	cmp	r4, #0
    13a8:	d10a      	bne.n	13c0 <_system_pinmux_config+0x6c>
    13aa:	035b      	lsls	r3, r3, #13
    13ac:	d503      	bpl.n	13b6 <_system_pinmux_config+0x62>
    13ae:	7893      	ldrb	r3, [r2, #2]
    13b0:	2b01      	cmp	r3, #1
    13b2:	d10c      	bne.n	13ce <_system_pinmux_config+0x7a>
    13b4:	6181      	str	r1, [r0, #24]
    13b6:	7853      	ldrb	r3, [r2, #1]
    13b8:	3b01      	subs	r3, #1
    13ba:	2b01      	cmp	r3, #1
    13bc:	d800      	bhi.n	13c0 <_system_pinmux_config+0x6c>
    13be:	6081      	str	r1, [r0, #8]
    13c0:	bd30      	pop	{r4, r5, pc}
    13c2:	24c0      	movs	r4, #192	; 0xc0
    13c4:	02e4      	lsls	r4, r4, #11
    13c6:	e7d9      	b.n	137c <_system_pinmux_config+0x28>
    13c8:	6041      	str	r1, [r0, #4]
    13ca:	2300      	movs	r3, #0
    13cc:	e7de      	b.n	138c <_system_pinmux_config+0x38>
    13ce:	6141      	str	r1, [r0, #20]
    13d0:	e7f1      	b.n	13b6 <_system_pinmux_config+0x62>
    13d2:	46c0      	nop			; (mov r8, r8)
    13d4:	fffbffff 	.word	0xfffbffff

000013d8 <system_pinmux_pin_set_config>:
    13d8:	b510      	push	{r4, lr}
    13da:	0003      	movs	r3, r0
    13dc:	000a      	movs	r2, r1
    13de:	0944      	lsrs	r4, r0, #5
    13e0:	09c1      	lsrs	r1, r0, #7
    13e2:	2000      	movs	r0, #0
    13e4:	4281      	cmp	r1, r0
    13e6:	d102      	bne.n	13ee <system_pinmux_pin_set_config+0x16>
    13e8:	4904      	ldr	r1, [pc, #16]	; (13fc <system_pinmux_pin_set_config+0x24>)
    13ea:	01e0      	lsls	r0, r4, #7
    13ec:	1840      	adds	r0, r0, r1
    13ee:	211f      	movs	r1, #31
    13f0:	400b      	ands	r3, r1
    13f2:	391e      	subs	r1, #30
    13f4:	4099      	lsls	r1, r3
    13f6:	4b02      	ldr	r3, [pc, #8]	; (1400 <system_pinmux_pin_set_config+0x28>)
    13f8:	4798      	blx	r3
    13fa:	bd10      	pop	{r4, pc}
    13fc:	40002800 	.word	0x40002800
    1400:	00001355 	.word	0x00001355

00001404 <_system_dummy_init>:
    1404:	4770      	bx	lr
	...

00001408 <system_init>:
    1408:	b510      	push	{r4, lr}
    140a:	4b05      	ldr	r3, [pc, #20]	; (1420 <system_init+0x18>)
    140c:	4798      	blx	r3
    140e:	4b05      	ldr	r3, [pc, #20]	; (1424 <system_init+0x1c>)
    1410:	4798      	blx	r3
    1412:	4b05      	ldr	r3, [pc, #20]	; (1428 <system_init+0x20>)
    1414:	4798      	blx	r3
    1416:	4b05      	ldr	r3, [pc, #20]	; (142c <system_init+0x24>)
    1418:	4798      	blx	r3
    141a:	4b05      	ldr	r3, [pc, #20]	; (1430 <system_init+0x28>)
    141c:	4798      	blx	r3
    141e:	bd10      	pop	{r4, pc}
    1420:	00001085 	.word	0x00001085
    1424:	00000eed 	.word	0x00000eed
    1428:	00001405 	.word	0x00001405
    142c:	00001405 	.word	0x00001405
    1430:	00001405 	.word	0x00001405

00001434 <Dummy_Handler>:
    1434:	e7fe      	b.n	1434 <Dummy_Handler>
	...

00001438 <Reset_Handler>:
    1438:	4811      	ldr	r0, [pc, #68]	; (1480 <Reset_Handler+0x48>)
    143a:	4912      	ldr	r1, [pc, #72]	; (1484 <Reset_Handler+0x4c>)
    143c:	b570      	push	{r4, r5, r6, lr}
    143e:	4288      	cmp	r0, r1
    1440:	d004      	beq.n	144c <Reset_Handler+0x14>
    1442:	2300      	movs	r3, #0
    1444:	4c10      	ldr	r4, [pc, #64]	; (1488 <Reset_Handler+0x50>)
    1446:	18ca      	adds	r2, r1, r3
    1448:	42a2      	cmp	r2, r4
    144a:	d313      	bcc.n	1474 <Reset_Handler+0x3c>
    144c:	2100      	movs	r1, #0
    144e:	4b0f      	ldr	r3, [pc, #60]	; (148c <Reset_Handler+0x54>)
    1450:	4a0f      	ldr	r2, [pc, #60]	; (1490 <Reset_Handler+0x58>)
    1452:	4293      	cmp	r3, r2
    1454:	d312      	bcc.n	147c <Reset_Handler+0x44>
    1456:	21ff      	movs	r1, #255	; 0xff
    1458:	4b0e      	ldr	r3, [pc, #56]	; (1494 <Reset_Handler+0x5c>)
    145a:	4a0f      	ldr	r2, [pc, #60]	; (1498 <Reset_Handler+0x60>)
    145c:	438b      	bics	r3, r1
    145e:	6093      	str	r3, [r2, #8]
    1460:	2380      	movs	r3, #128	; 0x80
    1462:	4a0e      	ldr	r2, [pc, #56]	; (149c <Reset_Handler+0x64>)
    1464:	6851      	ldr	r1, [r2, #4]
    1466:	430b      	orrs	r3, r1
    1468:	6053      	str	r3, [r2, #4]
    146a:	4b0d      	ldr	r3, [pc, #52]	; (14a0 <Reset_Handler+0x68>)
    146c:	4798      	blx	r3
    146e:	4b0d      	ldr	r3, [pc, #52]	; (14a4 <Reset_Handler+0x6c>)
    1470:	4798      	blx	r3
    1472:	e7fe      	b.n	1472 <Reset_Handler+0x3a>
    1474:	58c5      	ldr	r5, [r0, r3]
    1476:	3304      	adds	r3, #4
    1478:	6015      	str	r5, [r2, #0]
    147a:	e7e4      	b.n	1446 <Reset_Handler+0xe>
    147c:	c302      	stmia	r3!, {r1}
    147e:	e7e8      	b.n	1452 <Reset_Handler+0x1a>
    1480:	000036cc 	.word	0x000036cc
    1484:	20000000 	.word	0x20000000
    1488:	20000010 	.word	0x20000010
    148c:	20000010 	.word	0x20000010
    1490:	200000b4 	.word	0x200000b4
    1494:	00000000 	.word	0x00000000
    1498:	e000ed00 	.word	0xe000ed00
    149c:	41004000 	.word	0x41004000
    14a0:	000035a1 	.word	0x000035a1
    14a4:	000014a9 	.word	0x000014a9

000014a8 <main>:
    14a8:	b5f0      	push	{r4, r5, r6, r7, lr}
    14aa:	2500      	movs	r5, #0
    14ac:	b087      	sub	sp, #28
    14ae:	4b31      	ldr	r3, [pc, #196]	; (1574 <main+0xcc>)
    14b0:	4798      	blx	r3
    14b2:	4b31      	ldr	r3, [pc, #196]	; (1578 <main+0xd0>)
    14b4:	4798      	blx	r3
    14b6:	4b31      	ldr	r3, [pc, #196]	; (157c <main+0xd4>)
    14b8:	2000      	movs	r0, #0
    14ba:	4798      	blx	r3
    14bc:	4c30      	ldr	r4, [pc, #192]	; (1580 <main+0xd8>)
    14be:	2232      	movs	r2, #50	; 0x32
    14c0:	2300      	movs	r3, #0
    14c2:	0029      	movs	r1, r5
    14c4:	47a0      	blx	r4
    14c6:	2700      	movs	r7, #0
    14c8:	4e2e      	ldr	r6, [pc, #184]	; (1584 <main+0xdc>)
    14ca:	4a2f      	ldr	r2, [pc, #188]	; (1588 <main+0xe0>)
    14cc:	2300      	movs	r3, #0
    14ce:	4c2f      	ldr	r4, [pc, #188]	; (158c <main+0xe4>)
    14d0:	1980      	adds	r0, r0, r6
    14d2:	4179      	adcs	r1, r7
    14d4:	47a0      	blx	r4
    14d6:	4c2e      	ldr	r4, [pc, #184]	; (1590 <main+0xe8>)
    14d8:	47a0      	blx	r4
    14da:	2380      	movs	r3, #128	; 0x80
    14dc:	05db      	lsls	r3, r3, #23
    14de:	789a      	ldrb	r2, [r3, #2]
    14e0:	42aa      	cmp	r2, r5
    14e2:	d13c      	bne.n	155e <main+0xb6>
    14e4:	4b2b      	ldr	r3, [pc, #172]	; (1594 <main+0xec>)
    14e6:	492c      	ldr	r1, [pc, #176]	; (1598 <main+0xf0>)
    14e8:	699a      	ldr	r2, [r3, #24]
    14ea:	2020      	movs	r0, #32
    14ec:	0212      	lsls	r2, r2, #8
    14ee:	0a12      	lsrs	r2, r2, #8
    14f0:	619a      	str	r2, [r3, #24]
    14f2:	699a      	ldr	r2, [r3, #24]
    14f4:	400a      	ands	r2, r1
    14f6:	2140      	movs	r1, #64	; 0x40
    14f8:	619a      	str	r2, [r3, #24]
    14fa:	699a      	ldr	r2, [r3, #24]
    14fc:	438a      	bics	r2, r1
    14fe:	619a      	str	r2, [r3, #24]
    1500:	699a      	ldr	r2, [r3, #24]
    1502:	3934      	subs	r1, #52	; 0x34
    1504:	438a      	bics	r2, r1
    1506:	0011      	movs	r1, r2
    1508:	2204      	movs	r2, #4
    150a:	430a      	orrs	r2, r1
    150c:	619a      	str	r2, [r3, #24]
    150e:	2280      	movs	r2, #128	; 0x80
    1510:	6999      	ldr	r1, [r3, #24]
    1512:	0052      	lsls	r2, r2, #1
    1514:	4311      	orrs	r1, r2
    1516:	6199      	str	r1, [r3, #24]
    1518:	6999      	ldr	r1, [r3, #24]
    151a:	4381      	bics	r1, r0
    151c:	6199      	str	r1, [r3, #24]
    151e:	68d9      	ldr	r1, [r3, #12]
    1520:	4211      	tst	r1, r2
    1522:	d0fc      	beq.n	151e <main+0x76>
    1524:	4b1d      	ldr	r3, [pc, #116]	; (159c <main+0xf4>)
    1526:	4798      	blx	r3
    1528:	4b1d      	ldr	r3, [pc, #116]	; (15a0 <main+0xf8>)
    152a:	4798      	blx	r3
    152c:	4b1d      	ldr	r3, [pc, #116]	; (15a4 <main+0xfc>)
    152e:	4798      	blx	r3
    1530:	4b12      	ldr	r3, [pc, #72]	; (157c <main+0xd4>)
    1532:	2000      	movs	r0, #0
    1534:	4798      	blx	r3
    1536:	22fa      	movs	r2, #250	; 0xfa
    1538:	4d11      	ldr	r5, [pc, #68]	; (1580 <main+0xd8>)
    153a:	0092      	lsls	r2, r2, #2
    153c:	2300      	movs	r3, #0
    153e:	2100      	movs	r1, #0
    1540:	47a8      	blx	r5
    1542:	4a11      	ldr	r2, [pc, #68]	; (1588 <main+0xe0>)
    1544:	2300      	movs	r3, #0
    1546:	4d11      	ldr	r5, [pc, #68]	; (158c <main+0xe4>)
    1548:	1980      	adds	r0, r0, r6
    154a:	4179      	adcs	r1, r7
    154c:	47a8      	blx	r5
    154e:	47a0      	blx	r4
    1550:	a803      	add	r0, sp, #12
    1552:	4b15      	ldr	r3, [pc, #84]	; (15a8 <main+0x100>)
    1554:	4798      	blx	r3
    1556:	a801      	add	r0, sp, #4
    1558:	4b14      	ldr	r3, [pc, #80]	; (15ac <main+0x104>)
    155a:	4798      	blx	r3
    155c:	e7e8      	b.n	1530 <main+0x88>
    155e:	789a      	ldrb	r2, [r3, #2]
    1560:	b252      	sxtb	r2, r2
    1562:	2a00      	cmp	r2, #0
    1564:	dbbe      	blt.n	14e4 <main+0x3c>
    1566:	2201      	movs	r2, #1
    1568:	719a      	strb	r2, [r3, #6]
    156a:	709d      	strb	r5, [r3, #2]
    156c:	799a      	ldrb	r2, [r3, #6]
    156e:	2a00      	cmp	r2, #0
    1570:	d0fc      	beq.n	156c <main+0xc4>
    1572:	e7b7      	b.n	14e4 <main+0x3c>
    1574:	00001409 	.word	0x00001409
    1578:	00000e8d 	.word	0x00000e8d
    157c:	00001239 	.word	0x00001239
    1580:	00001765 	.word	0x00001765
    1584:	00001b57 	.word	0x00001b57
    1588:	00001b58 	.word	0x00001b58
    158c:	00001725 	.word	0x00001725
    1590:	20000001 	.word	0x20000001
    1594:	40001400 	.word	0x40001400
    1598:	fff0ffff 	.word	0xfff0ffff
    159c:	00000a85 	.word	0x00000a85
    15a0:	00000bc1 	.word	0x00000bc1
    15a4:	0000075d 	.word	0x0000075d
    15a8:	00000c45 	.word	0x00000c45
    15ac:	00000a35 	.word	0x00000a35

000015b0 <__gnu_thumb1_case_uqi>:
    15b0:	b402      	push	{r1}
    15b2:	4671      	mov	r1, lr
    15b4:	0849      	lsrs	r1, r1, #1
    15b6:	0049      	lsls	r1, r1, #1
    15b8:	5c09      	ldrb	r1, [r1, r0]
    15ba:	0049      	lsls	r1, r1, #1
    15bc:	448e      	add	lr, r1
    15be:	bc02      	pop	{r1}
    15c0:	4770      	bx	lr
    15c2:	46c0      	nop			; (mov r8, r8)

000015c4 <__udivsi3>:
    15c4:	2200      	movs	r2, #0
    15c6:	0843      	lsrs	r3, r0, #1
    15c8:	428b      	cmp	r3, r1
    15ca:	d374      	bcc.n	16b6 <__udivsi3+0xf2>
    15cc:	0903      	lsrs	r3, r0, #4
    15ce:	428b      	cmp	r3, r1
    15d0:	d35f      	bcc.n	1692 <__udivsi3+0xce>
    15d2:	0a03      	lsrs	r3, r0, #8
    15d4:	428b      	cmp	r3, r1
    15d6:	d344      	bcc.n	1662 <__udivsi3+0x9e>
    15d8:	0b03      	lsrs	r3, r0, #12
    15da:	428b      	cmp	r3, r1
    15dc:	d328      	bcc.n	1630 <__udivsi3+0x6c>
    15de:	0c03      	lsrs	r3, r0, #16
    15e0:	428b      	cmp	r3, r1
    15e2:	d30d      	bcc.n	1600 <__udivsi3+0x3c>
    15e4:	22ff      	movs	r2, #255	; 0xff
    15e6:	0209      	lsls	r1, r1, #8
    15e8:	ba12      	rev	r2, r2
    15ea:	0c03      	lsrs	r3, r0, #16
    15ec:	428b      	cmp	r3, r1
    15ee:	d302      	bcc.n	15f6 <__udivsi3+0x32>
    15f0:	1212      	asrs	r2, r2, #8
    15f2:	0209      	lsls	r1, r1, #8
    15f4:	d065      	beq.n	16c2 <__udivsi3+0xfe>
    15f6:	0b03      	lsrs	r3, r0, #12
    15f8:	428b      	cmp	r3, r1
    15fa:	d319      	bcc.n	1630 <__udivsi3+0x6c>
    15fc:	e000      	b.n	1600 <__udivsi3+0x3c>
    15fe:	0a09      	lsrs	r1, r1, #8
    1600:	0bc3      	lsrs	r3, r0, #15
    1602:	428b      	cmp	r3, r1
    1604:	d301      	bcc.n	160a <__udivsi3+0x46>
    1606:	03cb      	lsls	r3, r1, #15
    1608:	1ac0      	subs	r0, r0, r3
    160a:	4152      	adcs	r2, r2
    160c:	0b83      	lsrs	r3, r0, #14
    160e:	428b      	cmp	r3, r1
    1610:	d301      	bcc.n	1616 <__udivsi3+0x52>
    1612:	038b      	lsls	r3, r1, #14
    1614:	1ac0      	subs	r0, r0, r3
    1616:	4152      	adcs	r2, r2
    1618:	0b43      	lsrs	r3, r0, #13
    161a:	428b      	cmp	r3, r1
    161c:	d301      	bcc.n	1622 <__udivsi3+0x5e>
    161e:	034b      	lsls	r3, r1, #13
    1620:	1ac0      	subs	r0, r0, r3
    1622:	4152      	adcs	r2, r2
    1624:	0b03      	lsrs	r3, r0, #12
    1626:	428b      	cmp	r3, r1
    1628:	d301      	bcc.n	162e <__udivsi3+0x6a>
    162a:	030b      	lsls	r3, r1, #12
    162c:	1ac0      	subs	r0, r0, r3
    162e:	4152      	adcs	r2, r2
    1630:	0ac3      	lsrs	r3, r0, #11
    1632:	428b      	cmp	r3, r1
    1634:	d301      	bcc.n	163a <__udivsi3+0x76>
    1636:	02cb      	lsls	r3, r1, #11
    1638:	1ac0      	subs	r0, r0, r3
    163a:	4152      	adcs	r2, r2
    163c:	0a83      	lsrs	r3, r0, #10
    163e:	428b      	cmp	r3, r1
    1640:	d301      	bcc.n	1646 <__udivsi3+0x82>
    1642:	028b      	lsls	r3, r1, #10
    1644:	1ac0      	subs	r0, r0, r3
    1646:	4152      	adcs	r2, r2
    1648:	0a43      	lsrs	r3, r0, #9
    164a:	428b      	cmp	r3, r1
    164c:	d301      	bcc.n	1652 <__udivsi3+0x8e>
    164e:	024b      	lsls	r3, r1, #9
    1650:	1ac0      	subs	r0, r0, r3
    1652:	4152      	adcs	r2, r2
    1654:	0a03      	lsrs	r3, r0, #8
    1656:	428b      	cmp	r3, r1
    1658:	d301      	bcc.n	165e <__udivsi3+0x9a>
    165a:	020b      	lsls	r3, r1, #8
    165c:	1ac0      	subs	r0, r0, r3
    165e:	4152      	adcs	r2, r2
    1660:	d2cd      	bcs.n	15fe <__udivsi3+0x3a>
    1662:	09c3      	lsrs	r3, r0, #7
    1664:	428b      	cmp	r3, r1
    1666:	d301      	bcc.n	166c <__udivsi3+0xa8>
    1668:	01cb      	lsls	r3, r1, #7
    166a:	1ac0      	subs	r0, r0, r3
    166c:	4152      	adcs	r2, r2
    166e:	0983      	lsrs	r3, r0, #6
    1670:	428b      	cmp	r3, r1
    1672:	d301      	bcc.n	1678 <__udivsi3+0xb4>
    1674:	018b      	lsls	r3, r1, #6
    1676:	1ac0      	subs	r0, r0, r3
    1678:	4152      	adcs	r2, r2
    167a:	0943      	lsrs	r3, r0, #5
    167c:	428b      	cmp	r3, r1
    167e:	d301      	bcc.n	1684 <__udivsi3+0xc0>
    1680:	014b      	lsls	r3, r1, #5
    1682:	1ac0      	subs	r0, r0, r3
    1684:	4152      	adcs	r2, r2
    1686:	0903      	lsrs	r3, r0, #4
    1688:	428b      	cmp	r3, r1
    168a:	d301      	bcc.n	1690 <__udivsi3+0xcc>
    168c:	010b      	lsls	r3, r1, #4
    168e:	1ac0      	subs	r0, r0, r3
    1690:	4152      	adcs	r2, r2
    1692:	08c3      	lsrs	r3, r0, #3
    1694:	428b      	cmp	r3, r1
    1696:	d301      	bcc.n	169c <__udivsi3+0xd8>
    1698:	00cb      	lsls	r3, r1, #3
    169a:	1ac0      	subs	r0, r0, r3
    169c:	4152      	adcs	r2, r2
    169e:	0883      	lsrs	r3, r0, #2
    16a0:	428b      	cmp	r3, r1
    16a2:	d301      	bcc.n	16a8 <__udivsi3+0xe4>
    16a4:	008b      	lsls	r3, r1, #2
    16a6:	1ac0      	subs	r0, r0, r3
    16a8:	4152      	adcs	r2, r2
    16aa:	0843      	lsrs	r3, r0, #1
    16ac:	428b      	cmp	r3, r1
    16ae:	d301      	bcc.n	16b4 <__udivsi3+0xf0>
    16b0:	004b      	lsls	r3, r1, #1
    16b2:	1ac0      	subs	r0, r0, r3
    16b4:	4152      	adcs	r2, r2
    16b6:	1a41      	subs	r1, r0, r1
    16b8:	d200      	bcs.n	16bc <__udivsi3+0xf8>
    16ba:	4601      	mov	r1, r0
    16bc:	4152      	adcs	r2, r2
    16be:	4610      	mov	r0, r2
    16c0:	4770      	bx	lr
    16c2:	e7ff      	b.n	16c4 <__udivsi3+0x100>
    16c4:	b501      	push	{r0, lr}
    16c6:	2000      	movs	r0, #0
    16c8:	f000 f806 	bl	16d8 <__aeabi_idiv0>
    16cc:	bd02      	pop	{r1, pc}
    16ce:	46c0      	nop			; (mov r8, r8)

000016d0 <__aeabi_uidivmod>:
    16d0:	2900      	cmp	r1, #0
    16d2:	d0f7      	beq.n	16c4 <__udivsi3+0x100>
    16d4:	e776      	b.n	15c4 <__udivsi3>
    16d6:	4770      	bx	lr

000016d8 <__aeabi_idiv0>:
    16d8:	4770      	bx	lr
    16da:	46c0      	nop			; (mov r8, r8)

000016dc <__aeabi_ldivmod>:
    16dc:	2b00      	cmp	r3, #0
    16de:	d115      	bne.n	170c <__aeabi_ldivmod+0x30>
    16e0:	2a00      	cmp	r2, #0
    16e2:	d113      	bne.n	170c <__aeabi_ldivmod+0x30>
    16e4:	2900      	cmp	r1, #0
    16e6:	db06      	blt.n	16f6 <__aeabi_ldivmod+0x1a>
    16e8:	dc01      	bgt.n	16ee <__aeabi_ldivmod+0x12>
    16ea:	2800      	cmp	r0, #0
    16ec:	d006      	beq.n	16fc <__aeabi_ldivmod+0x20>
    16ee:	2000      	movs	r0, #0
    16f0:	43c0      	mvns	r0, r0
    16f2:	0841      	lsrs	r1, r0, #1
    16f4:	e002      	b.n	16fc <__aeabi_ldivmod+0x20>
    16f6:	2180      	movs	r1, #128	; 0x80
    16f8:	0609      	lsls	r1, r1, #24
    16fa:	2000      	movs	r0, #0
    16fc:	b407      	push	{r0, r1, r2}
    16fe:	4802      	ldr	r0, [pc, #8]	; (1708 <__aeabi_ldivmod+0x2c>)
    1700:	a101      	add	r1, pc, #4	; (adr r1, 1708 <__aeabi_ldivmod+0x2c>)
    1702:	1840      	adds	r0, r0, r1
    1704:	9002      	str	r0, [sp, #8]
    1706:	bd03      	pop	{r0, r1, pc}
    1708:	ffffffd1 	.word	0xffffffd1
    170c:	b403      	push	{r0, r1}
    170e:	4668      	mov	r0, sp
    1710:	b501      	push	{r0, lr}
    1712:	9802      	ldr	r0, [sp, #8]
    1714:	f000 f910 	bl	1938 <__gnu_ldivmod_helper>
    1718:	9b01      	ldr	r3, [sp, #4]
    171a:	469e      	mov	lr, r3
    171c:	b002      	add	sp, #8
    171e:	bc0c      	pop	{r2, r3}
    1720:	4770      	bx	lr
    1722:	46c0      	nop			; (mov r8, r8)

00001724 <__aeabi_uldivmod>:
    1724:	2b00      	cmp	r3, #0
    1726:	d111      	bne.n	174c <__aeabi_uldivmod+0x28>
    1728:	2a00      	cmp	r2, #0
    172a:	d10f      	bne.n	174c <__aeabi_uldivmod+0x28>
    172c:	2900      	cmp	r1, #0
    172e:	d100      	bne.n	1732 <__aeabi_uldivmod+0xe>
    1730:	2800      	cmp	r0, #0
    1732:	d002      	beq.n	173a <__aeabi_uldivmod+0x16>
    1734:	2100      	movs	r1, #0
    1736:	43c9      	mvns	r1, r1
    1738:	1c08      	adds	r0, r1, #0
    173a:	b407      	push	{r0, r1, r2}
    173c:	4802      	ldr	r0, [pc, #8]	; (1748 <__aeabi_uldivmod+0x24>)
    173e:	a102      	add	r1, pc, #8	; (adr r1, 1748 <__aeabi_uldivmod+0x24>)
    1740:	1840      	adds	r0, r0, r1
    1742:	9002      	str	r0, [sp, #8]
    1744:	bd03      	pop	{r0, r1, pc}
    1746:	46c0      	nop			; (mov r8, r8)
    1748:	ffffff91 	.word	0xffffff91
    174c:	b403      	push	{r0, r1}
    174e:	4668      	mov	r0, sp
    1750:	b501      	push	{r0, lr}
    1752:	9802      	ldr	r0, [sp, #8]
    1754:	f000 f830 	bl	17b8 <__udivmoddi4>
    1758:	9b01      	ldr	r3, [sp, #4]
    175a:	469e      	mov	lr, r3
    175c:	b002      	add	sp, #8
    175e:	bc0c      	pop	{r2, r3}
    1760:	4770      	bx	lr
    1762:	46c0      	nop			; (mov r8, r8)

00001764 <__aeabi_lmul>:
    1764:	b5f0      	push	{r4, r5, r6, r7, lr}
    1766:	46ce      	mov	lr, r9
    1768:	4647      	mov	r7, r8
    176a:	0415      	lsls	r5, r2, #16
    176c:	0c2d      	lsrs	r5, r5, #16
    176e:	002e      	movs	r6, r5
    1770:	b580      	push	{r7, lr}
    1772:	0407      	lsls	r7, r0, #16
    1774:	0c14      	lsrs	r4, r2, #16
    1776:	0c3f      	lsrs	r7, r7, #16
    1778:	4699      	mov	r9, r3
    177a:	0c03      	lsrs	r3, r0, #16
    177c:	437e      	muls	r6, r7
    177e:	435d      	muls	r5, r3
    1780:	4367      	muls	r7, r4
    1782:	4363      	muls	r3, r4
    1784:	197f      	adds	r7, r7, r5
    1786:	0c34      	lsrs	r4, r6, #16
    1788:	19e4      	adds	r4, r4, r7
    178a:	469c      	mov	ip, r3
    178c:	42a5      	cmp	r5, r4
    178e:	d903      	bls.n	1798 <__aeabi_lmul+0x34>
    1790:	2380      	movs	r3, #128	; 0x80
    1792:	025b      	lsls	r3, r3, #9
    1794:	4698      	mov	r8, r3
    1796:	44c4      	add	ip, r8
    1798:	464b      	mov	r3, r9
    179a:	4351      	muls	r1, r2
    179c:	4343      	muls	r3, r0
    179e:	0436      	lsls	r6, r6, #16
    17a0:	0c36      	lsrs	r6, r6, #16
    17a2:	0c25      	lsrs	r5, r4, #16
    17a4:	0424      	lsls	r4, r4, #16
    17a6:	4465      	add	r5, ip
    17a8:	19a4      	adds	r4, r4, r6
    17aa:	1859      	adds	r1, r3, r1
    17ac:	1949      	adds	r1, r1, r5
    17ae:	0020      	movs	r0, r4
    17b0:	bc0c      	pop	{r2, r3}
    17b2:	4690      	mov	r8, r2
    17b4:	4699      	mov	r9, r3
    17b6:	bdf0      	pop	{r4, r5, r6, r7, pc}

000017b8 <__udivmoddi4>:
    17b8:	b5f0      	push	{r4, r5, r6, r7, lr}
    17ba:	4657      	mov	r7, sl
    17bc:	464e      	mov	r6, r9
    17be:	4645      	mov	r5, r8
    17c0:	46de      	mov	lr, fp
    17c2:	b5e0      	push	{r5, r6, r7, lr}
    17c4:	0004      	movs	r4, r0
    17c6:	b083      	sub	sp, #12
    17c8:	000d      	movs	r5, r1
    17ca:	4692      	mov	sl, r2
    17cc:	4699      	mov	r9, r3
    17ce:	428b      	cmp	r3, r1
    17d0:	d82f      	bhi.n	1832 <__udivmoddi4+0x7a>
    17d2:	d02c      	beq.n	182e <__udivmoddi4+0x76>
    17d4:	4649      	mov	r1, r9
    17d6:	4650      	mov	r0, sl
    17d8:	f001 fdfa 	bl	33d0 <__clzdi2>
    17dc:	0029      	movs	r1, r5
    17de:	0006      	movs	r6, r0
    17e0:	0020      	movs	r0, r4
    17e2:	f001 fdf5 	bl	33d0 <__clzdi2>
    17e6:	1a33      	subs	r3, r6, r0
    17e8:	4698      	mov	r8, r3
    17ea:	3b20      	subs	r3, #32
    17ec:	469b      	mov	fp, r3
    17ee:	d500      	bpl.n	17f2 <__udivmoddi4+0x3a>
    17f0:	e074      	b.n	18dc <__udivmoddi4+0x124>
    17f2:	4653      	mov	r3, sl
    17f4:	465a      	mov	r2, fp
    17f6:	4093      	lsls	r3, r2
    17f8:	001f      	movs	r7, r3
    17fa:	4653      	mov	r3, sl
    17fc:	4642      	mov	r2, r8
    17fe:	4093      	lsls	r3, r2
    1800:	001e      	movs	r6, r3
    1802:	42af      	cmp	r7, r5
    1804:	d829      	bhi.n	185a <__udivmoddi4+0xa2>
    1806:	d026      	beq.n	1856 <__udivmoddi4+0x9e>
    1808:	465b      	mov	r3, fp
    180a:	1ba4      	subs	r4, r4, r6
    180c:	41bd      	sbcs	r5, r7
    180e:	2b00      	cmp	r3, #0
    1810:	da00      	bge.n	1814 <__udivmoddi4+0x5c>
    1812:	e079      	b.n	1908 <__udivmoddi4+0x150>
    1814:	2200      	movs	r2, #0
    1816:	2300      	movs	r3, #0
    1818:	9200      	str	r2, [sp, #0]
    181a:	9301      	str	r3, [sp, #4]
    181c:	2301      	movs	r3, #1
    181e:	465a      	mov	r2, fp
    1820:	4093      	lsls	r3, r2
    1822:	9301      	str	r3, [sp, #4]
    1824:	2301      	movs	r3, #1
    1826:	4642      	mov	r2, r8
    1828:	4093      	lsls	r3, r2
    182a:	9300      	str	r3, [sp, #0]
    182c:	e019      	b.n	1862 <__udivmoddi4+0xaa>
    182e:	4282      	cmp	r2, r0
    1830:	d9d0      	bls.n	17d4 <__udivmoddi4+0x1c>
    1832:	2200      	movs	r2, #0
    1834:	2300      	movs	r3, #0
    1836:	9200      	str	r2, [sp, #0]
    1838:	9301      	str	r3, [sp, #4]
    183a:	9b0c      	ldr	r3, [sp, #48]	; 0x30
    183c:	2b00      	cmp	r3, #0
    183e:	d001      	beq.n	1844 <__udivmoddi4+0x8c>
    1840:	601c      	str	r4, [r3, #0]
    1842:	605d      	str	r5, [r3, #4]
    1844:	9800      	ldr	r0, [sp, #0]
    1846:	9901      	ldr	r1, [sp, #4]
    1848:	b003      	add	sp, #12
    184a:	bc3c      	pop	{r2, r3, r4, r5}
    184c:	4690      	mov	r8, r2
    184e:	4699      	mov	r9, r3
    1850:	46a2      	mov	sl, r4
    1852:	46ab      	mov	fp, r5
    1854:	bdf0      	pop	{r4, r5, r6, r7, pc}
    1856:	42a3      	cmp	r3, r4
    1858:	d9d6      	bls.n	1808 <__udivmoddi4+0x50>
    185a:	2200      	movs	r2, #0
    185c:	2300      	movs	r3, #0
    185e:	9200      	str	r2, [sp, #0]
    1860:	9301      	str	r3, [sp, #4]
    1862:	4643      	mov	r3, r8
    1864:	2b00      	cmp	r3, #0
    1866:	d0e8      	beq.n	183a <__udivmoddi4+0x82>
    1868:	07fb      	lsls	r3, r7, #31
    186a:	0872      	lsrs	r2, r6, #1
    186c:	431a      	orrs	r2, r3
    186e:	4646      	mov	r6, r8
    1870:	087b      	lsrs	r3, r7, #1
    1872:	e00e      	b.n	1892 <__udivmoddi4+0xda>
    1874:	42ab      	cmp	r3, r5
    1876:	d101      	bne.n	187c <__udivmoddi4+0xc4>
    1878:	42a2      	cmp	r2, r4
    187a:	d80c      	bhi.n	1896 <__udivmoddi4+0xde>
    187c:	1aa4      	subs	r4, r4, r2
    187e:	419d      	sbcs	r5, r3
    1880:	2001      	movs	r0, #1
    1882:	1924      	adds	r4, r4, r4
    1884:	416d      	adcs	r5, r5
    1886:	2100      	movs	r1, #0
    1888:	3e01      	subs	r6, #1
    188a:	1824      	adds	r4, r4, r0
    188c:	414d      	adcs	r5, r1
    188e:	2e00      	cmp	r6, #0
    1890:	d006      	beq.n	18a0 <__udivmoddi4+0xe8>
    1892:	42ab      	cmp	r3, r5
    1894:	d9ee      	bls.n	1874 <__udivmoddi4+0xbc>
    1896:	3e01      	subs	r6, #1
    1898:	1924      	adds	r4, r4, r4
    189a:	416d      	adcs	r5, r5
    189c:	2e00      	cmp	r6, #0
    189e:	d1f8      	bne.n	1892 <__udivmoddi4+0xda>
    18a0:	465b      	mov	r3, fp
    18a2:	9800      	ldr	r0, [sp, #0]
    18a4:	9901      	ldr	r1, [sp, #4]
    18a6:	1900      	adds	r0, r0, r4
    18a8:	4169      	adcs	r1, r5
    18aa:	2b00      	cmp	r3, #0
    18ac:	db22      	blt.n	18f4 <__udivmoddi4+0x13c>
    18ae:	002b      	movs	r3, r5
    18b0:	465a      	mov	r2, fp
    18b2:	40d3      	lsrs	r3, r2
    18b4:	002a      	movs	r2, r5
    18b6:	4644      	mov	r4, r8
    18b8:	40e2      	lsrs	r2, r4
    18ba:	001c      	movs	r4, r3
    18bc:	465b      	mov	r3, fp
    18be:	0015      	movs	r5, r2
    18c0:	2b00      	cmp	r3, #0
    18c2:	db2c      	blt.n	191e <__udivmoddi4+0x166>
    18c4:	0026      	movs	r6, r4
    18c6:	409e      	lsls	r6, r3
    18c8:	0033      	movs	r3, r6
    18ca:	0026      	movs	r6, r4
    18cc:	4647      	mov	r7, r8
    18ce:	40be      	lsls	r6, r7
    18d0:	0032      	movs	r2, r6
    18d2:	1a80      	subs	r0, r0, r2
    18d4:	4199      	sbcs	r1, r3
    18d6:	9000      	str	r0, [sp, #0]
    18d8:	9101      	str	r1, [sp, #4]
    18da:	e7ae      	b.n	183a <__udivmoddi4+0x82>
    18dc:	4642      	mov	r2, r8
    18de:	2320      	movs	r3, #32
    18e0:	1a9b      	subs	r3, r3, r2
    18e2:	4652      	mov	r2, sl
    18e4:	40da      	lsrs	r2, r3
    18e6:	4641      	mov	r1, r8
    18e8:	0013      	movs	r3, r2
    18ea:	464a      	mov	r2, r9
    18ec:	408a      	lsls	r2, r1
    18ee:	0017      	movs	r7, r2
    18f0:	431f      	orrs	r7, r3
    18f2:	e782      	b.n	17fa <__udivmoddi4+0x42>
    18f4:	4642      	mov	r2, r8
    18f6:	2320      	movs	r3, #32
    18f8:	1a9b      	subs	r3, r3, r2
    18fa:	002a      	movs	r2, r5
    18fc:	4646      	mov	r6, r8
    18fe:	409a      	lsls	r2, r3
    1900:	0023      	movs	r3, r4
    1902:	40f3      	lsrs	r3, r6
    1904:	4313      	orrs	r3, r2
    1906:	e7d5      	b.n	18b4 <__udivmoddi4+0xfc>
    1908:	4642      	mov	r2, r8
    190a:	2320      	movs	r3, #32
    190c:	2100      	movs	r1, #0
    190e:	1a9b      	subs	r3, r3, r2
    1910:	2200      	movs	r2, #0
    1912:	9100      	str	r1, [sp, #0]
    1914:	9201      	str	r2, [sp, #4]
    1916:	2201      	movs	r2, #1
    1918:	40da      	lsrs	r2, r3
    191a:	9201      	str	r2, [sp, #4]
    191c:	e782      	b.n	1824 <__udivmoddi4+0x6c>
    191e:	4642      	mov	r2, r8
    1920:	2320      	movs	r3, #32
    1922:	0026      	movs	r6, r4
    1924:	1a9b      	subs	r3, r3, r2
    1926:	40de      	lsrs	r6, r3
    1928:	002f      	movs	r7, r5
    192a:	46b4      	mov	ip, r6
    192c:	4097      	lsls	r7, r2
    192e:	4666      	mov	r6, ip
    1930:	003b      	movs	r3, r7
    1932:	4333      	orrs	r3, r6
    1934:	e7c9      	b.n	18ca <__udivmoddi4+0x112>
    1936:	46c0      	nop			; (mov r8, r8)

00001938 <__gnu_ldivmod_helper>:
    1938:	b5f0      	push	{r4, r5, r6, r7, lr}
    193a:	b083      	sub	sp, #12
    193c:	0016      	movs	r6, r2
    193e:	001f      	movs	r7, r3
    1940:	9000      	str	r0, [sp, #0]
    1942:	9101      	str	r1, [sp, #4]
    1944:	f001 fd50 	bl	33e8 <__divdi3>
    1948:	0004      	movs	r4, r0
    194a:	000d      	movs	r5, r1
    194c:	0002      	movs	r2, r0
    194e:	000b      	movs	r3, r1
    1950:	0030      	movs	r0, r6
    1952:	0039      	movs	r1, r7
    1954:	f7ff ff06 	bl	1764 <__aeabi_lmul>
    1958:	9a00      	ldr	r2, [sp, #0]
    195a:	9b01      	ldr	r3, [sp, #4]
    195c:	1a12      	subs	r2, r2, r0
    195e:	418b      	sbcs	r3, r1
    1960:	9908      	ldr	r1, [sp, #32]
    1962:	0020      	movs	r0, r4
    1964:	600a      	str	r2, [r1, #0]
    1966:	604b      	str	r3, [r1, #4]
    1968:	0029      	movs	r1, r5
    196a:	b003      	add	sp, #12
    196c:	bdf0      	pop	{r4, r5, r6, r7, pc}
    196e:	46c0      	nop			; (mov r8, r8)

00001970 <__aeabi_dadd>:
    1970:	b5f8      	push	{r3, r4, r5, r6, r7, lr}
    1972:	4645      	mov	r5, r8
    1974:	46de      	mov	lr, fp
    1976:	4657      	mov	r7, sl
    1978:	464e      	mov	r6, r9
    197a:	030c      	lsls	r4, r1, #12
    197c:	b5e0      	push	{r5, r6, r7, lr}
    197e:	004e      	lsls	r6, r1, #1
    1980:	0fc9      	lsrs	r1, r1, #31
    1982:	4688      	mov	r8, r1
    1984:	000d      	movs	r5, r1
    1986:	0a61      	lsrs	r1, r4, #9
    1988:	0f44      	lsrs	r4, r0, #29
    198a:	430c      	orrs	r4, r1
    198c:	00c7      	lsls	r7, r0, #3
    198e:	0319      	lsls	r1, r3, #12
    1990:	0058      	lsls	r0, r3, #1
    1992:	0fdb      	lsrs	r3, r3, #31
    1994:	469b      	mov	fp, r3
    1996:	0a4b      	lsrs	r3, r1, #9
    1998:	0f51      	lsrs	r1, r2, #29
    199a:	430b      	orrs	r3, r1
    199c:	0d76      	lsrs	r6, r6, #21
    199e:	0d40      	lsrs	r0, r0, #21
    19a0:	0019      	movs	r1, r3
    19a2:	00d2      	lsls	r2, r2, #3
    19a4:	45d8      	cmp	r8, fp
    19a6:	d100      	bne.n	19aa <__aeabi_dadd+0x3a>
    19a8:	e0ae      	b.n	1b08 <__aeabi_dadd+0x198>
    19aa:	1a35      	subs	r5, r6, r0
    19ac:	2d00      	cmp	r5, #0
    19ae:	dc00      	bgt.n	19b2 <__aeabi_dadd+0x42>
    19b0:	e0f6      	b.n	1ba0 <__aeabi_dadd+0x230>
    19b2:	2800      	cmp	r0, #0
    19b4:	d10f      	bne.n	19d6 <__aeabi_dadd+0x66>
    19b6:	4313      	orrs	r3, r2
    19b8:	d100      	bne.n	19bc <__aeabi_dadd+0x4c>
    19ba:	e0db      	b.n	1b74 <__aeabi_dadd+0x204>
    19bc:	1e6b      	subs	r3, r5, #1
    19be:	2b00      	cmp	r3, #0
    19c0:	d000      	beq.n	19c4 <__aeabi_dadd+0x54>
    19c2:	e137      	b.n	1c34 <__aeabi_dadd+0x2c4>
    19c4:	1aba      	subs	r2, r7, r2
    19c6:	4297      	cmp	r7, r2
    19c8:	41bf      	sbcs	r7, r7
    19ca:	1a64      	subs	r4, r4, r1
    19cc:	427f      	negs	r7, r7
    19ce:	1be4      	subs	r4, r4, r7
    19d0:	2601      	movs	r6, #1
    19d2:	0017      	movs	r7, r2
    19d4:	e024      	b.n	1a20 <__aeabi_dadd+0xb0>
    19d6:	4bc6      	ldr	r3, [pc, #792]	; (1cf0 <__aeabi_dadd+0x380>)
    19d8:	429e      	cmp	r6, r3
    19da:	d04d      	beq.n	1a78 <__aeabi_dadd+0x108>
    19dc:	2380      	movs	r3, #128	; 0x80
    19de:	041b      	lsls	r3, r3, #16
    19e0:	4319      	orrs	r1, r3
    19e2:	2d38      	cmp	r5, #56	; 0x38
    19e4:	dd00      	ble.n	19e8 <__aeabi_dadd+0x78>
    19e6:	e107      	b.n	1bf8 <__aeabi_dadd+0x288>
    19e8:	2d1f      	cmp	r5, #31
    19ea:	dd00      	ble.n	19ee <__aeabi_dadd+0x7e>
    19ec:	e138      	b.n	1c60 <__aeabi_dadd+0x2f0>
    19ee:	2020      	movs	r0, #32
    19f0:	1b43      	subs	r3, r0, r5
    19f2:	469a      	mov	sl, r3
    19f4:	000b      	movs	r3, r1
    19f6:	4650      	mov	r0, sl
    19f8:	4083      	lsls	r3, r0
    19fa:	4699      	mov	r9, r3
    19fc:	0013      	movs	r3, r2
    19fe:	4648      	mov	r0, r9
    1a00:	40eb      	lsrs	r3, r5
    1a02:	4318      	orrs	r0, r3
    1a04:	0003      	movs	r3, r0
    1a06:	4650      	mov	r0, sl
    1a08:	4082      	lsls	r2, r0
    1a0a:	1e50      	subs	r0, r2, #1
    1a0c:	4182      	sbcs	r2, r0
    1a0e:	40e9      	lsrs	r1, r5
    1a10:	431a      	orrs	r2, r3
    1a12:	1aba      	subs	r2, r7, r2
    1a14:	1a61      	subs	r1, r4, r1
    1a16:	4297      	cmp	r7, r2
    1a18:	41a4      	sbcs	r4, r4
    1a1a:	0017      	movs	r7, r2
    1a1c:	4264      	negs	r4, r4
    1a1e:	1b0c      	subs	r4, r1, r4
    1a20:	0223      	lsls	r3, r4, #8
    1a22:	d562      	bpl.n	1aea <__aeabi_dadd+0x17a>
    1a24:	0264      	lsls	r4, r4, #9
    1a26:	0a65      	lsrs	r5, r4, #9
    1a28:	2d00      	cmp	r5, #0
    1a2a:	d100      	bne.n	1a2e <__aeabi_dadd+0xbe>
    1a2c:	e0df      	b.n	1bee <__aeabi_dadd+0x27e>
    1a2e:	0028      	movs	r0, r5
    1a30:	f001 fcb0 	bl	3394 <__clzsi2>
    1a34:	0003      	movs	r3, r0
    1a36:	3b08      	subs	r3, #8
    1a38:	2b1f      	cmp	r3, #31
    1a3a:	dd00      	ble.n	1a3e <__aeabi_dadd+0xce>
    1a3c:	e0d2      	b.n	1be4 <__aeabi_dadd+0x274>
    1a3e:	2220      	movs	r2, #32
    1a40:	003c      	movs	r4, r7
    1a42:	1ad2      	subs	r2, r2, r3
    1a44:	409d      	lsls	r5, r3
    1a46:	40d4      	lsrs	r4, r2
    1a48:	409f      	lsls	r7, r3
    1a4a:	4325      	orrs	r5, r4
    1a4c:	429e      	cmp	r6, r3
    1a4e:	dd00      	ble.n	1a52 <__aeabi_dadd+0xe2>
    1a50:	e0c4      	b.n	1bdc <__aeabi_dadd+0x26c>
    1a52:	1b9e      	subs	r6, r3, r6
    1a54:	1c73      	adds	r3, r6, #1
    1a56:	2b1f      	cmp	r3, #31
    1a58:	dd00      	ble.n	1a5c <__aeabi_dadd+0xec>
    1a5a:	e0f1      	b.n	1c40 <__aeabi_dadd+0x2d0>
    1a5c:	2220      	movs	r2, #32
    1a5e:	0038      	movs	r0, r7
    1a60:	0029      	movs	r1, r5
    1a62:	1ad2      	subs	r2, r2, r3
    1a64:	40d8      	lsrs	r0, r3
    1a66:	4091      	lsls	r1, r2
    1a68:	4097      	lsls	r7, r2
    1a6a:	002c      	movs	r4, r5
    1a6c:	4301      	orrs	r1, r0
    1a6e:	1e78      	subs	r0, r7, #1
    1a70:	4187      	sbcs	r7, r0
    1a72:	40dc      	lsrs	r4, r3
    1a74:	2600      	movs	r6, #0
    1a76:	430f      	orrs	r7, r1
    1a78:	077b      	lsls	r3, r7, #29
    1a7a:	d009      	beq.n	1a90 <__aeabi_dadd+0x120>
    1a7c:	230f      	movs	r3, #15
    1a7e:	403b      	ands	r3, r7
    1a80:	2b04      	cmp	r3, #4
    1a82:	d005      	beq.n	1a90 <__aeabi_dadd+0x120>
    1a84:	1d3b      	adds	r3, r7, #4
    1a86:	42bb      	cmp	r3, r7
    1a88:	41bf      	sbcs	r7, r7
    1a8a:	427f      	negs	r7, r7
    1a8c:	19e4      	adds	r4, r4, r7
    1a8e:	001f      	movs	r7, r3
    1a90:	0223      	lsls	r3, r4, #8
    1a92:	d52c      	bpl.n	1aee <__aeabi_dadd+0x17e>
    1a94:	4b96      	ldr	r3, [pc, #600]	; (1cf0 <__aeabi_dadd+0x380>)
    1a96:	3601      	adds	r6, #1
    1a98:	429e      	cmp	r6, r3
    1a9a:	d100      	bne.n	1a9e <__aeabi_dadd+0x12e>
    1a9c:	e09a      	b.n	1bd4 <__aeabi_dadd+0x264>
    1a9e:	4645      	mov	r5, r8
    1aa0:	4b94      	ldr	r3, [pc, #592]	; (1cf4 <__aeabi_dadd+0x384>)
    1aa2:	08ff      	lsrs	r7, r7, #3
    1aa4:	401c      	ands	r4, r3
    1aa6:	0760      	lsls	r0, r4, #29
    1aa8:	0576      	lsls	r6, r6, #21
    1aaa:	0264      	lsls	r4, r4, #9
    1aac:	4307      	orrs	r7, r0
    1aae:	0b24      	lsrs	r4, r4, #12
    1ab0:	0d76      	lsrs	r6, r6, #21
    1ab2:	2100      	movs	r1, #0
    1ab4:	0324      	lsls	r4, r4, #12
    1ab6:	0b23      	lsrs	r3, r4, #12
    1ab8:	0d0c      	lsrs	r4, r1, #20
    1aba:	4a8f      	ldr	r2, [pc, #572]	; (1cf8 <__aeabi_dadd+0x388>)
    1abc:	0524      	lsls	r4, r4, #20
    1abe:	431c      	orrs	r4, r3
    1ac0:	4014      	ands	r4, r2
    1ac2:	0533      	lsls	r3, r6, #20
    1ac4:	4323      	orrs	r3, r4
    1ac6:	005b      	lsls	r3, r3, #1
    1ac8:	07ed      	lsls	r5, r5, #31
    1aca:	085b      	lsrs	r3, r3, #1
    1acc:	432b      	orrs	r3, r5
    1ace:	0038      	movs	r0, r7
    1ad0:	0019      	movs	r1, r3
    1ad2:	bc3c      	pop	{r2, r3, r4, r5}
    1ad4:	4690      	mov	r8, r2
    1ad6:	4699      	mov	r9, r3
    1ad8:	46a2      	mov	sl, r4
    1ada:	46ab      	mov	fp, r5
    1adc:	bdf8      	pop	{r3, r4, r5, r6, r7, pc}
    1ade:	4664      	mov	r4, ip
    1ae0:	4304      	orrs	r4, r0
    1ae2:	d100      	bne.n	1ae6 <__aeabi_dadd+0x176>
    1ae4:	e211      	b.n	1f0a <__aeabi_dadd+0x59a>
    1ae6:	0004      	movs	r4, r0
    1ae8:	4667      	mov	r7, ip
    1aea:	077b      	lsls	r3, r7, #29
    1aec:	d1c6      	bne.n	1a7c <__aeabi_dadd+0x10c>
    1aee:	4645      	mov	r5, r8
    1af0:	0760      	lsls	r0, r4, #29
    1af2:	08ff      	lsrs	r7, r7, #3
    1af4:	4307      	orrs	r7, r0
    1af6:	08e4      	lsrs	r4, r4, #3
    1af8:	4b7d      	ldr	r3, [pc, #500]	; (1cf0 <__aeabi_dadd+0x380>)
    1afa:	429e      	cmp	r6, r3
    1afc:	d030      	beq.n	1b60 <__aeabi_dadd+0x1f0>
    1afe:	0324      	lsls	r4, r4, #12
    1b00:	0576      	lsls	r6, r6, #21
    1b02:	0b24      	lsrs	r4, r4, #12
    1b04:	0d76      	lsrs	r6, r6, #21
    1b06:	e7d4      	b.n	1ab2 <__aeabi_dadd+0x142>
    1b08:	1a33      	subs	r3, r6, r0
    1b0a:	469a      	mov	sl, r3
    1b0c:	2b00      	cmp	r3, #0
    1b0e:	dd78      	ble.n	1c02 <__aeabi_dadd+0x292>
    1b10:	2800      	cmp	r0, #0
    1b12:	d031      	beq.n	1b78 <__aeabi_dadd+0x208>
    1b14:	4876      	ldr	r0, [pc, #472]	; (1cf0 <__aeabi_dadd+0x380>)
    1b16:	4286      	cmp	r6, r0
    1b18:	d0ae      	beq.n	1a78 <__aeabi_dadd+0x108>
    1b1a:	2080      	movs	r0, #128	; 0x80
    1b1c:	0400      	lsls	r0, r0, #16
    1b1e:	4301      	orrs	r1, r0
    1b20:	4653      	mov	r3, sl
    1b22:	2b38      	cmp	r3, #56	; 0x38
    1b24:	dc00      	bgt.n	1b28 <__aeabi_dadd+0x1b8>
    1b26:	e0e9      	b.n	1cfc <__aeabi_dadd+0x38c>
    1b28:	430a      	orrs	r2, r1
    1b2a:	1e51      	subs	r1, r2, #1
    1b2c:	418a      	sbcs	r2, r1
    1b2e:	2100      	movs	r1, #0
    1b30:	19d2      	adds	r2, r2, r7
    1b32:	42ba      	cmp	r2, r7
    1b34:	41bf      	sbcs	r7, r7
    1b36:	1909      	adds	r1, r1, r4
    1b38:	427c      	negs	r4, r7
    1b3a:	0017      	movs	r7, r2
    1b3c:	190c      	adds	r4, r1, r4
    1b3e:	0223      	lsls	r3, r4, #8
    1b40:	d5d3      	bpl.n	1aea <__aeabi_dadd+0x17a>
    1b42:	4b6b      	ldr	r3, [pc, #428]	; (1cf0 <__aeabi_dadd+0x380>)
    1b44:	3601      	adds	r6, #1
    1b46:	429e      	cmp	r6, r3
    1b48:	d100      	bne.n	1b4c <__aeabi_dadd+0x1dc>
    1b4a:	e13a      	b.n	1dc2 <__aeabi_dadd+0x452>
    1b4c:	2001      	movs	r0, #1
    1b4e:	4b69      	ldr	r3, [pc, #420]	; (1cf4 <__aeabi_dadd+0x384>)
    1b50:	401c      	ands	r4, r3
    1b52:	087b      	lsrs	r3, r7, #1
    1b54:	4007      	ands	r7, r0
    1b56:	431f      	orrs	r7, r3
    1b58:	07e0      	lsls	r0, r4, #31
    1b5a:	4307      	orrs	r7, r0
    1b5c:	0864      	lsrs	r4, r4, #1
    1b5e:	e78b      	b.n	1a78 <__aeabi_dadd+0x108>
    1b60:	0023      	movs	r3, r4
    1b62:	433b      	orrs	r3, r7
    1b64:	d100      	bne.n	1b68 <__aeabi_dadd+0x1f8>
    1b66:	e1cb      	b.n	1f00 <__aeabi_dadd+0x590>
    1b68:	2280      	movs	r2, #128	; 0x80
    1b6a:	0312      	lsls	r2, r2, #12
    1b6c:	4314      	orrs	r4, r2
    1b6e:	0324      	lsls	r4, r4, #12
    1b70:	0b24      	lsrs	r4, r4, #12
    1b72:	e79e      	b.n	1ab2 <__aeabi_dadd+0x142>
    1b74:	002e      	movs	r6, r5
    1b76:	e77f      	b.n	1a78 <__aeabi_dadd+0x108>
    1b78:	0008      	movs	r0, r1
    1b7a:	4310      	orrs	r0, r2
    1b7c:	d100      	bne.n	1b80 <__aeabi_dadd+0x210>
    1b7e:	e0b4      	b.n	1cea <__aeabi_dadd+0x37a>
    1b80:	1e58      	subs	r0, r3, #1
    1b82:	2800      	cmp	r0, #0
    1b84:	d000      	beq.n	1b88 <__aeabi_dadd+0x218>
    1b86:	e0de      	b.n	1d46 <__aeabi_dadd+0x3d6>
    1b88:	18ba      	adds	r2, r7, r2
    1b8a:	42ba      	cmp	r2, r7
    1b8c:	419b      	sbcs	r3, r3
    1b8e:	1864      	adds	r4, r4, r1
    1b90:	425b      	negs	r3, r3
    1b92:	18e4      	adds	r4, r4, r3
    1b94:	0017      	movs	r7, r2
    1b96:	2601      	movs	r6, #1
    1b98:	0223      	lsls	r3, r4, #8
    1b9a:	d5a6      	bpl.n	1aea <__aeabi_dadd+0x17a>
    1b9c:	2602      	movs	r6, #2
    1b9e:	e7d5      	b.n	1b4c <__aeabi_dadd+0x1dc>
    1ba0:	2d00      	cmp	r5, #0
    1ba2:	d16e      	bne.n	1c82 <__aeabi_dadd+0x312>
    1ba4:	1c70      	adds	r0, r6, #1
    1ba6:	0540      	lsls	r0, r0, #21
    1ba8:	0d40      	lsrs	r0, r0, #21
    1baa:	2801      	cmp	r0, #1
    1bac:	dc00      	bgt.n	1bb0 <__aeabi_dadd+0x240>
    1bae:	e0f9      	b.n	1da4 <__aeabi_dadd+0x434>
    1bb0:	1ab8      	subs	r0, r7, r2
    1bb2:	4684      	mov	ip, r0
    1bb4:	4287      	cmp	r7, r0
    1bb6:	4180      	sbcs	r0, r0
    1bb8:	1ae5      	subs	r5, r4, r3
    1bba:	4240      	negs	r0, r0
    1bbc:	1a2d      	subs	r5, r5, r0
    1bbe:	0228      	lsls	r0, r5, #8
    1bc0:	d400      	bmi.n	1bc4 <__aeabi_dadd+0x254>
    1bc2:	e089      	b.n	1cd8 <__aeabi_dadd+0x368>
    1bc4:	1bd7      	subs	r7, r2, r7
    1bc6:	42ba      	cmp	r2, r7
    1bc8:	4192      	sbcs	r2, r2
    1bca:	1b1c      	subs	r4, r3, r4
    1bcc:	4252      	negs	r2, r2
    1bce:	1aa5      	subs	r5, r4, r2
    1bd0:	46d8      	mov	r8, fp
    1bd2:	e729      	b.n	1a28 <__aeabi_dadd+0xb8>
    1bd4:	4645      	mov	r5, r8
    1bd6:	2400      	movs	r4, #0
    1bd8:	2700      	movs	r7, #0
    1bda:	e76a      	b.n	1ab2 <__aeabi_dadd+0x142>
    1bdc:	4c45      	ldr	r4, [pc, #276]	; (1cf4 <__aeabi_dadd+0x384>)
    1bde:	1af6      	subs	r6, r6, r3
    1be0:	402c      	ands	r4, r5
    1be2:	e749      	b.n	1a78 <__aeabi_dadd+0x108>
    1be4:	003d      	movs	r5, r7
    1be6:	3828      	subs	r0, #40	; 0x28
    1be8:	4085      	lsls	r5, r0
    1bea:	2700      	movs	r7, #0
    1bec:	e72e      	b.n	1a4c <__aeabi_dadd+0xdc>
    1bee:	0038      	movs	r0, r7
    1bf0:	f001 fbd0 	bl	3394 <__clzsi2>
    1bf4:	3020      	adds	r0, #32
    1bf6:	e71d      	b.n	1a34 <__aeabi_dadd+0xc4>
    1bf8:	430a      	orrs	r2, r1
    1bfa:	1e51      	subs	r1, r2, #1
    1bfc:	418a      	sbcs	r2, r1
    1bfe:	2100      	movs	r1, #0
    1c00:	e707      	b.n	1a12 <__aeabi_dadd+0xa2>
    1c02:	2b00      	cmp	r3, #0
    1c04:	d000      	beq.n	1c08 <__aeabi_dadd+0x298>
    1c06:	e0f3      	b.n	1df0 <__aeabi_dadd+0x480>
    1c08:	1c70      	adds	r0, r6, #1
    1c0a:	0543      	lsls	r3, r0, #21
    1c0c:	0d5b      	lsrs	r3, r3, #21
    1c0e:	2b01      	cmp	r3, #1
    1c10:	dc00      	bgt.n	1c14 <__aeabi_dadd+0x2a4>
    1c12:	e0ad      	b.n	1d70 <__aeabi_dadd+0x400>
    1c14:	4b36      	ldr	r3, [pc, #216]	; (1cf0 <__aeabi_dadd+0x380>)
    1c16:	4298      	cmp	r0, r3
    1c18:	d100      	bne.n	1c1c <__aeabi_dadd+0x2ac>
    1c1a:	e0d1      	b.n	1dc0 <__aeabi_dadd+0x450>
    1c1c:	18ba      	adds	r2, r7, r2
    1c1e:	42ba      	cmp	r2, r7
    1c20:	41bf      	sbcs	r7, r7
    1c22:	1864      	adds	r4, r4, r1
    1c24:	427f      	negs	r7, r7
    1c26:	19e4      	adds	r4, r4, r7
    1c28:	07e7      	lsls	r7, r4, #31
    1c2a:	0852      	lsrs	r2, r2, #1
    1c2c:	4317      	orrs	r7, r2
    1c2e:	0864      	lsrs	r4, r4, #1
    1c30:	0006      	movs	r6, r0
    1c32:	e721      	b.n	1a78 <__aeabi_dadd+0x108>
    1c34:	482e      	ldr	r0, [pc, #184]	; (1cf0 <__aeabi_dadd+0x380>)
    1c36:	4285      	cmp	r5, r0
    1c38:	d100      	bne.n	1c3c <__aeabi_dadd+0x2cc>
    1c3a:	e093      	b.n	1d64 <__aeabi_dadd+0x3f4>
    1c3c:	001d      	movs	r5, r3
    1c3e:	e6d0      	b.n	19e2 <__aeabi_dadd+0x72>
    1c40:	0029      	movs	r1, r5
    1c42:	3e1f      	subs	r6, #31
    1c44:	40f1      	lsrs	r1, r6
    1c46:	2b20      	cmp	r3, #32
    1c48:	d100      	bne.n	1c4c <__aeabi_dadd+0x2dc>
    1c4a:	e08d      	b.n	1d68 <__aeabi_dadd+0x3f8>
    1c4c:	2240      	movs	r2, #64	; 0x40
    1c4e:	1ad3      	subs	r3, r2, r3
    1c50:	409d      	lsls	r5, r3
    1c52:	432f      	orrs	r7, r5
    1c54:	1e7d      	subs	r5, r7, #1
    1c56:	41af      	sbcs	r7, r5
    1c58:	2400      	movs	r4, #0
    1c5a:	430f      	orrs	r7, r1
    1c5c:	2600      	movs	r6, #0
    1c5e:	e744      	b.n	1aea <__aeabi_dadd+0x17a>
    1c60:	002b      	movs	r3, r5
    1c62:	0008      	movs	r0, r1
    1c64:	3b20      	subs	r3, #32
    1c66:	40d8      	lsrs	r0, r3
    1c68:	0003      	movs	r3, r0
    1c6a:	2d20      	cmp	r5, #32
    1c6c:	d100      	bne.n	1c70 <__aeabi_dadd+0x300>
    1c6e:	e07d      	b.n	1d6c <__aeabi_dadd+0x3fc>
    1c70:	2040      	movs	r0, #64	; 0x40
    1c72:	1b45      	subs	r5, r0, r5
    1c74:	40a9      	lsls	r1, r5
    1c76:	430a      	orrs	r2, r1
    1c78:	1e51      	subs	r1, r2, #1
    1c7a:	418a      	sbcs	r2, r1
    1c7c:	2100      	movs	r1, #0
    1c7e:	431a      	orrs	r2, r3
    1c80:	e6c7      	b.n	1a12 <__aeabi_dadd+0xa2>
    1c82:	2e00      	cmp	r6, #0
    1c84:	d050      	beq.n	1d28 <__aeabi_dadd+0x3b8>
    1c86:	4e1a      	ldr	r6, [pc, #104]	; (1cf0 <__aeabi_dadd+0x380>)
    1c88:	42b0      	cmp	r0, r6
    1c8a:	d057      	beq.n	1d3c <__aeabi_dadd+0x3cc>
    1c8c:	2680      	movs	r6, #128	; 0x80
    1c8e:	426b      	negs	r3, r5
    1c90:	4699      	mov	r9, r3
    1c92:	0436      	lsls	r6, r6, #16
    1c94:	4334      	orrs	r4, r6
    1c96:	464b      	mov	r3, r9
    1c98:	2b38      	cmp	r3, #56	; 0x38
    1c9a:	dd00      	ble.n	1c9e <__aeabi_dadd+0x32e>
    1c9c:	e0d6      	b.n	1e4c <__aeabi_dadd+0x4dc>
    1c9e:	2b1f      	cmp	r3, #31
    1ca0:	dd00      	ble.n	1ca4 <__aeabi_dadd+0x334>
    1ca2:	e135      	b.n	1f10 <__aeabi_dadd+0x5a0>
    1ca4:	2620      	movs	r6, #32
    1ca6:	1af5      	subs	r5, r6, r3
    1ca8:	0026      	movs	r6, r4
    1caa:	40ae      	lsls	r6, r5
    1cac:	46b2      	mov	sl, r6
    1cae:	003e      	movs	r6, r7
    1cb0:	40de      	lsrs	r6, r3
    1cb2:	46ac      	mov	ip, r5
    1cb4:	0035      	movs	r5, r6
    1cb6:	4656      	mov	r6, sl
    1cb8:	432e      	orrs	r6, r5
    1cba:	4665      	mov	r5, ip
    1cbc:	40af      	lsls	r7, r5
    1cbe:	1e7d      	subs	r5, r7, #1
    1cc0:	41af      	sbcs	r7, r5
    1cc2:	40dc      	lsrs	r4, r3
    1cc4:	4337      	orrs	r7, r6
    1cc6:	1bd7      	subs	r7, r2, r7
    1cc8:	42ba      	cmp	r2, r7
    1cca:	4192      	sbcs	r2, r2
    1ccc:	1b0c      	subs	r4, r1, r4
    1cce:	4252      	negs	r2, r2
    1cd0:	1aa4      	subs	r4, r4, r2
    1cd2:	0006      	movs	r6, r0
    1cd4:	46d8      	mov	r8, fp
    1cd6:	e6a3      	b.n	1a20 <__aeabi_dadd+0xb0>
    1cd8:	4664      	mov	r4, ip
    1cda:	4667      	mov	r7, ip
    1cdc:	432c      	orrs	r4, r5
    1cde:	d000      	beq.n	1ce2 <__aeabi_dadd+0x372>
    1ce0:	e6a2      	b.n	1a28 <__aeabi_dadd+0xb8>
    1ce2:	2500      	movs	r5, #0
    1ce4:	2600      	movs	r6, #0
    1ce6:	2700      	movs	r7, #0
    1ce8:	e706      	b.n	1af8 <__aeabi_dadd+0x188>
    1cea:	001e      	movs	r6, r3
    1cec:	e6c4      	b.n	1a78 <__aeabi_dadd+0x108>
    1cee:	46c0      	nop			; (mov r8, r8)
    1cf0:	000007ff 	.word	0x000007ff
    1cf4:	ff7fffff 	.word	0xff7fffff
    1cf8:	800fffff 	.word	0x800fffff
    1cfc:	2b1f      	cmp	r3, #31
    1cfe:	dc63      	bgt.n	1dc8 <__aeabi_dadd+0x458>
    1d00:	2020      	movs	r0, #32
    1d02:	1ac3      	subs	r3, r0, r3
    1d04:	0008      	movs	r0, r1
    1d06:	4098      	lsls	r0, r3
    1d08:	469c      	mov	ip, r3
    1d0a:	4683      	mov	fp, r0
    1d0c:	4653      	mov	r3, sl
    1d0e:	0010      	movs	r0, r2
    1d10:	40d8      	lsrs	r0, r3
    1d12:	0003      	movs	r3, r0
    1d14:	4658      	mov	r0, fp
    1d16:	4318      	orrs	r0, r3
    1d18:	4663      	mov	r3, ip
    1d1a:	409a      	lsls	r2, r3
    1d1c:	1e53      	subs	r3, r2, #1
    1d1e:	419a      	sbcs	r2, r3
    1d20:	4653      	mov	r3, sl
    1d22:	4302      	orrs	r2, r0
    1d24:	40d9      	lsrs	r1, r3
    1d26:	e703      	b.n	1b30 <__aeabi_dadd+0x1c0>
    1d28:	0026      	movs	r6, r4
    1d2a:	433e      	orrs	r6, r7
    1d2c:	d006      	beq.n	1d3c <__aeabi_dadd+0x3cc>
    1d2e:	43eb      	mvns	r3, r5
    1d30:	4699      	mov	r9, r3
    1d32:	2b00      	cmp	r3, #0
    1d34:	d0c7      	beq.n	1cc6 <__aeabi_dadd+0x356>
    1d36:	4e94      	ldr	r6, [pc, #592]	; (1f88 <__aeabi_dadd+0x618>)
    1d38:	42b0      	cmp	r0, r6
    1d3a:	d1ac      	bne.n	1c96 <__aeabi_dadd+0x326>
    1d3c:	000c      	movs	r4, r1
    1d3e:	0017      	movs	r7, r2
    1d40:	0006      	movs	r6, r0
    1d42:	46d8      	mov	r8, fp
    1d44:	e698      	b.n	1a78 <__aeabi_dadd+0x108>
    1d46:	4b90      	ldr	r3, [pc, #576]	; (1f88 <__aeabi_dadd+0x618>)
    1d48:	459a      	cmp	sl, r3
    1d4a:	d00b      	beq.n	1d64 <__aeabi_dadd+0x3f4>
    1d4c:	4682      	mov	sl, r0
    1d4e:	e6e7      	b.n	1b20 <__aeabi_dadd+0x1b0>
    1d50:	2800      	cmp	r0, #0
    1d52:	d000      	beq.n	1d56 <__aeabi_dadd+0x3e6>
    1d54:	e09e      	b.n	1e94 <__aeabi_dadd+0x524>
    1d56:	0018      	movs	r0, r3
    1d58:	4310      	orrs	r0, r2
    1d5a:	d100      	bne.n	1d5e <__aeabi_dadd+0x3ee>
    1d5c:	e0e9      	b.n	1f32 <__aeabi_dadd+0x5c2>
    1d5e:	001c      	movs	r4, r3
    1d60:	0017      	movs	r7, r2
    1d62:	46d8      	mov	r8, fp
    1d64:	4e88      	ldr	r6, [pc, #544]	; (1f88 <__aeabi_dadd+0x618>)
    1d66:	e687      	b.n	1a78 <__aeabi_dadd+0x108>
    1d68:	2500      	movs	r5, #0
    1d6a:	e772      	b.n	1c52 <__aeabi_dadd+0x2e2>
    1d6c:	2100      	movs	r1, #0
    1d6e:	e782      	b.n	1c76 <__aeabi_dadd+0x306>
    1d70:	0023      	movs	r3, r4
    1d72:	433b      	orrs	r3, r7
    1d74:	2e00      	cmp	r6, #0
    1d76:	d000      	beq.n	1d7a <__aeabi_dadd+0x40a>
    1d78:	e0ab      	b.n	1ed2 <__aeabi_dadd+0x562>
    1d7a:	2b00      	cmp	r3, #0
    1d7c:	d100      	bne.n	1d80 <__aeabi_dadd+0x410>
    1d7e:	e0e7      	b.n	1f50 <__aeabi_dadd+0x5e0>
    1d80:	000b      	movs	r3, r1
    1d82:	4313      	orrs	r3, r2
    1d84:	d100      	bne.n	1d88 <__aeabi_dadd+0x418>
    1d86:	e677      	b.n	1a78 <__aeabi_dadd+0x108>
    1d88:	18ba      	adds	r2, r7, r2
    1d8a:	42ba      	cmp	r2, r7
    1d8c:	41bf      	sbcs	r7, r7
    1d8e:	1864      	adds	r4, r4, r1
    1d90:	427f      	negs	r7, r7
    1d92:	19e4      	adds	r4, r4, r7
    1d94:	0223      	lsls	r3, r4, #8
    1d96:	d400      	bmi.n	1d9a <__aeabi_dadd+0x42a>
    1d98:	e0f2      	b.n	1f80 <__aeabi_dadd+0x610>
    1d9a:	4b7c      	ldr	r3, [pc, #496]	; (1f8c <__aeabi_dadd+0x61c>)
    1d9c:	0017      	movs	r7, r2
    1d9e:	401c      	ands	r4, r3
    1da0:	0006      	movs	r6, r0
    1da2:	e669      	b.n	1a78 <__aeabi_dadd+0x108>
    1da4:	0020      	movs	r0, r4
    1da6:	4338      	orrs	r0, r7
    1da8:	2e00      	cmp	r6, #0
    1daa:	d1d1      	bne.n	1d50 <__aeabi_dadd+0x3e0>
    1dac:	2800      	cmp	r0, #0
    1dae:	d15b      	bne.n	1e68 <__aeabi_dadd+0x4f8>
    1db0:	001c      	movs	r4, r3
    1db2:	4314      	orrs	r4, r2
    1db4:	d100      	bne.n	1db8 <__aeabi_dadd+0x448>
    1db6:	e0a8      	b.n	1f0a <__aeabi_dadd+0x59a>
    1db8:	001c      	movs	r4, r3
    1dba:	0017      	movs	r7, r2
    1dbc:	46d8      	mov	r8, fp
    1dbe:	e65b      	b.n	1a78 <__aeabi_dadd+0x108>
    1dc0:	0006      	movs	r6, r0
    1dc2:	2400      	movs	r4, #0
    1dc4:	2700      	movs	r7, #0
    1dc6:	e697      	b.n	1af8 <__aeabi_dadd+0x188>
    1dc8:	4650      	mov	r0, sl
    1dca:	000b      	movs	r3, r1
    1dcc:	3820      	subs	r0, #32
    1dce:	40c3      	lsrs	r3, r0
    1dd0:	4699      	mov	r9, r3
    1dd2:	4653      	mov	r3, sl
    1dd4:	2b20      	cmp	r3, #32
    1dd6:	d100      	bne.n	1dda <__aeabi_dadd+0x46a>
    1dd8:	e095      	b.n	1f06 <__aeabi_dadd+0x596>
    1dda:	2340      	movs	r3, #64	; 0x40
    1ddc:	4650      	mov	r0, sl
    1dde:	1a1b      	subs	r3, r3, r0
    1de0:	4099      	lsls	r1, r3
    1de2:	430a      	orrs	r2, r1
    1de4:	1e51      	subs	r1, r2, #1
    1de6:	418a      	sbcs	r2, r1
    1de8:	464b      	mov	r3, r9
    1dea:	2100      	movs	r1, #0
    1dec:	431a      	orrs	r2, r3
    1dee:	e69f      	b.n	1b30 <__aeabi_dadd+0x1c0>
    1df0:	2e00      	cmp	r6, #0
    1df2:	d130      	bne.n	1e56 <__aeabi_dadd+0x4e6>
    1df4:	0026      	movs	r6, r4
    1df6:	433e      	orrs	r6, r7
    1df8:	d067      	beq.n	1eca <__aeabi_dadd+0x55a>
    1dfa:	43db      	mvns	r3, r3
    1dfc:	469a      	mov	sl, r3
    1dfe:	2b00      	cmp	r3, #0
    1e00:	d01c      	beq.n	1e3c <__aeabi_dadd+0x4cc>
    1e02:	4e61      	ldr	r6, [pc, #388]	; (1f88 <__aeabi_dadd+0x618>)
    1e04:	42b0      	cmp	r0, r6
    1e06:	d060      	beq.n	1eca <__aeabi_dadd+0x55a>
    1e08:	4653      	mov	r3, sl
    1e0a:	2b38      	cmp	r3, #56	; 0x38
    1e0c:	dd00      	ble.n	1e10 <__aeabi_dadd+0x4a0>
    1e0e:	e096      	b.n	1f3e <__aeabi_dadd+0x5ce>
    1e10:	2b1f      	cmp	r3, #31
    1e12:	dd00      	ble.n	1e16 <__aeabi_dadd+0x4a6>
    1e14:	e09f      	b.n	1f56 <__aeabi_dadd+0x5e6>
    1e16:	2620      	movs	r6, #32
    1e18:	1af3      	subs	r3, r6, r3
    1e1a:	0026      	movs	r6, r4
    1e1c:	409e      	lsls	r6, r3
    1e1e:	469c      	mov	ip, r3
    1e20:	46b3      	mov	fp, r6
    1e22:	4653      	mov	r3, sl
    1e24:	003e      	movs	r6, r7
    1e26:	40de      	lsrs	r6, r3
    1e28:	0033      	movs	r3, r6
    1e2a:	465e      	mov	r6, fp
    1e2c:	431e      	orrs	r6, r3
    1e2e:	4663      	mov	r3, ip
    1e30:	409f      	lsls	r7, r3
    1e32:	1e7b      	subs	r3, r7, #1
    1e34:	419f      	sbcs	r7, r3
    1e36:	4653      	mov	r3, sl
    1e38:	40dc      	lsrs	r4, r3
    1e3a:	4337      	orrs	r7, r6
    1e3c:	18bf      	adds	r7, r7, r2
    1e3e:	4297      	cmp	r7, r2
    1e40:	4192      	sbcs	r2, r2
    1e42:	1864      	adds	r4, r4, r1
    1e44:	4252      	negs	r2, r2
    1e46:	18a4      	adds	r4, r4, r2
    1e48:	0006      	movs	r6, r0
    1e4a:	e678      	b.n	1b3e <__aeabi_dadd+0x1ce>
    1e4c:	4327      	orrs	r7, r4
    1e4e:	1e7c      	subs	r4, r7, #1
    1e50:	41a7      	sbcs	r7, r4
    1e52:	2400      	movs	r4, #0
    1e54:	e737      	b.n	1cc6 <__aeabi_dadd+0x356>
    1e56:	4e4c      	ldr	r6, [pc, #304]	; (1f88 <__aeabi_dadd+0x618>)
    1e58:	42b0      	cmp	r0, r6
    1e5a:	d036      	beq.n	1eca <__aeabi_dadd+0x55a>
    1e5c:	2680      	movs	r6, #128	; 0x80
    1e5e:	425b      	negs	r3, r3
    1e60:	0436      	lsls	r6, r6, #16
    1e62:	469a      	mov	sl, r3
    1e64:	4334      	orrs	r4, r6
    1e66:	e7cf      	b.n	1e08 <__aeabi_dadd+0x498>
    1e68:	0018      	movs	r0, r3
    1e6a:	4310      	orrs	r0, r2
    1e6c:	d100      	bne.n	1e70 <__aeabi_dadd+0x500>
    1e6e:	e603      	b.n	1a78 <__aeabi_dadd+0x108>
    1e70:	1ab8      	subs	r0, r7, r2
    1e72:	4684      	mov	ip, r0
    1e74:	4567      	cmp	r7, ip
    1e76:	41ad      	sbcs	r5, r5
    1e78:	1ae0      	subs	r0, r4, r3
    1e7a:	426d      	negs	r5, r5
    1e7c:	1b40      	subs	r0, r0, r5
    1e7e:	0205      	lsls	r5, r0, #8
    1e80:	d400      	bmi.n	1e84 <__aeabi_dadd+0x514>
    1e82:	e62c      	b.n	1ade <__aeabi_dadd+0x16e>
    1e84:	1bd7      	subs	r7, r2, r7
    1e86:	42ba      	cmp	r2, r7
    1e88:	4192      	sbcs	r2, r2
    1e8a:	1b1c      	subs	r4, r3, r4
    1e8c:	4252      	negs	r2, r2
    1e8e:	1aa4      	subs	r4, r4, r2
    1e90:	46d8      	mov	r8, fp
    1e92:	e5f1      	b.n	1a78 <__aeabi_dadd+0x108>
    1e94:	0018      	movs	r0, r3
    1e96:	4310      	orrs	r0, r2
    1e98:	d100      	bne.n	1e9c <__aeabi_dadd+0x52c>
    1e9a:	e763      	b.n	1d64 <__aeabi_dadd+0x3f4>
    1e9c:	08f8      	lsrs	r0, r7, #3
    1e9e:	0767      	lsls	r7, r4, #29
    1ea0:	4307      	orrs	r7, r0
    1ea2:	2080      	movs	r0, #128	; 0x80
    1ea4:	08e4      	lsrs	r4, r4, #3
    1ea6:	0300      	lsls	r0, r0, #12
    1ea8:	4204      	tst	r4, r0
    1eaa:	d008      	beq.n	1ebe <__aeabi_dadd+0x54e>
    1eac:	08dd      	lsrs	r5, r3, #3
    1eae:	4205      	tst	r5, r0
    1eb0:	d105      	bne.n	1ebe <__aeabi_dadd+0x54e>
    1eb2:	08d2      	lsrs	r2, r2, #3
    1eb4:	0759      	lsls	r1, r3, #29
    1eb6:	4311      	orrs	r1, r2
    1eb8:	000f      	movs	r7, r1
    1eba:	002c      	movs	r4, r5
    1ebc:	46d8      	mov	r8, fp
    1ebe:	0f7b      	lsrs	r3, r7, #29
    1ec0:	00e4      	lsls	r4, r4, #3
    1ec2:	431c      	orrs	r4, r3
    1ec4:	00ff      	lsls	r7, r7, #3
    1ec6:	4e30      	ldr	r6, [pc, #192]	; (1f88 <__aeabi_dadd+0x618>)
    1ec8:	e5d6      	b.n	1a78 <__aeabi_dadd+0x108>
    1eca:	000c      	movs	r4, r1
    1ecc:	0017      	movs	r7, r2
    1ece:	0006      	movs	r6, r0
    1ed0:	e5d2      	b.n	1a78 <__aeabi_dadd+0x108>
    1ed2:	2b00      	cmp	r3, #0
    1ed4:	d038      	beq.n	1f48 <__aeabi_dadd+0x5d8>
    1ed6:	000b      	movs	r3, r1
    1ed8:	4313      	orrs	r3, r2
    1eda:	d100      	bne.n	1ede <__aeabi_dadd+0x56e>
    1edc:	e742      	b.n	1d64 <__aeabi_dadd+0x3f4>
    1ede:	08f8      	lsrs	r0, r7, #3
    1ee0:	0767      	lsls	r7, r4, #29
    1ee2:	4307      	orrs	r7, r0
    1ee4:	2080      	movs	r0, #128	; 0x80
    1ee6:	08e4      	lsrs	r4, r4, #3
    1ee8:	0300      	lsls	r0, r0, #12
    1eea:	4204      	tst	r4, r0
    1eec:	d0e7      	beq.n	1ebe <__aeabi_dadd+0x54e>
    1eee:	08cb      	lsrs	r3, r1, #3
    1ef0:	4203      	tst	r3, r0
    1ef2:	d1e4      	bne.n	1ebe <__aeabi_dadd+0x54e>
    1ef4:	08d2      	lsrs	r2, r2, #3
    1ef6:	0749      	lsls	r1, r1, #29
    1ef8:	4311      	orrs	r1, r2
    1efa:	000f      	movs	r7, r1
    1efc:	001c      	movs	r4, r3
    1efe:	e7de      	b.n	1ebe <__aeabi_dadd+0x54e>
    1f00:	2700      	movs	r7, #0
    1f02:	2400      	movs	r4, #0
    1f04:	e5d5      	b.n	1ab2 <__aeabi_dadd+0x142>
    1f06:	2100      	movs	r1, #0
    1f08:	e76b      	b.n	1de2 <__aeabi_dadd+0x472>
    1f0a:	2500      	movs	r5, #0
    1f0c:	2700      	movs	r7, #0
    1f0e:	e5f3      	b.n	1af8 <__aeabi_dadd+0x188>
    1f10:	464e      	mov	r6, r9
    1f12:	0025      	movs	r5, r4
    1f14:	3e20      	subs	r6, #32
    1f16:	40f5      	lsrs	r5, r6
    1f18:	464b      	mov	r3, r9
    1f1a:	002e      	movs	r6, r5
    1f1c:	2b20      	cmp	r3, #32
    1f1e:	d02d      	beq.n	1f7c <__aeabi_dadd+0x60c>
    1f20:	2540      	movs	r5, #64	; 0x40
    1f22:	1aed      	subs	r5, r5, r3
    1f24:	40ac      	lsls	r4, r5
    1f26:	4327      	orrs	r7, r4
    1f28:	1e7c      	subs	r4, r7, #1
    1f2a:	41a7      	sbcs	r7, r4
    1f2c:	2400      	movs	r4, #0
    1f2e:	4337      	orrs	r7, r6
    1f30:	e6c9      	b.n	1cc6 <__aeabi_dadd+0x356>
    1f32:	2480      	movs	r4, #128	; 0x80
    1f34:	2500      	movs	r5, #0
    1f36:	0324      	lsls	r4, r4, #12
    1f38:	4e13      	ldr	r6, [pc, #76]	; (1f88 <__aeabi_dadd+0x618>)
    1f3a:	2700      	movs	r7, #0
    1f3c:	e5dc      	b.n	1af8 <__aeabi_dadd+0x188>
    1f3e:	4327      	orrs	r7, r4
    1f40:	1e7c      	subs	r4, r7, #1
    1f42:	41a7      	sbcs	r7, r4
    1f44:	2400      	movs	r4, #0
    1f46:	e779      	b.n	1e3c <__aeabi_dadd+0x4cc>
    1f48:	000c      	movs	r4, r1
    1f4a:	0017      	movs	r7, r2
    1f4c:	4e0e      	ldr	r6, [pc, #56]	; (1f88 <__aeabi_dadd+0x618>)
    1f4e:	e593      	b.n	1a78 <__aeabi_dadd+0x108>
    1f50:	000c      	movs	r4, r1
    1f52:	0017      	movs	r7, r2
    1f54:	e590      	b.n	1a78 <__aeabi_dadd+0x108>
    1f56:	4656      	mov	r6, sl
    1f58:	0023      	movs	r3, r4
    1f5a:	3e20      	subs	r6, #32
    1f5c:	40f3      	lsrs	r3, r6
    1f5e:	4699      	mov	r9, r3
    1f60:	4653      	mov	r3, sl
    1f62:	2b20      	cmp	r3, #32
    1f64:	d00e      	beq.n	1f84 <__aeabi_dadd+0x614>
    1f66:	2340      	movs	r3, #64	; 0x40
    1f68:	4656      	mov	r6, sl
    1f6a:	1b9b      	subs	r3, r3, r6
    1f6c:	409c      	lsls	r4, r3
    1f6e:	4327      	orrs	r7, r4
    1f70:	1e7c      	subs	r4, r7, #1
    1f72:	41a7      	sbcs	r7, r4
    1f74:	464b      	mov	r3, r9
    1f76:	2400      	movs	r4, #0
    1f78:	431f      	orrs	r7, r3
    1f7a:	e75f      	b.n	1e3c <__aeabi_dadd+0x4cc>
    1f7c:	2400      	movs	r4, #0
    1f7e:	e7d2      	b.n	1f26 <__aeabi_dadd+0x5b6>
    1f80:	0017      	movs	r7, r2
    1f82:	e5b2      	b.n	1aea <__aeabi_dadd+0x17a>
    1f84:	2400      	movs	r4, #0
    1f86:	e7f2      	b.n	1f6e <__aeabi_dadd+0x5fe>
    1f88:	000007ff 	.word	0x000007ff
    1f8c:	ff7fffff 	.word	0xff7fffff

00001f90 <__aeabi_ddiv>:
    1f90:	b5f0      	push	{r4, r5, r6, r7, lr}
    1f92:	4657      	mov	r7, sl
    1f94:	4645      	mov	r5, r8
    1f96:	46de      	mov	lr, fp
    1f98:	464e      	mov	r6, r9
    1f9a:	b5e0      	push	{r5, r6, r7, lr}
    1f9c:	004c      	lsls	r4, r1, #1
    1f9e:	030e      	lsls	r6, r1, #12
    1fa0:	b087      	sub	sp, #28
    1fa2:	4683      	mov	fp, r0
    1fa4:	4692      	mov	sl, r2
    1fa6:	001d      	movs	r5, r3
    1fa8:	4680      	mov	r8, r0
    1faa:	0b36      	lsrs	r6, r6, #12
    1fac:	0d64      	lsrs	r4, r4, #21
    1fae:	0fcf      	lsrs	r7, r1, #31
    1fb0:	2c00      	cmp	r4, #0
    1fb2:	d04f      	beq.n	2054 <STACK_SIZE+0x54>
    1fb4:	4b6f      	ldr	r3, [pc, #444]	; (2174 <STACK_SIZE+0x174>)
    1fb6:	429c      	cmp	r4, r3
    1fb8:	d035      	beq.n	2026 <STACK_SIZE+0x26>
    1fba:	2380      	movs	r3, #128	; 0x80
    1fbc:	0f42      	lsrs	r2, r0, #29
    1fbe:	041b      	lsls	r3, r3, #16
    1fc0:	00f6      	lsls	r6, r6, #3
    1fc2:	4313      	orrs	r3, r2
    1fc4:	4333      	orrs	r3, r6
    1fc6:	4699      	mov	r9, r3
    1fc8:	00c3      	lsls	r3, r0, #3
    1fca:	4698      	mov	r8, r3
    1fcc:	4b6a      	ldr	r3, [pc, #424]	; (2178 <STACK_SIZE+0x178>)
    1fce:	2600      	movs	r6, #0
    1fd0:	469c      	mov	ip, r3
    1fd2:	2300      	movs	r3, #0
    1fd4:	4464      	add	r4, ip
    1fd6:	9303      	str	r3, [sp, #12]
    1fd8:	032b      	lsls	r3, r5, #12
    1fda:	0b1b      	lsrs	r3, r3, #12
    1fdc:	469b      	mov	fp, r3
    1fde:	006b      	lsls	r3, r5, #1
    1fe0:	0fed      	lsrs	r5, r5, #31
    1fe2:	4650      	mov	r0, sl
    1fe4:	0d5b      	lsrs	r3, r3, #21
    1fe6:	9501      	str	r5, [sp, #4]
    1fe8:	d05e      	beq.n	20a8 <STACK_SIZE+0xa8>
    1fea:	4a62      	ldr	r2, [pc, #392]	; (2174 <STACK_SIZE+0x174>)
    1fec:	4293      	cmp	r3, r2
    1fee:	d053      	beq.n	2098 <STACK_SIZE+0x98>
    1ff0:	465a      	mov	r2, fp
    1ff2:	00d1      	lsls	r1, r2, #3
    1ff4:	2280      	movs	r2, #128	; 0x80
    1ff6:	0f40      	lsrs	r0, r0, #29
    1ff8:	0412      	lsls	r2, r2, #16
    1ffa:	4302      	orrs	r2, r0
    1ffc:	430a      	orrs	r2, r1
    1ffe:	4693      	mov	fp, r2
    2000:	4652      	mov	r2, sl
    2002:	00d1      	lsls	r1, r2, #3
    2004:	4a5c      	ldr	r2, [pc, #368]	; (2178 <STACK_SIZE+0x178>)
    2006:	4694      	mov	ip, r2
    2008:	2200      	movs	r2, #0
    200a:	4463      	add	r3, ip
    200c:	0038      	movs	r0, r7
    200e:	4068      	eors	r0, r5
    2010:	4684      	mov	ip, r0
    2012:	9002      	str	r0, [sp, #8]
    2014:	1ae4      	subs	r4, r4, r3
    2016:	4316      	orrs	r6, r2
    2018:	2e0f      	cmp	r6, #15
    201a:	d900      	bls.n	201e <STACK_SIZE+0x1e>
    201c:	e0b4      	b.n	2188 <STACK_SIZE+0x188>
    201e:	4b57      	ldr	r3, [pc, #348]	; (217c <STACK_SIZE+0x17c>)
    2020:	00b6      	lsls	r6, r6, #2
    2022:	599b      	ldr	r3, [r3, r6]
    2024:	469f      	mov	pc, r3
    2026:	0003      	movs	r3, r0
    2028:	4333      	orrs	r3, r6
    202a:	4699      	mov	r9, r3
    202c:	d16c      	bne.n	2108 <STACK_SIZE+0x108>
    202e:	2300      	movs	r3, #0
    2030:	4698      	mov	r8, r3
    2032:	3302      	adds	r3, #2
    2034:	2608      	movs	r6, #8
    2036:	9303      	str	r3, [sp, #12]
    2038:	e7ce      	b.n	1fd8 <__aeabi_ddiv+0x48>
    203a:	46cb      	mov	fp, r9
    203c:	4641      	mov	r1, r8
    203e:	9a03      	ldr	r2, [sp, #12]
    2040:	9701      	str	r7, [sp, #4]
    2042:	2a02      	cmp	r2, #2
    2044:	d165      	bne.n	2112 <STACK_SIZE+0x112>
    2046:	9b01      	ldr	r3, [sp, #4]
    2048:	4c4a      	ldr	r4, [pc, #296]	; (2174 <STACK_SIZE+0x174>)
    204a:	469c      	mov	ip, r3
    204c:	2300      	movs	r3, #0
    204e:	2200      	movs	r2, #0
    2050:	4698      	mov	r8, r3
    2052:	e06b      	b.n	212c <STACK_SIZE+0x12c>
    2054:	0003      	movs	r3, r0
    2056:	4333      	orrs	r3, r6
    2058:	4699      	mov	r9, r3
    205a:	d04e      	beq.n	20fa <STACK_SIZE+0xfa>
    205c:	2e00      	cmp	r6, #0
    205e:	d100      	bne.n	2062 <STACK_SIZE+0x62>
    2060:	e1bc      	b.n	23dc <STACK_SIZE+0x3dc>
    2062:	0030      	movs	r0, r6
    2064:	f001 f996 	bl	3394 <__clzsi2>
    2068:	0003      	movs	r3, r0
    206a:	3b0b      	subs	r3, #11
    206c:	2b1c      	cmp	r3, #28
    206e:	dd00      	ble.n	2072 <STACK_SIZE+0x72>
    2070:	e1ac      	b.n	23cc <STACK_SIZE+0x3cc>
    2072:	221d      	movs	r2, #29
    2074:	1ad3      	subs	r3, r2, r3
    2076:	465a      	mov	r2, fp
    2078:	0001      	movs	r1, r0
    207a:	40da      	lsrs	r2, r3
    207c:	3908      	subs	r1, #8
    207e:	408e      	lsls	r6, r1
    2080:	0013      	movs	r3, r2
    2082:	4333      	orrs	r3, r6
    2084:	4699      	mov	r9, r3
    2086:	465b      	mov	r3, fp
    2088:	408b      	lsls	r3, r1
    208a:	4698      	mov	r8, r3
    208c:	2300      	movs	r3, #0
    208e:	4c3c      	ldr	r4, [pc, #240]	; (2180 <STACK_SIZE+0x180>)
    2090:	2600      	movs	r6, #0
    2092:	1a24      	subs	r4, r4, r0
    2094:	9303      	str	r3, [sp, #12]
    2096:	e79f      	b.n	1fd8 <__aeabi_ddiv+0x48>
    2098:	4651      	mov	r1, sl
    209a:	465a      	mov	r2, fp
    209c:	4311      	orrs	r1, r2
    209e:	d129      	bne.n	20f4 <STACK_SIZE+0xf4>
    20a0:	2200      	movs	r2, #0
    20a2:	4693      	mov	fp, r2
    20a4:	3202      	adds	r2, #2
    20a6:	e7b1      	b.n	200c <STACK_SIZE+0xc>
    20a8:	4659      	mov	r1, fp
    20aa:	4301      	orrs	r1, r0
    20ac:	d01e      	beq.n	20ec <STACK_SIZE+0xec>
    20ae:	465b      	mov	r3, fp
    20b0:	2b00      	cmp	r3, #0
    20b2:	d100      	bne.n	20b6 <STACK_SIZE+0xb6>
    20b4:	e19e      	b.n	23f4 <STACK_SIZE+0x3f4>
    20b6:	4658      	mov	r0, fp
    20b8:	f001 f96c 	bl	3394 <__clzsi2>
    20bc:	0003      	movs	r3, r0
    20be:	3b0b      	subs	r3, #11
    20c0:	2b1c      	cmp	r3, #28
    20c2:	dd00      	ble.n	20c6 <STACK_SIZE+0xc6>
    20c4:	e18f      	b.n	23e6 <STACK_SIZE+0x3e6>
    20c6:	0002      	movs	r2, r0
    20c8:	4659      	mov	r1, fp
    20ca:	3a08      	subs	r2, #8
    20cc:	4091      	lsls	r1, r2
    20ce:	468b      	mov	fp, r1
    20d0:	211d      	movs	r1, #29
    20d2:	1acb      	subs	r3, r1, r3
    20d4:	4651      	mov	r1, sl
    20d6:	40d9      	lsrs	r1, r3
    20d8:	000b      	movs	r3, r1
    20da:	4659      	mov	r1, fp
    20dc:	430b      	orrs	r3, r1
    20de:	4651      	mov	r1, sl
    20e0:	469b      	mov	fp, r3
    20e2:	4091      	lsls	r1, r2
    20e4:	4b26      	ldr	r3, [pc, #152]	; (2180 <STACK_SIZE+0x180>)
    20e6:	2200      	movs	r2, #0
    20e8:	1a1b      	subs	r3, r3, r0
    20ea:	e78f      	b.n	200c <STACK_SIZE+0xc>
    20ec:	2300      	movs	r3, #0
    20ee:	2201      	movs	r2, #1
    20f0:	469b      	mov	fp, r3
    20f2:	e78b      	b.n	200c <STACK_SIZE+0xc>
    20f4:	4651      	mov	r1, sl
    20f6:	2203      	movs	r2, #3
    20f8:	e788      	b.n	200c <STACK_SIZE+0xc>
    20fa:	2300      	movs	r3, #0
    20fc:	4698      	mov	r8, r3
    20fe:	3301      	adds	r3, #1
    2100:	2604      	movs	r6, #4
    2102:	2400      	movs	r4, #0
    2104:	9303      	str	r3, [sp, #12]
    2106:	e767      	b.n	1fd8 <__aeabi_ddiv+0x48>
    2108:	2303      	movs	r3, #3
    210a:	46b1      	mov	r9, r6
    210c:	9303      	str	r3, [sp, #12]
    210e:	260c      	movs	r6, #12
    2110:	e762      	b.n	1fd8 <__aeabi_ddiv+0x48>
    2112:	2a03      	cmp	r2, #3
    2114:	d100      	bne.n	2118 <STACK_SIZE+0x118>
    2116:	e25c      	b.n	25d2 <STACK_SIZE+0x5d2>
    2118:	9b01      	ldr	r3, [sp, #4]
    211a:	2a01      	cmp	r2, #1
    211c:	d000      	beq.n	2120 <STACK_SIZE+0x120>
    211e:	e1e4      	b.n	24ea <STACK_SIZE+0x4ea>
    2120:	4013      	ands	r3, r2
    2122:	469c      	mov	ip, r3
    2124:	2300      	movs	r3, #0
    2126:	2400      	movs	r4, #0
    2128:	2200      	movs	r2, #0
    212a:	4698      	mov	r8, r3
    212c:	2100      	movs	r1, #0
    212e:	0312      	lsls	r2, r2, #12
    2130:	0b13      	lsrs	r3, r2, #12
    2132:	0d0a      	lsrs	r2, r1, #20
    2134:	0512      	lsls	r2, r2, #20
    2136:	431a      	orrs	r2, r3
    2138:	0523      	lsls	r3, r4, #20
    213a:	4c12      	ldr	r4, [pc, #72]	; (2184 <STACK_SIZE+0x184>)
    213c:	4640      	mov	r0, r8
    213e:	4022      	ands	r2, r4
    2140:	4313      	orrs	r3, r2
    2142:	4662      	mov	r2, ip
    2144:	005b      	lsls	r3, r3, #1
    2146:	07d2      	lsls	r2, r2, #31
    2148:	085b      	lsrs	r3, r3, #1
    214a:	4313      	orrs	r3, r2
    214c:	0019      	movs	r1, r3
    214e:	b007      	add	sp, #28
    2150:	bc3c      	pop	{r2, r3, r4, r5}
    2152:	4690      	mov	r8, r2
    2154:	4699      	mov	r9, r3
    2156:	46a2      	mov	sl, r4
    2158:	46ab      	mov	fp, r5
    215a:	bdf0      	pop	{r4, r5, r6, r7, pc}
    215c:	2300      	movs	r3, #0
    215e:	2280      	movs	r2, #128	; 0x80
    2160:	469c      	mov	ip, r3
    2162:	0312      	lsls	r2, r2, #12
    2164:	4698      	mov	r8, r3
    2166:	4c03      	ldr	r4, [pc, #12]	; (2174 <STACK_SIZE+0x174>)
    2168:	e7e0      	b.n	212c <STACK_SIZE+0x12c>
    216a:	2300      	movs	r3, #0
    216c:	4c01      	ldr	r4, [pc, #4]	; (2174 <STACK_SIZE+0x174>)
    216e:	2200      	movs	r2, #0
    2170:	4698      	mov	r8, r3
    2172:	e7db      	b.n	212c <STACK_SIZE+0x12c>
    2174:	000007ff 	.word	0x000007ff
    2178:	fffffc01 	.word	0xfffffc01
    217c:	00003624 	.word	0x00003624
    2180:	fffffc0d 	.word	0xfffffc0d
    2184:	800fffff 	.word	0x800fffff
    2188:	45d9      	cmp	r9, fp
    218a:	d900      	bls.n	218e <STACK_SIZE+0x18e>
    218c:	e139      	b.n	2402 <STACK_SIZE+0x402>
    218e:	d100      	bne.n	2192 <STACK_SIZE+0x192>
    2190:	e134      	b.n	23fc <STACK_SIZE+0x3fc>
    2192:	2300      	movs	r3, #0
    2194:	4646      	mov	r6, r8
    2196:	464d      	mov	r5, r9
    2198:	469a      	mov	sl, r3
    219a:	3c01      	subs	r4, #1
    219c:	465b      	mov	r3, fp
    219e:	0e0a      	lsrs	r2, r1, #24
    21a0:	021b      	lsls	r3, r3, #8
    21a2:	431a      	orrs	r2, r3
    21a4:	020b      	lsls	r3, r1, #8
    21a6:	0c17      	lsrs	r7, r2, #16
    21a8:	9303      	str	r3, [sp, #12]
    21aa:	0413      	lsls	r3, r2, #16
    21ac:	0c1b      	lsrs	r3, r3, #16
    21ae:	0039      	movs	r1, r7
    21b0:	0028      	movs	r0, r5
    21b2:	4690      	mov	r8, r2
    21b4:	9301      	str	r3, [sp, #4]
    21b6:	f7ff fa05 	bl	15c4 <__udivsi3>
    21ba:	0002      	movs	r2, r0
    21bc:	9b01      	ldr	r3, [sp, #4]
    21be:	4683      	mov	fp, r0
    21c0:	435a      	muls	r2, r3
    21c2:	0028      	movs	r0, r5
    21c4:	0039      	movs	r1, r7
    21c6:	4691      	mov	r9, r2
    21c8:	f7ff fa82 	bl	16d0 <__aeabi_uidivmod>
    21cc:	0c35      	lsrs	r5, r6, #16
    21ce:	0409      	lsls	r1, r1, #16
    21d0:	430d      	orrs	r5, r1
    21d2:	45a9      	cmp	r9, r5
    21d4:	d90d      	bls.n	21f2 <STACK_SIZE+0x1f2>
    21d6:	465b      	mov	r3, fp
    21d8:	4445      	add	r5, r8
    21da:	3b01      	subs	r3, #1
    21dc:	45a8      	cmp	r8, r5
    21de:	d900      	bls.n	21e2 <STACK_SIZE+0x1e2>
    21e0:	e13a      	b.n	2458 <STACK_SIZE+0x458>
    21e2:	45a9      	cmp	r9, r5
    21e4:	d800      	bhi.n	21e8 <STACK_SIZE+0x1e8>
    21e6:	e137      	b.n	2458 <STACK_SIZE+0x458>
    21e8:	2302      	movs	r3, #2
    21ea:	425b      	negs	r3, r3
    21ec:	469c      	mov	ip, r3
    21ee:	4445      	add	r5, r8
    21f0:	44e3      	add	fp, ip
    21f2:	464b      	mov	r3, r9
    21f4:	1aeb      	subs	r3, r5, r3
    21f6:	0039      	movs	r1, r7
    21f8:	0018      	movs	r0, r3
    21fa:	9304      	str	r3, [sp, #16]
    21fc:	f7ff f9e2 	bl	15c4 <__udivsi3>
    2200:	9b01      	ldr	r3, [sp, #4]
    2202:	0005      	movs	r5, r0
    2204:	4343      	muls	r3, r0
    2206:	0039      	movs	r1, r7
    2208:	9804      	ldr	r0, [sp, #16]
    220a:	4699      	mov	r9, r3
    220c:	f7ff fa60 	bl	16d0 <__aeabi_uidivmod>
    2210:	0433      	lsls	r3, r6, #16
    2212:	0409      	lsls	r1, r1, #16
    2214:	0c1b      	lsrs	r3, r3, #16
    2216:	430b      	orrs	r3, r1
    2218:	4599      	cmp	r9, r3
    221a:	d909      	bls.n	2230 <STACK_SIZE+0x230>
    221c:	4443      	add	r3, r8
    221e:	1e6a      	subs	r2, r5, #1
    2220:	4598      	cmp	r8, r3
    2222:	d900      	bls.n	2226 <STACK_SIZE+0x226>
    2224:	e11a      	b.n	245c <STACK_SIZE+0x45c>
    2226:	4599      	cmp	r9, r3
    2228:	d800      	bhi.n	222c <STACK_SIZE+0x22c>
    222a:	e117      	b.n	245c <STACK_SIZE+0x45c>
    222c:	3d02      	subs	r5, #2
    222e:	4443      	add	r3, r8
    2230:	464a      	mov	r2, r9
    2232:	1a9b      	subs	r3, r3, r2
    2234:	465a      	mov	r2, fp
    2236:	0412      	lsls	r2, r2, #16
    2238:	432a      	orrs	r2, r5
    223a:	9903      	ldr	r1, [sp, #12]
    223c:	4693      	mov	fp, r2
    223e:	0c10      	lsrs	r0, r2, #16
    2240:	0c0a      	lsrs	r2, r1, #16
    2242:	4691      	mov	r9, r2
    2244:	0409      	lsls	r1, r1, #16
    2246:	465a      	mov	r2, fp
    2248:	0c09      	lsrs	r1, r1, #16
    224a:	464e      	mov	r6, r9
    224c:	000d      	movs	r5, r1
    224e:	0412      	lsls	r2, r2, #16
    2250:	0c12      	lsrs	r2, r2, #16
    2252:	4345      	muls	r5, r0
    2254:	9105      	str	r1, [sp, #20]
    2256:	4351      	muls	r1, r2
    2258:	4372      	muls	r2, r6
    225a:	4370      	muls	r0, r6
    225c:	1952      	adds	r2, r2, r5
    225e:	0c0e      	lsrs	r6, r1, #16
    2260:	18b2      	adds	r2, r6, r2
    2262:	4295      	cmp	r5, r2
    2264:	d903      	bls.n	226e <STACK_SIZE+0x26e>
    2266:	2580      	movs	r5, #128	; 0x80
    2268:	026d      	lsls	r5, r5, #9
    226a:	46ac      	mov	ip, r5
    226c:	4460      	add	r0, ip
    226e:	0c15      	lsrs	r5, r2, #16
    2270:	0409      	lsls	r1, r1, #16
    2272:	0412      	lsls	r2, r2, #16
    2274:	0c09      	lsrs	r1, r1, #16
    2276:	1828      	adds	r0, r5, r0
    2278:	1852      	adds	r2, r2, r1
    227a:	4283      	cmp	r3, r0
    227c:	d200      	bcs.n	2280 <STACK_SIZE+0x280>
    227e:	e0ce      	b.n	241e <STACK_SIZE+0x41e>
    2280:	d100      	bne.n	2284 <STACK_SIZE+0x284>
    2282:	e0c8      	b.n	2416 <STACK_SIZE+0x416>
    2284:	1a1d      	subs	r5, r3, r0
    2286:	4653      	mov	r3, sl
    2288:	1a9e      	subs	r6, r3, r2
    228a:	45b2      	cmp	sl, r6
    228c:	4192      	sbcs	r2, r2
    228e:	4252      	negs	r2, r2
    2290:	1aab      	subs	r3, r5, r2
    2292:	469a      	mov	sl, r3
    2294:	4598      	cmp	r8, r3
    2296:	d100      	bne.n	229a <STACK_SIZE+0x29a>
    2298:	e117      	b.n	24ca <STACK_SIZE+0x4ca>
    229a:	0039      	movs	r1, r7
    229c:	0018      	movs	r0, r3
    229e:	f7ff f991 	bl	15c4 <__udivsi3>
    22a2:	9b01      	ldr	r3, [sp, #4]
    22a4:	0005      	movs	r5, r0
    22a6:	4343      	muls	r3, r0
    22a8:	0039      	movs	r1, r7
    22aa:	4650      	mov	r0, sl
    22ac:	9304      	str	r3, [sp, #16]
    22ae:	f7ff fa0f 	bl	16d0 <__aeabi_uidivmod>
    22b2:	9804      	ldr	r0, [sp, #16]
    22b4:	040b      	lsls	r3, r1, #16
    22b6:	0c31      	lsrs	r1, r6, #16
    22b8:	4319      	orrs	r1, r3
    22ba:	4288      	cmp	r0, r1
    22bc:	d909      	bls.n	22d2 <STACK_SIZE+0x2d2>
    22be:	4441      	add	r1, r8
    22c0:	1e6b      	subs	r3, r5, #1
    22c2:	4588      	cmp	r8, r1
    22c4:	d900      	bls.n	22c8 <STACK_SIZE+0x2c8>
    22c6:	e107      	b.n	24d8 <STACK_SIZE+0x4d8>
    22c8:	4288      	cmp	r0, r1
    22ca:	d800      	bhi.n	22ce <STACK_SIZE+0x2ce>
    22cc:	e104      	b.n	24d8 <STACK_SIZE+0x4d8>
    22ce:	3d02      	subs	r5, #2
    22d0:	4441      	add	r1, r8
    22d2:	9b04      	ldr	r3, [sp, #16]
    22d4:	1acb      	subs	r3, r1, r3
    22d6:	0018      	movs	r0, r3
    22d8:	0039      	movs	r1, r7
    22da:	9304      	str	r3, [sp, #16]
    22dc:	f7ff f972 	bl	15c4 <__udivsi3>
    22e0:	9b01      	ldr	r3, [sp, #4]
    22e2:	4682      	mov	sl, r0
    22e4:	4343      	muls	r3, r0
    22e6:	0039      	movs	r1, r7
    22e8:	9804      	ldr	r0, [sp, #16]
    22ea:	9301      	str	r3, [sp, #4]
    22ec:	f7ff f9f0 	bl	16d0 <__aeabi_uidivmod>
    22f0:	9801      	ldr	r0, [sp, #4]
    22f2:	040b      	lsls	r3, r1, #16
    22f4:	0431      	lsls	r1, r6, #16
    22f6:	0c09      	lsrs	r1, r1, #16
    22f8:	4319      	orrs	r1, r3
    22fa:	4288      	cmp	r0, r1
    22fc:	d90d      	bls.n	231a <STACK_SIZE+0x31a>
    22fe:	4653      	mov	r3, sl
    2300:	4441      	add	r1, r8
    2302:	3b01      	subs	r3, #1
    2304:	4588      	cmp	r8, r1
    2306:	d900      	bls.n	230a <STACK_SIZE+0x30a>
    2308:	e0e8      	b.n	24dc <STACK_SIZE+0x4dc>
    230a:	4288      	cmp	r0, r1
    230c:	d800      	bhi.n	2310 <STACK_SIZE+0x310>
    230e:	e0e5      	b.n	24dc <STACK_SIZE+0x4dc>
    2310:	2302      	movs	r3, #2
    2312:	425b      	negs	r3, r3
    2314:	469c      	mov	ip, r3
    2316:	4441      	add	r1, r8
    2318:	44e2      	add	sl, ip
    231a:	9b01      	ldr	r3, [sp, #4]
    231c:	042d      	lsls	r5, r5, #16
    231e:	1ace      	subs	r6, r1, r3
    2320:	4651      	mov	r1, sl
    2322:	4329      	orrs	r1, r5
    2324:	9d05      	ldr	r5, [sp, #20]
    2326:	464f      	mov	r7, r9
    2328:	002a      	movs	r2, r5
    232a:	040b      	lsls	r3, r1, #16
    232c:	0c08      	lsrs	r0, r1, #16
    232e:	0c1b      	lsrs	r3, r3, #16
    2330:	435a      	muls	r2, r3
    2332:	4345      	muls	r5, r0
    2334:	437b      	muls	r3, r7
    2336:	4378      	muls	r0, r7
    2338:	195b      	adds	r3, r3, r5
    233a:	0c17      	lsrs	r7, r2, #16
    233c:	18fb      	adds	r3, r7, r3
    233e:	429d      	cmp	r5, r3
    2340:	d903      	bls.n	234a <STACK_SIZE+0x34a>
    2342:	2580      	movs	r5, #128	; 0x80
    2344:	026d      	lsls	r5, r5, #9
    2346:	46ac      	mov	ip, r5
    2348:	4460      	add	r0, ip
    234a:	0c1d      	lsrs	r5, r3, #16
    234c:	0412      	lsls	r2, r2, #16
    234e:	041b      	lsls	r3, r3, #16
    2350:	0c12      	lsrs	r2, r2, #16
    2352:	1828      	adds	r0, r5, r0
    2354:	189b      	adds	r3, r3, r2
    2356:	4286      	cmp	r6, r0
    2358:	d200      	bcs.n	235c <STACK_SIZE+0x35c>
    235a:	e093      	b.n	2484 <STACK_SIZE+0x484>
    235c:	d100      	bne.n	2360 <STACK_SIZE+0x360>
    235e:	e08e      	b.n	247e <STACK_SIZE+0x47e>
    2360:	2301      	movs	r3, #1
    2362:	4319      	orrs	r1, r3
    2364:	4ba0      	ldr	r3, [pc, #640]	; (25e8 <STACK_SIZE+0x5e8>)
    2366:	18e3      	adds	r3, r4, r3
    2368:	2b00      	cmp	r3, #0
    236a:	dc00      	bgt.n	236e <STACK_SIZE+0x36e>
    236c:	e099      	b.n	24a2 <STACK_SIZE+0x4a2>
    236e:	074a      	lsls	r2, r1, #29
    2370:	d000      	beq.n	2374 <STACK_SIZE+0x374>
    2372:	e09e      	b.n	24b2 <STACK_SIZE+0x4b2>
    2374:	465a      	mov	r2, fp
    2376:	01d2      	lsls	r2, r2, #7
    2378:	d506      	bpl.n	2388 <STACK_SIZE+0x388>
    237a:	465a      	mov	r2, fp
    237c:	4b9b      	ldr	r3, [pc, #620]	; (25ec <STACK_SIZE+0x5ec>)
    237e:	401a      	ands	r2, r3
    2380:	2380      	movs	r3, #128	; 0x80
    2382:	4693      	mov	fp, r2
    2384:	00db      	lsls	r3, r3, #3
    2386:	18e3      	adds	r3, r4, r3
    2388:	4a99      	ldr	r2, [pc, #612]	; (25f0 <STACK_SIZE+0x5f0>)
    238a:	4293      	cmp	r3, r2
    238c:	dd68      	ble.n	2460 <STACK_SIZE+0x460>
    238e:	2301      	movs	r3, #1
    2390:	9a02      	ldr	r2, [sp, #8]
    2392:	4c98      	ldr	r4, [pc, #608]	; (25f4 <STACK_SIZE+0x5f4>)
    2394:	401a      	ands	r2, r3
    2396:	2300      	movs	r3, #0
    2398:	4694      	mov	ip, r2
    239a:	4698      	mov	r8, r3
    239c:	2200      	movs	r2, #0
    239e:	e6c5      	b.n	212c <STACK_SIZE+0x12c>
    23a0:	2280      	movs	r2, #128	; 0x80
    23a2:	464b      	mov	r3, r9
    23a4:	0312      	lsls	r2, r2, #12
    23a6:	4213      	tst	r3, r2
    23a8:	d00a      	beq.n	23c0 <STACK_SIZE+0x3c0>
    23aa:	465b      	mov	r3, fp
    23ac:	4213      	tst	r3, r2
    23ae:	d106      	bne.n	23be <STACK_SIZE+0x3be>
    23b0:	431a      	orrs	r2, r3
    23b2:	0312      	lsls	r2, r2, #12
    23b4:	0b12      	lsrs	r2, r2, #12
    23b6:	46ac      	mov	ip, r5
    23b8:	4688      	mov	r8, r1
    23ba:	4c8e      	ldr	r4, [pc, #568]	; (25f4 <STACK_SIZE+0x5f4>)
    23bc:	e6b6      	b.n	212c <STACK_SIZE+0x12c>
    23be:	464b      	mov	r3, r9
    23c0:	431a      	orrs	r2, r3
    23c2:	0312      	lsls	r2, r2, #12
    23c4:	0b12      	lsrs	r2, r2, #12
    23c6:	46bc      	mov	ip, r7
    23c8:	4c8a      	ldr	r4, [pc, #552]	; (25f4 <STACK_SIZE+0x5f4>)
    23ca:	e6af      	b.n	212c <STACK_SIZE+0x12c>
    23cc:	0003      	movs	r3, r0
    23ce:	465a      	mov	r2, fp
    23d0:	3b28      	subs	r3, #40	; 0x28
    23d2:	409a      	lsls	r2, r3
    23d4:	2300      	movs	r3, #0
    23d6:	4691      	mov	r9, r2
    23d8:	4698      	mov	r8, r3
    23da:	e657      	b.n	208c <STACK_SIZE+0x8c>
    23dc:	4658      	mov	r0, fp
    23de:	f000 ffd9 	bl	3394 <__clzsi2>
    23e2:	3020      	adds	r0, #32
    23e4:	e640      	b.n	2068 <STACK_SIZE+0x68>
    23e6:	0003      	movs	r3, r0
    23e8:	4652      	mov	r2, sl
    23ea:	3b28      	subs	r3, #40	; 0x28
    23ec:	409a      	lsls	r2, r3
    23ee:	2100      	movs	r1, #0
    23f0:	4693      	mov	fp, r2
    23f2:	e677      	b.n	20e4 <STACK_SIZE+0xe4>
    23f4:	f000 ffce 	bl	3394 <__clzsi2>
    23f8:	3020      	adds	r0, #32
    23fa:	e65f      	b.n	20bc <STACK_SIZE+0xbc>
    23fc:	4588      	cmp	r8, r1
    23fe:	d200      	bcs.n	2402 <STACK_SIZE+0x402>
    2400:	e6c7      	b.n	2192 <STACK_SIZE+0x192>
    2402:	464b      	mov	r3, r9
    2404:	07de      	lsls	r6, r3, #31
    2406:	085d      	lsrs	r5, r3, #1
    2408:	4643      	mov	r3, r8
    240a:	085b      	lsrs	r3, r3, #1
    240c:	431e      	orrs	r6, r3
    240e:	4643      	mov	r3, r8
    2410:	07db      	lsls	r3, r3, #31
    2412:	469a      	mov	sl, r3
    2414:	e6c2      	b.n	219c <STACK_SIZE+0x19c>
    2416:	2500      	movs	r5, #0
    2418:	4592      	cmp	sl, r2
    241a:	d300      	bcc.n	241e <STACK_SIZE+0x41e>
    241c:	e733      	b.n	2286 <STACK_SIZE+0x286>
    241e:	9e03      	ldr	r6, [sp, #12]
    2420:	4659      	mov	r1, fp
    2422:	46b4      	mov	ip, r6
    2424:	44e2      	add	sl, ip
    2426:	45b2      	cmp	sl, r6
    2428:	41ad      	sbcs	r5, r5
    242a:	426d      	negs	r5, r5
    242c:	4445      	add	r5, r8
    242e:	18eb      	adds	r3, r5, r3
    2430:	3901      	subs	r1, #1
    2432:	4598      	cmp	r8, r3
    2434:	d207      	bcs.n	2446 <STACK_SIZE+0x446>
    2436:	4298      	cmp	r0, r3
    2438:	d900      	bls.n	243c <STACK_SIZE+0x43c>
    243a:	e07f      	b.n	253c <STACK_SIZE+0x53c>
    243c:	d100      	bne.n	2440 <STACK_SIZE+0x440>
    243e:	e0bc      	b.n	25ba <STACK_SIZE+0x5ba>
    2440:	1a1d      	subs	r5, r3, r0
    2442:	468b      	mov	fp, r1
    2444:	e71f      	b.n	2286 <STACK_SIZE+0x286>
    2446:	4598      	cmp	r8, r3
    2448:	d1fa      	bne.n	2440 <STACK_SIZE+0x440>
    244a:	9d03      	ldr	r5, [sp, #12]
    244c:	4555      	cmp	r5, sl
    244e:	d9f2      	bls.n	2436 <STACK_SIZE+0x436>
    2450:	4643      	mov	r3, r8
    2452:	468b      	mov	fp, r1
    2454:	1a1d      	subs	r5, r3, r0
    2456:	e716      	b.n	2286 <STACK_SIZE+0x286>
    2458:	469b      	mov	fp, r3
    245a:	e6ca      	b.n	21f2 <STACK_SIZE+0x1f2>
    245c:	0015      	movs	r5, r2
    245e:	e6e7      	b.n	2230 <STACK_SIZE+0x230>
    2460:	465a      	mov	r2, fp
    2462:	08c9      	lsrs	r1, r1, #3
    2464:	0752      	lsls	r2, r2, #29
    2466:	430a      	orrs	r2, r1
    2468:	055b      	lsls	r3, r3, #21
    246a:	4690      	mov	r8, r2
    246c:	0d5c      	lsrs	r4, r3, #21
    246e:	465a      	mov	r2, fp
    2470:	2301      	movs	r3, #1
    2472:	9902      	ldr	r1, [sp, #8]
    2474:	0252      	lsls	r2, r2, #9
    2476:	4019      	ands	r1, r3
    2478:	0b12      	lsrs	r2, r2, #12
    247a:	468c      	mov	ip, r1
    247c:	e656      	b.n	212c <STACK_SIZE+0x12c>
    247e:	2b00      	cmp	r3, #0
    2480:	d100      	bne.n	2484 <STACK_SIZE+0x484>
    2482:	e76f      	b.n	2364 <STACK_SIZE+0x364>
    2484:	4446      	add	r6, r8
    2486:	1e4a      	subs	r2, r1, #1
    2488:	45b0      	cmp	r8, r6
    248a:	d929      	bls.n	24e0 <STACK_SIZE+0x4e0>
    248c:	0011      	movs	r1, r2
    248e:	4286      	cmp	r6, r0
    2490:	d000      	beq.n	2494 <STACK_SIZE+0x494>
    2492:	e765      	b.n	2360 <STACK_SIZE+0x360>
    2494:	9a03      	ldr	r2, [sp, #12]
    2496:	4293      	cmp	r3, r2
    2498:	d000      	beq.n	249c <STACK_SIZE+0x49c>
    249a:	e761      	b.n	2360 <STACK_SIZE+0x360>
    249c:	e762      	b.n	2364 <STACK_SIZE+0x364>
    249e:	2101      	movs	r1, #1
    24a0:	4249      	negs	r1, r1
    24a2:	2001      	movs	r0, #1
    24a4:	1ac2      	subs	r2, r0, r3
    24a6:	2a38      	cmp	r2, #56	; 0x38
    24a8:	dd21      	ble.n	24ee <STACK_SIZE+0x4ee>
    24aa:	9b02      	ldr	r3, [sp, #8]
    24ac:	4003      	ands	r3, r0
    24ae:	469c      	mov	ip, r3
    24b0:	e638      	b.n	2124 <STACK_SIZE+0x124>
    24b2:	220f      	movs	r2, #15
    24b4:	400a      	ands	r2, r1
    24b6:	2a04      	cmp	r2, #4
    24b8:	d100      	bne.n	24bc <STACK_SIZE+0x4bc>
    24ba:	e75b      	b.n	2374 <STACK_SIZE+0x374>
    24bc:	000a      	movs	r2, r1
    24be:	1d11      	adds	r1, r2, #4
    24c0:	4291      	cmp	r1, r2
    24c2:	4192      	sbcs	r2, r2
    24c4:	4252      	negs	r2, r2
    24c6:	4493      	add	fp, r2
    24c8:	e754      	b.n	2374 <STACK_SIZE+0x374>
    24ca:	4b47      	ldr	r3, [pc, #284]	; (25e8 <STACK_SIZE+0x5e8>)
    24cc:	18e3      	adds	r3, r4, r3
    24ce:	2b00      	cmp	r3, #0
    24d0:	dde5      	ble.n	249e <STACK_SIZE+0x49e>
    24d2:	2201      	movs	r2, #1
    24d4:	4252      	negs	r2, r2
    24d6:	e7f2      	b.n	24be <STACK_SIZE+0x4be>
    24d8:	001d      	movs	r5, r3
    24da:	e6fa      	b.n	22d2 <STACK_SIZE+0x2d2>
    24dc:	469a      	mov	sl, r3
    24de:	e71c      	b.n	231a <STACK_SIZE+0x31a>
    24e0:	42b0      	cmp	r0, r6
    24e2:	d839      	bhi.n	2558 <STACK_SIZE+0x558>
    24e4:	d06e      	beq.n	25c4 <STACK_SIZE+0x5c4>
    24e6:	0011      	movs	r1, r2
    24e8:	e73a      	b.n	2360 <STACK_SIZE+0x360>
    24ea:	9302      	str	r3, [sp, #8]
    24ec:	e73a      	b.n	2364 <STACK_SIZE+0x364>
    24ee:	2a1f      	cmp	r2, #31
    24f0:	dc3c      	bgt.n	256c <STACK_SIZE+0x56c>
    24f2:	2320      	movs	r3, #32
    24f4:	1a9b      	subs	r3, r3, r2
    24f6:	000c      	movs	r4, r1
    24f8:	4658      	mov	r0, fp
    24fa:	4099      	lsls	r1, r3
    24fc:	4098      	lsls	r0, r3
    24fe:	1e4b      	subs	r3, r1, #1
    2500:	4199      	sbcs	r1, r3
    2502:	465b      	mov	r3, fp
    2504:	40d4      	lsrs	r4, r2
    2506:	40d3      	lsrs	r3, r2
    2508:	4320      	orrs	r0, r4
    250a:	4308      	orrs	r0, r1
    250c:	001a      	movs	r2, r3
    250e:	0743      	lsls	r3, r0, #29
    2510:	d009      	beq.n	2526 <STACK_SIZE+0x526>
    2512:	230f      	movs	r3, #15
    2514:	4003      	ands	r3, r0
    2516:	2b04      	cmp	r3, #4
    2518:	d005      	beq.n	2526 <STACK_SIZE+0x526>
    251a:	0001      	movs	r1, r0
    251c:	1d08      	adds	r0, r1, #4
    251e:	4288      	cmp	r0, r1
    2520:	419b      	sbcs	r3, r3
    2522:	425b      	negs	r3, r3
    2524:	18d2      	adds	r2, r2, r3
    2526:	0213      	lsls	r3, r2, #8
    2528:	d53a      	bpl.n	25a0 <STACK_SIZE+0x5a0>
    252a:	2301      	movs	r3, #1
    252c:	9a02      	ldr	r2, [sp, #8]
    252e:	2401      	movs	r4, #1
    2530:	401a      	ands	r2, r3
    2532:	2300      	movs	r3, #0
    2534:	4694      	mov	ip, r2
    2536:	4698      	mov	r8, r3
    2538:	2200      	movs	r2, #0
    253a:	e5f7      	b.n	212c <STACK_SIZE+0x12c>
    253c:	2102      	movs	r1, #2
    253e:	4249      	negs	r1, r1
    2540:	468c      	mov	ip, r1
    2542:	9d03      	ldr	r5, [sp, #12]
    2544:	44e3      	add	fp, ip
    2546:	46ac      	mov	ip, r5
    2548:	44e2      	add	sl, ip
    254a:	45aa      	cmp	sl, r5
    254c:	41ad      	sbcs	r5, r5
    254e:	426d      	negs	r5, r5
    2550:	4445      	add	r5, r8
    2552:	18ed      	adds	r5, r5, r3
    2554:	1a2d      	subs	r5, r5, r0
    2556:	e696      	b.n	2286 <STACK_SIZE+0x286>
    2558:	1e8a      	subs	r2, r1, #2
    255a:	9903      	ldr	r1, [sp, #12]
    255c:	004d      	lsls	r5, r1, #1
    255e:	428d      	cmp	r5, r1
    2560:	4189      	sbcs	r1, r1
    2562:	4249      	negs	r1, r1
    2564:	4441      	add	r1, r8
    2566:	1876      	adds	r6, r6, r1
    2568:	9503      	str	r5, [sp, #12]
    256a:	e78f      	b.n	248c <STACK_SIZE+0x48c>
    256c:	201f      	movs	r0, #31
    256e:	4240      	negs	r0, r0
    2570:	1ac3      	subs	r3, r0, r3
    2572:	4658      	mov	r0, fp
    2574:	40d8      	lsrs	r0, r3
    2576:	0003      	movs	r3, r0
    2578:	2a20      	cmp	r2, #32
    257a:	d028      	beq.n	25ce <STACK_SIZE+0x5ce>
    257c:	2040      	movs	r0, #64	; 0x40
    257e:	465d      	mov	r5, fp
    2580:	1a82      	subs	r2, r0, r2
    2582:	4095      	lsls	r5, r2
    2584:	4329      	orrs	r1, r5
    2586:	1e4a      	subs	r2, r1, #1
    2588:	4191      	sbcs	r1, r2
    258a:	4319      	orrs	r1, r3
    258c:	2307      	movs	r3, #7
    258e:	2200      	movs	r2, #0
    2590:	400b      	ands	r3, r1
    2592:	d009      	beq.n	25a8 <STACK_SIZE+0x5a8>
    2594:	230f      	movs	r3, #15
    2596:	2200      	movs	r2, #0
    2598:	400b      	ands	r3, r1
    259a:	0008      	movs	r0, r1
    259c:	2b04      	cmp	r3, #4
    259e:	d1bd      	bne.n	251c <STACK_SIZE+0x51c>
    25a0:	0001      	movs	r1, r0
    25a2:	0753      	lsls	r3, r2, #29
    25a4:	0252      	lsls	r2, r2, #9
    25a6:	0b12      	lsrs	r2, r2, #12
    25a8:	08c9      	lsrs	r1, r1, #3
    25aa:	4319      	orrs	r1, r3
    25ac:	2301      	movs	r3, #1
    25ae:	4688      	mov	r8, r1
    25b0:	9902      	ldr	r1, [sp, #8]
    25b2:	2400      	movs	r4, #0
    25b4:	4019      	ands	r1, r3
    25b6:	468c      	mov	ip, r1
    25b8:	e5b8      	b.n	212c <STACK_SIZE+0x12c>
    25ba:	4552      	cmp	r2, sl
    25bc:	d8be      	bhi.n	253c <STACK_SIZE+0x53c>
    25be:	468b      	mov	fp, r1
    25c0:	2500      	movs	r5, #0
    25c2:	e660      	b.n	2286 <STACK_SIZE+0x286>
    25c4:	9d03      	ldr	r5, [sp, #12]
    25c6:	429d      	cmp	r5, r3
    25c8:	d3c6      	bcc.n	2558 <STACK_SIZE+0x558>
    25ca:	0011      	movs	r1, r2
    25cc:	e762      	b.n	2494 <STACK_SIZE+0x494>
    25ce:	2500      	movs	r5, #0
    25d0:	e7d8      	b.n	2584 <STACK_SIZE+0x584>
    25d2:	2280      	movs	r2, #128	; 0x80
    25d4:	465b      	mov	r3, fp
    25d6:	0312      	lsls	r2, r2, #12
    25d8:	431a      	orrs	r2, r3
    25da:	9b01      	ldr	r3, [sp, #4]
    25dc:	0312      	lsls	r2, r2, #12
    25de:	0b12      	lsrs	r2, r2, #12
    25e0:	469c      	mov	ip, r3
    25e2:	4688      	mov	r8, r1
    25e4:	4c03      	ldr	r4, [pc, #12]	; (25f4 <STACK_SIZE+0x5f4>)
    25e6:	e5a1      	b.n	212c <STACK_SIZE+0x12c>
    25e8:	000003ff 	.word	0x000003ff
    25ec:	feffffff 	.word	0xfeffffff
    25f0:	000007fe 	.word	0x000007fe
    25f4:	000007ff 	.word	0x000007ff

000025f8 <__aeabi_dmul>:
    25f8:	b5f0      	push	{r4, r5, r6, r7, lr}
    25fa:	4657      	mov	r7, sl
    25fc:	4645      	mov	r5, r8
    25fe:	46de      	mov	lr, fp
    2600:	464e      	mov	r6, r9
    2602:	b5e0      	push	{r5, r6, r7, lr}
    2604:	030c      	lsls	r4, r1, #12
    2606:	4698      	mov	r8, r3
    2608:	004e      	lsls	r6, r1, #1
    260a:	0b23      	lsrs	r3, r4, #12
    260c:	b087      	sub	sp, #28
    260e:	0007      	movs	r7, r0
    2610:	4692      	mov	sl, r2
    2612:	469b      	mov	fp, r3
    2614:	0d76      	lsrs	r6, r6, #21
    2616:	0fcd      	lsrs	r5, r1, #31
    2618:	2e00      	cmp	r6, #0
    261a:	d06b      	beq.n	26f4 <__aeabi_dmul+0xfc>
    261c:	4b6d      	ldr	r3, [pc, #436]	; (27d4 <__aeabi_dmul+0x1dc>)
    261e:	429e      	cmp	r6, r3
    2620:	d035      	beq.n	268e <__aeabi_dmul+0x96>
    2622:	2480      	movs	r4, #128	; 0x80
    2624:	465b      	mov	r3, fp
    2626:	0f42      	lsrs	r2, r0, #29
    2628:	0424      	lsls	r4, r4, #16
    262a:	00db      	lsls	r3, r3, #3
    262c:	4314      	orrs	r4, r2
    262e:	431c      	orrs	r4, r3
    2630:	00c3      	lsls	r3, r0, #3
    2632:	4699      	mov	r9, r3
    2634:	4b68      	ldr	r3, [pc, #416]	; (27d8 <__aeabi_dmul+0x1e0>)
    2636:	46a3      	mov	fp, r4
    2638:	469c      	mov	ip, r3
    263a:	2300      	movs	r3, #0
    263c:	2700      	movs	r7, #0
    263e:	4466      	add	r6, ip
    2640:	9302      	str	r3, [sp, #8]
    2642:	4643      	mov	r3, r8
    2644:	031c      	lsls	r4, r3, #12
    2646:	005a      	lsls	r2, r3, #1
    2648:	0fdb      	lsrs	r3, r3, #31
    264a:	4650      	mov	r0, sl
    264c:	0b24      	lsrs	r4, r4, #12
    264e:	0d52      	lsrs	r2, r2, #21
    2650:	4698      	mov	r8, r3
    2652:	d100      	bne.n	2656 <__aeabi_dmul+0x5e>
    2654:	e076      	b.n	2744 <__aeabi_dmul+0x14c>
    2656:	4b5f      	ldr	r3, [pc, #380]	; (27d4 <__aeabi_dmul+0x1dc>)
    2658:	429a      	cmp	r2, r3
    265a:	d06d      	beq.n	2738 <__aeabi_dmul+0x140>
    265c:	2380      	movs	r3, #128	; 0x80
    265e:	0f41      	lsrs	r1, r0, #29
    2660:	041b      	lsls	r3, r3, #16
    2662:	430b      	orrs	r3, r1
    2664:	495c      	ldr	r1, [pc, #368]	; (27d8 <__aeabi_dmul+0x1e0>)
    2666:	00e4      	lsls	r4, r4, #3
    2668:	468c      	mov	ip, r1
    266a:	431c      	orrs	r4, r3
    266c:	00c3      	lsls	r3, r0, #3
    266e:	2000      	movs	r0, #0
    2670:	4462      	add	r2, ip
    2672:	4641      	mov	r1, r8
    2674:	18b6      	adds	r6, r6, r2
    2676:	4069      	eors	r1, r5
    2678:	1c72      	adds	r2, r6, #1
    267a:	9101      	str	r1, [sp, #4]
    267c:	4694      	mov	ip, r2
    267e:	4307      	orrs	r7, r0
    2680:	2f0f      	cmp	r7, #15
    2682:	d900      	bls.n	2686 <__aeabi_dmul+0x8e>
    2684:	e0b0      	b.n	27e8 <__aeabi_dmul+0x1f0>
    2686:	4a55      	ldr	r2, [pc, #340]	; (27dc <__aeabi_dmul+0x1e4>)
    2688:	00bf      	lsls	r7, r7, #2
    268a:	59d2      	ldr	r2, [r2, r7]
    268c:	4697      	mov	pc, r2
    268e:	465b      	mov	r3, fp
    2690:	4303      	orrs	r3, r0
    2692:	4699      	mov	r9, r3
    2694:	d000      	beq.n	2698 <__aeabi_dmul+0xa0>
    2696:	e087      	b.n	27a8 <__aeabi_dmul+0x1b0>
    2698:	2300      	movs	r3, #0
    269a:	469b      	mov	fp, r3
    269c:	3302      	adds	r3, #2
    269e:	2708      	movs	r7, #8
    26a0:	9302      	str	r3, [sp, #8]
    26a2:	e7ce      	b.n	2642 <__aeabi_dmul+0x4a>
    26a4:	4642      	mov	r2, r8
    26a6:	9201      	str	r2, [sp, #4]
    26a8:	2802      	cmp	r0, #2
    26aa:	d067      	beq.n	277c <__aeabi_dmul+0x184>
    26ac:	2803      	cmp	r0, #3
    26ae:	d100      	bne.n	26b2 <__aeabi_dmul+0xba>
    26b0:	e20e      	b.n	2ad0 <__aeabi_dmul+0x4d8>
    26b2:	2801      	cmp	r0, #1
    26b4:	d000      	beq.n	26b8 <__aeabi_dmul+0xc0>
    26b6:	e162      	b.n	297e <__aeabi_dmul+0x386>
    26b8:	2300      	movs	r3, #0
    26ba:	2400      	movs	r4, #0
    26bc:	2200      	movs	r2, #0
    26be:	4699      	mov	r9, r3
    26c0:	9901      	ldr	r1, [sp, #4]
    26c2:	4001      	ands	r1, r0
    26c4:	b2cd      	uxtb	r5, r1
    26c6:	2100      	movs	r1, #0
    26c8:	0312      	lsls	r2, r2, #12
    26ca:	0d0b      	lsrs	r3, r1, #20
    26cc:	0b12      	lsrs	r2, r2, #12
    26ce:	051b      	lsls	r3, r3, #20
    26d0:	4313      	orrs	r3, r2
    26d2:	4a43      	ldr	r2, [pc, #268]	; (27e0 <__aeabi_dmul+0x1e8>)
    26d4:	0524      	lsls	r4, r4, #20
    26d6:	4013      	ands	r3, r2
    26d8:	431c      	orrs	r4, r3
    26da:	0064      	lsls	r4, r4, #1
    26dc:	07ed      	lsls	r5, r5, #31
    26de:	0864      	lsrs	r4, r4, #1
    26e0:	432c      	orrs	r4, r5
    26e2:	4648      	mov	r0, r9
    26e4:	0021      	movs	r1, r4
    26e6:	b007      	add	sp, #28
    26e8:	bc3c      	pop	{r2, r3, r4, r5}
    26ea:	4690      	mov	r8, r2
    26ec:	4699      	mov	r9, r3
    26ee:	46a2      	mov	sl, r4
    26f0:	46ab      	mov	fp, r5
    26f2:	bdf0      	pop	{r4, r5, r6, r7, pc}
    26f4:	4303      	orrs	r3, r0
    26f6:	4699      	mov	r9, r3
    26f8:	d04f      	beq.n	279a <__aeabi_dmul+0x1a2>
    26fa:	465b      	mov	r3, fp
    26fc:	2b00      	cmp	r3, #0
    26fe:	d100      	bne.n	2702 <__aeabi_dmul+0x10a>
    2700:	e189      	b.n	2a16 <__aeabi_dmul+0x41e>
    2702:	4658      	mov	r0, fp
    2704:	f000 fe46 	bl	3394 <__clzsi2>
    2708:	0003      	movs	r3, r0
    270a:	3b0b      	subs	r3, #11
    270c:	2b1c      	cmp	r3, #28
    270e:	dd00      	ble.n	2712 <__aeabi_dmul+0x11a>
    2710:	e17a      	b.n	2a08 <__aeabi_dmul+0x410>
    2712:	221d      	movs	r2, #29
    2714:	1ad3      	subs	r3, r2, r3
    2716:	003a      	movs	r2, r7
    2718:	0001      	movs	r1, r0
    271a:	465c      	mov	r4, fp
    271c:	40da      	lsrs	r2, r3
    271e:	3908      	subs	r1, #8
    2720:	408c      	lsls	r4, r1
    2722:	0013      	movs	r3, r2
    2724:	408f      	lsls	r7, r1
    2726:	4323      	orrs	r3, r4
    2728:	469b      	mov	fp, r3
    272a:	46b9      	mov	r9, r7
    272c:	2300      	movs	r3, #0
    272e:	4e2d      	ldr	r6, [pc, #180]	; (27e4 <__aeabi_dmul+0x1ec>)
    2730:	2700      	movs	r7, #0
    2732:	1a36      	subs	r6, r6, r0
    2734:	9302      	str	r3, [sp, #8]
    2736:	e784      	b.n	2642 <__aeabi_dmul+0x4a>
    2738:	4653      	mov	r3, sl
    273a:	4323      	orrs	r3, r4
    273c:	d12a      	bne.n	2794 <__aeabi_dmul+0x19c>
    273e:	2400      	movs	r4, #0
    2740:	2002      	movs	r0, #2
    2742:	e796      	b.n	2672 <__aeabi_dmul+0x7a>
    2744:	4653      	mov	r3, sl
    2746:	4323      	orrs	r3, r4
    2748:	d020      	beq.n	278c <__aeabi_dmul+0x194>
    274a:	2c00      	cmp	r4, #0
    274c:	d100      	bne.n	2750 <__aeabi_dmul+0x158>
    274e:	e157      	b.n	2a00 <__aeabi_dmul+0x408>
    2750:	0020      	movs	r0, r4
    2752:	f000 fe1f 	bl	3394 <__clzsi2>
    2756:	0003      	movs	r3, r0
    2758:	3b0b      	subs	r3, #11
    275a:	2b1c      	cmp	r3, #28
    275c:	dd00      	ble.n	2760 <__aeabi_dmul+0x168>
    275e:	e149      	b.n	29f4 <__aeabi_dmul+0x3fc>
    2760:	211d      	movs	r1, #29
    2762:	1acb      	subs	r3, r1, r3
    2764:	4651      	mov	r1, sl
    2766:	0002      	movs	r2, r0
    2768:	40d9      	lsrs	r1, r3
    276a:	4653      	mov	r3, sl
    276c:	3a08      	subs	r2, #8
    276e:	4094      	lsls	r4, r2
    2770:	4093      	lsls	r3, r2
    2772:	430c      	orrs	r4, r1
    2774:	4a1b      	ldr	r2, [pc, #108]	; (27e4 <__aeabi_dmul+0x1ec>)
    2776:	1a12      	subs	r2, r2, r0
    2778:	2000      	movs	r0, #0
    277a:	e77a      	b.n	2672 <__aeabi_dmul+0x7a>
    277c:	2501      	movs	r5, #1
    277e:	9b01      	ldr	r3, [sp, #4]
    2780:	4c14      	ldr	r4, [pc, #80]	; (27d4 <__aeabi_dmul+0x1dc>)
    2782:	401d      	ands	r5, r3
    2784:	2300      	movs	r3, #0
    2786:	2200      	movs	r2, #0
    2788:	4699      	mov	r9, r3
    278a:	e79c      	b.n	26c6 <__aeabi_dmul+0xce>
    278c:	2400      	movs	r4, #0
    278e:	2200      	movs	r2, #0
    2790:	2001      	movs	r0, #1
    2792:	e76e      	b.n	2672 <__aeabi_dmul+0x7a>
    2794:	4653      	mov	r3, sl
    2796:	2003      	movs	r0, #3
    2798:	e76b      	b.n	2672 <__aeabi_dmul+0x7a>
    279a:	2300      	movs	r3, #0
    279c:	469b      	mov	fp, r3
    279e:	3301      	adds	r3, #1
    27a0:	2704      	movs	r7, #4
    27a2:	2600      	movs	r6, #0
    27a4:	9302      	str	r3, [sp, #8]
    27a6:	e74c      	b.n	2642 <__aeabi_dmul+0x4a>
    27a8:	2303      	movs	r3, #3
    27aa:	4681      	mov	r9, r0
    27ac:	270c      	movs	r7, #12
    27ae:	9302      	str	r3, [sp, #8]
    27b0:	e747      	b.n	2642 <__aeabi_dmul+0x4a>
    27b2:	2280      	movs	r2, #128	; 0x80
    27b4:	2300      	movs	r3, #0
    27b6:	2500      	movs	r5, #0
    27b8:	0312      	lsls	r2, r2, #12
    27ba:	4699      	mov	r9, r3
    27bc:	4c05      	ldr	r4, [pc, #20]	; (27d4 <__aeabi_dmul+0x1dc>)
    27be:	e782      	b.n	26c6 <__aeabi_dmul+0xce>
    27c0:	465c      	mov	r4, fp
    27c2:	464b      	mov	r3, r9
    27c4:	9802      	ldr	r0, [sp, #8]
    27c6:	e76f      	b.n	26a8 <__aeabi_dmul+0xb0>
    27c8:	465c      	mov	r4, fp
    27ca:	464b      	mov	r3, r9
    27cc:	9501      	str	r5, [sp, #4]
    27ce:	9802      	ldr	r0, [sp, #8]
    27d0:	e76a      	b.n	26a8 <__aeabi_dmul+0xb0>
    27d2:	46c0      	nop			; (mov r8, r8)
    27d4:	000007ff 	.word	0x000007ff
    27d8:	fffffc01 	.word	0xfffffc01
    27dc:	00003664 	.word	0x00003664
    27e0:	800fffff 	.word	0x800fffff
    27e4:	fffffc0d 	.word	0xfffffc0d
    27e8:	464a      	mov	r2, r9
    27ea:	4649      	mov	r1, r9
    27ec:	0c17      	lsrs	r7, r2, #16
    27ee:	0c1a      	lsrs	r2, r3, #16
    27f0:	041b      	lsls	r3, r3, #16
    27f2:	0c1b      	lsrs	r3, r3, #16
    27f4:	0408      	lsls	r0, r1, #16
    27f6:	0019      	movs	r1, r3
    27f8:	0c00      	lsrs	r0, r0, #16
    27fa:	4341      	muls	r1, r0
    27fc:	0015      	movs	r5, r2
    27fe:	4688      	mov	r8, r1
    2800:	0019      	movs	r1, r3
    2802:	437d      	muls	r5, r7
    2804:	4379      	muls	r1, r7
    2806:	9503      	str	r5, [sp, #12]
    2808:	4689      	mov	r9, r1
    280a:	0029      	movs	r1, r5
    280c:	0015      	movs	r5, r2
    280e:	4345      	muls	r5, r0
    2810:	444d      	add	r5, r9
    2812:	9502      	str	r5, [sp, #8]
    2814:	4645      	mov	r5, r8
    2816:	0c2d      	lsrs	r5, r5, #16
    2818:	46aa      	mov	sl, r5
    281a:	9d02      	ldr	r5, [sp, #8]
    281c:	4455      	add	r5, sl
    281e:	45a9      	cmp	r9, r5
    2820:	d906      	bls.n	2830 <__aeabi_dmul+0x238>
    2822:	468a      	mov	sl, r1
    2824:	2180      	movs	r1, #128	; 0x80
    2826:	0249      	lsls	r1, r1, #9
    2828:	4689      	mov	r9, r1
    282a:	44ca      	add	sl, r9
    282c:	4651      	mov	r1, sl
    282e:	9103      	str	r1, [sp, #12]
    2830:	0c29      	lsrs	r1, r5, #16
    2832:	9104      	str	r1, [sp, #16]
    2834:	4641      	mov	r1, r8
    2836:	0409      	lsls	r1, r1, #16
    2838:	042d      	lsls	r5, r5, #16
    283a:	0c09      	lsrs	r1, r1, #16
    283c:	4688      	mov	r8, r1
    283e:	0029      	movs	r1, r5
    2840:	0c25      	lsrs	r5, r4, #16
    2842:	0424      	lsls	r4, r4, #16
    2844:	4441      	add	r1, r8
    2846:	0c24      	lsrs	r4, r4, #16
    2848:	9105      	str	r1, [sp, #20]
    284a:	0021      	movs	r1, r4
    284c:	4341      	muls	r1, r0
    284e:	4688      	mov	r8, r1
    2850:	0021      	movs	r1, r4
    2852:	4379      	muls	r1, r7
    2854:	468a      	mov	sl, r1
    2856:	4368      	muls	r0, r5
    2858:	4641      	mov	r1, r8
    285a:	4450      	add	r0, sl
    285c:	4681      	mov	r9, r0
    285e:	0c08      	lsrs	r0, r1, #16
    2860:	4448      	add	r0, r9
    2862:	436f      	muls	r7, r5
    2864:	4582      	cmp	sl, r0
    2866:	d903      	bls.n	2870 <__aeabi_dmul+0x278>
    2868:	2180      	movs	r1, #128	; 0x80
    286a:	0249      	lsls	r1, r1, #9
    286c:	4689      	mov	r9, r1
    286e:	444f      	add	r7, r9
    2870:	0c01      	lsrs	r1, r0, #16
    2872:	4689      	mov	r9, r1
    2874:	0039      	movs	r1, r7
    2876:	4449      	add	r1, r9
    2878:	9102      	str	r1, [sp, #8]
    287a:	4641      	mov	r1, r8
    287c:	040f      	lsls	r7, r1, #16
    287e:	9904      	ldr	r1, [sp, #16]
    2880:	0c3f      	lsrs	r7, r7, #16
    2882:	4688      	mov	r8, r1
    2884:	0400      	lsls	r0, r0, #16
    2886:	19c0      	adds	r0, r0, r7
    2888:	4480      	add	r8, r0
    288a:	4641      	mov	r1, r8
    288c:	9104      	str	r1, [sp, #16]
    288e:	4659      	mov	r1, fp
    2890:	0c0f      	lsrs	r7, r1, #16
    2892:	0409      	lsls	r1, r1, #16
    2894:	0c09      	lsrs	r1, r1, #16
    2896:	4688      	mov	r8, r1
    2898:	4359      	muls	r1, r3
    289a:	468a      	mov	sl, r1
    289c:	0039      	movs	r1, r7
    289e:	4351      	muls	r1, r2
    28a0:	4689      	mov	r9, r1
    28a2:	4641      	mov	r1, r8
    28a4:	434a      	muls	r2, r1
    28a6:	4651      	mov	r1, sl
    28a8:	0c09      	lsrs	r1, r1, #16
    28aa:	468b      	mov	fp, r1
    28ac:	437b      	muls	r3, r7
    28ae:	18d2      	adds	r2, r2, r3
    28b0:	445a      	add	r2, fp
    28b2:	4293      	cmp	r3, r2
    28b4:	d903      	bls.n	28be <__aeabi_dmul+0x2c6>
    28b6:	2380      	movs	r3, #128	; 0x80
    28b8:	025b      	lsls	r3, r3, #9
    28ba:	469b      	mov	fp, r3
    28bc:	44d9      	add	r9, fp
    28be:	4651      	mov	r1, sl
    28c0:	0409      	lsls	r1, r1, #16
    28c2:	0c09      	lsrs	r1, r1, #16
    28c4:	468a      	mov	sl, r1
    28c6:	4641      	mov	r1, r8
    28c8:	4361      	muls	r1, r4
    28ca:	437c      	muls	r4, r7
    28cc:	0c13      	lsrs	r3, r2, #16
    28ce:	0412      	lsls	r2, r2, #16
    28d0:	444b      	add	r3, r9
    28d2:	4452      	add	r2, sl
    28d4:	46a1      	mov	r9, r4
    28d6:	468a      	mov	sl, r1
    28d8:	003c      	movs	r4, r7
    28da:	4641      	mov	r1, r8
    28dc:	436c      	muls	r4, r5
    28de:	434d      	muls	r5, r1
    28e0:	4651      	mov	r1, sl
    28e2:	444d      	add	r5, r9
    28e4:	0c0f      	lsrs	r7, r1, #16
    28e6:	197d      	adds	r5, r7, r5
    28e8:	45a9      	cmp	r9, r5
    28ea:	d903      	bls.n	28f4 <__aeabi_dmul+0x2fc>
    28ec:	2180      	movs	r1, #128	; 0x80
    28ee:	0249      	lsls	r1, r1, #9
    28f0:	4688      	mov	r8, r1
    28f2:	4444      	add	r4, r8
    28f4:	9f04      	ldr	r7, [sp, #16]
    28f6:	9903      	ldr	r1, [sp, #12]
    28f8:	46b8      	mov	r8, r7
    28fa:	4441      	add	r1, r8
    28fc:	468b      	mov	fp, r1
    28fe:	4583      	cmp	fp, r0
    2900:	4180      	sbcs	r0, r0
    2902:	4241      	negs	r1, r0
    2904:	4688      	mov	r8, r1
    2906:	4651      	mov	r1, sl
    2908:	0408      	lsls	r0, r1, #16
    290a:	042f      	lsls	r7, r5, #16
    290c:	0c00      	lsrs	r0, r0, #16
    290e:	183f      	adds	r7, r7, r0
    2910:	4658      	mov	r0, fp
    2912:	9902      	ldr	r1, [sp, #8]
    2914:	1810      	adds	r0, r2, r0
    2916:	4689      	mov	r9, r1
    2918:	4290      	cmp	r0, r2
    291a:	4192      	sbcs	r2, r2
    291c:	444f      	add	r7, r9
    291e:	46ba      	mov	sl, r7
    2920:	4252      	negs	r2, r2
    2922:	4699      	mov	r9, r3
    2924:	4693      	mov	fp, r2
    2926:	44c2      	add	sl, r8
    2928:	44d1      	add	r9, sl
    292a:	44cb      	add	fp, r9
    292c:	428f      	cmp	r7, r1
    292e:	41bf      	sbcs	r7, r7
    2930:	45c2      	cmp	sl, r8
    2932:	4189      	sbcs	r1, r1
    2934:	4599      	cmp	r9, r3
    2936:	419b      	sbcs	r3, r3
    2938:	4593      	cmp	fp, r2
    293a:	4192      	sbcs	r2, r2
    293c:	427f      	negs	r7, r7
    293e:	4249      	negs	r1, r1
    2940:	0c2d      	lsrs	r5, r5, #16
    2942:	4252      	negs	r2, r2
    2944:	430f      	orrs	r7, r1
    2946:	425b      	negs	r3, r3
    2948:	4313      	orrs	r3, r2
    294a:	197f      	adds	r7, r7, r5
    294c:	18ff      	adds	r7, r7, r3
    294e:	465b      	mov	r3, fp
    2950:	193c      	adds	r4, r7, r4
    2952:	0ddb      	lsrs	r3, r3, #23
    2954:	9a05      	ldr	r2, [sp, #20]
    2956:	0264      	lsls	r4, r4, #9
    2958:	431c      	orrs	r4, r3
    295a:	0243      	lsls	r3, r0, #9
    295c:	4313      	orrs	r3, r2
    295e:	1e5d      	subs	r5, r3, #1
    2960:	41ab      	sbcs	r3, r5
    2962:	465a      	mov	r2, fp
    2964:	0dc0      	lsrs	r0, r0, #23
    2966:	4303      	orrs	r3, r0
    2968:	0252      	lsls	r2, r2, #9
    296a:	4313      	orrs	r3, r2
    296c:	01e2      	lsls	r2, r4, #7
    296e:	d556      	bpl.n	2a1e <__aeabi_dmul+0x426>
    2970:	2001      	movs	r0, #1
    2972:	085a      	lsrs	r2, r3, #1
    2974:	4003      	ands	r3, r0
    2976:	4313      	orrs	r3, r2
    2978:	07e2      	lsls	r2, r4, #31
    297a:	4313      	orrs	r3, r2
    297c:	0864      	lsrs	r4, r4, #1
    297e:	485a      	ldr	r0, [pc, #360]	; (2ae8 <__aeabi_dmul+0x4f0>)
    2980:	4460      	add	r0, ip
    2982:	2800      	cmp	r0, #0
    2984:	dd4d      	ble.n	2a22 <__aeabi_dmul+0x42a>
    2986:	075a      	lsls	r2, r3, #29
    2988:	d009      	beq.n	299e <__aeabi_dmul+0x3a6>
    298a:	220f      	movs	r2, #15
    298c:	401a      	ands	r2, r3
    298e:	2a04      	cmp	r2, #4
    2990:	d005      	beq.n	299e <__aeabi_dmul+0x3a6>
    2992:	1d1a      	adds	r2, r3, #4
    2994:	429a      	cmp	r2, r3
    2996:	419b      	sbcs	r3, r3
    2998:	425b      	negs	r3, r3
    299a:	18e4      	adds	r4, r4, r3
    299c:	0013      	movs	r3, r2
    299e:	01e2      	lsls	r2, r4, #7
    29a0:	d504      	bpl.n	29ac <__aeabi_dmul+0x3b4>
    29a2:	2080      	movs	r0, #128	; 0x80
    29a4:	4a51      	ldr	r2, [pc, #324]	; (2aec <__aeabi_dmul+0x4f4>)
    29a6:	00c0      	lsls	r0, r0, #3
    29a8:	4014      	ands	r4, r2
    29aa:	4460      	add	r0, ip
    29ac:	4a50      	ldr	r2, [pc, #320]	; (2af0 <__aeabi_dmul+0x4f8>)
    29ae:	4290      	cmp	r0, r2
    29b0:	dd00      	ble.n	29b4 <__aeabi_dmul+0x3bc>
    29b2:	e6e3      	b.n	277c <__aeabi_dmul+0x184>
    29b4:	2501      	movs	r5, #1
    29b6:	08db      	lsrs	r3, r3, #3
    29b8:	0762      	lsls	r2, r4, #29
    29ba:	431a      	orrs	r2, r3
    29bc:	0264      	lsls	r4, r4, #9
    29be:	9b01      	ldr	r3, [sp, #4]
    29c0:	4691      	mov	r9, r2
    29c2:	0b22      	lsrs	r2, r4, #12
    29c4:	0544      	lsls	r4, r0, #21
    29c6:	0d64      	lsrs	r4, r4, #21
    29c8:	401d      	ands	r5, r3
    29ca:	e67c      	b.n	26c6 <__aeabi_dmul+0xce>
    29cc:	2280      	movs	r2, #128	; 0x80
    29ce:	4659      	mov	r1, fp
    29d0:	0312      	lsls	r2, r2, #12
    29d2:	4211      	tst	r1, r2
    29d4:	d008      	beq.n	29e8 <__aeabi_dmul+0x3f0>
    29d6:	4214      	tst	r4, r2
    29d8:	d106      	bne.n	29e8 <__aeabi_dmul+0x3f0>
    29da:	4322      	orrs	r2, r4
    29dc:	0312      	lsls	r2, r2, #12
    29de:	0b12      	lsrs	r2, r2, #12
    29e0:	4645      	mov	r5, r8
    29e2:	4699      	mov	r9, r3
    29e4:	4c43      	ldr	r4, [pc, #268]	; (2af4 <__aeabi_dmul+0x4fc>)
    29e6:	e66e      	b.n	26c6 <__aeabi_dmul+0xce>
    29e8:	465b      	mov	r3, fp
    29ea:	431a      	orrs	r2, r3
    29ec:	0312      	lsls	r2, r2, #12
    29ee:	0b12      	lsrs	r2, r2, #12
    29f0:	4c40      	ldr	r4, [pc, #256]	; (2af4 <__aeabi_dmul+0x4fc>)
    29f2:	e668      	b.n	26c6 <__aeabi_dmul+0xce>
    29f4:	0003      	movs	r3, r0
    29f6:	4654      	mov	r4, sl
    29f8:	3b28      	subs	r3, #40	; 0x28
    29fa:	409c      	lsls	r4, r3
    29fc:	2300      	movs	r3, #0
    29fe:	e6b9      	b.n	2774 <__aeabi_dmul+0x17c>
    2a00:	f000 fcc8 	bl	3394 <__clzsi2>
    2a04:	3020      	adds	r0, #32
    2a06:	e6a6      	b.n	2756 <__aeabi_dmul+0x15e>
    2a08:	0003      	movs	r3, r0
    2a0a:	3b28      	subs	r3, #40	; 0x28
    2a0c:	409f      	lsls	r7, r3
    2a0e:	2300      	movs	r3, #0
    2a10:	46bb      	mov	fp, r7
    2a12:	4699      	mov	r9, r3
    2a14:	e68a      	b.n	272c <__aeabi_dmul+0x134>
    2a16:	f000 fcbd 	bl	3394 <__clzsi2>
    2a1a:	3020      	adds	r0, #32
    2a1c:	e674      	b.n	2708 <__aeabi_dmul+0x110>
    2a1e:	46b4      	mov	ip, r6
    2a20:	e7ad      	b.n	297e <__aeabi_dmul+0x386>
    2a22:	2501      	movs	r5, #1
    2a24:	1a2a      	subs	r2, r5, r0
    2a26:	2a38      	cmp	r2, #56	; 0x38
    2a28:	dd06      	ble.n	2a38 <__aeabi_dmul+0x440>
    2a2a:	9b01      	ldr	r3, [sp, #4]
    2a2c:	2400      	movs	r4, #0
    2a2e:	401d      	ands	r5, r3
    2a30:	2300      	movs	r3, #0
    2a32:	2200      	movs	r2, #0
    2a34:	4699      	mov	r9, r3
    2a36:	e646      	b.n	26c6 <__aeabi_dmul+0xce>
    2a38:	2a1f      	cmp	r2, #31
    2a3a:	dc21      	bgt.n	2a80 <__aeabi_dmul+0x488>
    2a3c:	2520      	movs	r5, #32
    2a3e:	0020      	movs	r0, r4
    2a40:	1aad      	subs	r5, r5, r2
    2a42:	001e      	movs	r6, r3
    2a44:	40ab      	lsls	r3, r5
    2a46:	40a8      	lsls	r0, r5
    2a48:	40d6      	lsrs	r6, r2
    2a4a:	1e5d      	subs	r5, r3, #1
    2a4c:	41ab      	sbcs	r3, r5
    2a4e:	4330      	orrs	r0, r6
    2a50:	4318      	orrs	r0, r3
    2a52:	40d4      	lsrs	r4, r2
    2a54:	0743      	lsls	r3, r0, #29
    2a56:	d009      	beq.n	2a6c <__aeabi_dmul+0x474>
    2a58:	230f      	movs	r3, #15
    2a5a:	4003      	ands	r3, r0
    2a5c:	2b04      	cmp	r3, #4
    2a5e:	d005      	beq.n	2a6c <__aeabi_dmul+0x474>
    2a60:	0003      	movs	r3, r0
    2a62:	1d18      	adds	r0, r3, #4
    2a64:	4298      	cmp	r0, r3
    2a66:	419b      	sbcs	r3, r3
    2a68:	425b      	negs	r3, r3
    2a6a:	18e4      	adds	r4, r4, r3
    2a6c:	0223      	lsls	r3, r4, #8
    2a6e:	d521      	bpl.n	2ab4 <__aeabi_dmul+0x4bc>
    2a70:	2501      	movs	r5, #1
    2a72:	9b01      	ldr	r3, [sp, #4]
    2a74:	2401      	movs	r4, #1
    2a76:	401d      	ands	r5, r3
    2a78:	2300      	movs	r3, #0
    2a7a:	2200      	movs	r2, #0
    2a7c:	4699      	mov	r9, r3
    2a7e:	e622      	b.n	26c6 <__aeabi_dmul+0xce>
    2a80:	251f      	movs	r5, #31
    2a82:	0021      	movs	r1, r4
    2a84:	426d      	negs	r5, r5
    2a86:	1a28      	subs	r0, r5, r0
    2a88:	40c1      	lsrs	r1, r0
    2a8a:	0008      	movs	r0, r1
    2a8c:	2a20      	cmp	r2, #32
    2a8e:	d01d      	beq.n	2acc <__aeabi_dmul+0x4d4>
    2a90:	355f      	adds	r5, #95	; 0x5f
    2a92:	1aaa      	subs	r2, r5, r2
    2a94:	4094      	lsls	r4, r2
    2a96:	4323      	orrs	r3, r4
    2a98:	1e5c      	subs	r4, r3, #1
    2a9a:	41a3      	sbcs	r3, r4
    2a9c:	2507      	movs	r5, #7
    2a9e:	4303      	orrs	r3, r0
    2aa0:	401d      	ands	r5, r3
    2aa2:	2200      	movs	r2, #0
    2aa4:	2d00      	cmp	r5, #0
    2aa6:	d009      	beq.n	2abc <__aeabi_dmul+0x4c4>
    2aa8:	220f      	movs	r2, #15
    2aaa:	2400      	movs	r4, #0
    2aac:	401a      	ands	r2, r3
    2aae:	0018      	movs	r0, r3
    2ab0:	2a04      	cmp	r2, #4
    2ab2:	d1d6      	bne.n	2a62 <__aeabi_dmul+0x46a>
    2ab4:	0003      	movs	r3, r0
    2ab6:	0765      	lsls	r5, r4, #29
    2ab8:	0264      	lsls	r4, r4, #9
    2aba:	0b22      	lsrs	r2, r4, #12
    2abc:	08db      	lsrs	r3, r3, #3
    2abe:	432b      	orrs	r3, r5
    2ac0:	2501      	movs	r5, #1
    2ac2:	4699      	mov	r9, r3
    2ac4:	9b01      	ldr	r3, [sp, #4]
    2ac6:	2400      	movs	r4, #0
    2ac8:	401d      	ands	r5, r3
    2aca:	e5fc      	b.n	26c6 <__aeabi_dmul+0xce>
    2acc:	2400      	movs	r4, #0
    2ace:	e7e2      	b.n	2a96 <__aeabi_dmul+0x49e>
    2ad0:	2280      	movs	r2, #128	; 0x80
    2ad2:	2501      	movs	r5, #1
    2ad4:	0312      	lsls	r2, r2, #12
    2ad6:	4322      	orrs	r2, r4
    2ad8:	9901      	ldr	r1, [sp, #4]
    2ada:	0312      	lsls	r2, r2, #12
    2adc:	0b12      	lsrs	r2, r2, #12
    2ade:	400d      	ands	r5, r1
    2ae0:	4699      	mov	r9, r3
    2ae2:	4c04      	ldr	r4, [pc, #16]	; (2af4 <__aeabi_dmul+0x4fc>)
    2ae4:	e5ef      	b.n	26c6 <__aeabi_dmul+0xce>
    2ae6:	46c0      	nop			; (mov r8, r8)
    2ae8:	000003ff 	.word	0x000003ff
    2aec:	feffffff 	.word	0xfeffffff
    2af0:	000007fe 	.word	0x000007fe
    2af4:	000007ff 	.word	0x000007ff

00002af8 <__aeabi_dsub>:
    2af8:	b5f0      	push	{r4, r5, r6, r7, lr}
    2afa:	4646      	mov	r6, r8
    2afc:	46d6      	mov	lr, sl
    2afe:	464f      	mov	r7, r9
    2b00:	030c      	lsls	r4, r1, #12
    2b02:	b5c0      	push	{r6, r7, lr}
    2b04:	0fcd      	lsrs	r5, r1, #31
    2b06:	004e      	lsls	r6, r1, #1
    2b08:	0a61      	lsrs	r1, r4, #9
    2b0a:	0f44      	lsrs	r4, r0, #29
    2b0c:	430c      	orrs	r4, r1
    2b0e:	00c1      	lsls	r1, r0, #3
    2b10:	0058      	lsls	r0, r3, #1
    2b12:	0d40      	lsrs	r0, r0, #21
    2b14:	4684      	mov	ip, r0
    2b16:	468a      	mov	sl, r1
    2b18:	000f      	movs	r7, r1
    2b1a:	0319      	lsls	r1, r3, #12
    2b1c:	0f50      	lsrs	r0, r2, #29
    2b1e:	0a49      	lsrs	r1, r1, #9
    2b20:	4301      	orrs	r1, r0
    2b22:	48c6      	ldr	r0, [pc, #792]	; (2e3c <__aeabi_dsub+0x344>)
    2b24:	0d76      	lsrs	r6, r6, #21
    2b26:	46a8      	mov	r8, r5
    2b28:	0fdb      	lsrs	r3, r3, #31
    2b2a:	00d2      	lsls	r2, r2, #3
    2b2c:	4584      	cmp	ip, r0
    2b2e:	d100      	bne.n	2b32 <__aeabi_dsub+0x3a>
    2b30:	e0d8      	b.n	2ce4 <__aeabi_dsub+0x1ec>
    2b32:	2001      	movs	r0, #1
    2b34:	4043      	eors	r3, r0
    2b36:	42ab      	cmp	r3, r5
    2b38:	d100      	bne.n	2b3c <__aeabi_dsub+0x44>
    2b3a:	e0a6      	b.n	2c8a <__aeabi_dsub+0x192>
    2b3c:	4660      	mov	r0, ip
    2b3e:	1a35      	subs	r5, r6, r0
    2b40:	2d00      	cmp	r5, #0
    2b42:	dc00      	bgt.n	2b46 <__aeabi_dsub+0x4e>
    2b44:	e105      	b.n	2d52 <__aeabi_dsub+0x25a>
    2b46:	2800      	cmp	r0, #0
    2b48:	d110      	bne.n	2b6c <__aeabi_dsub+0x74>
    2b4a:	000b      	movs	r3, r1
    2b4c:	4313      	orrs	r3, r2
    2b4e:	d100      	bne.n	2b52 <__aeabi_dsub+0x5a>
    2b50:	e0d7      	b.n	2d02 <__aeabi_dsub+0x20a>
    2b52:	1e6b      	subs	r3, r5, #1
    2b54:	2b00      	cmp	r3, #0
    2b56:	d000      	beq.n	2b5a <__aeabi_dsub+0x62>
    2b58:	e14b      	b.n	2df2 <__aeabi_dsub+0x2fa>
    2b5a:	4653      	mov	r3, sl
    2b5c:	1a9f      	subs	r7, r3, r2
    2b5e:	45ba      	cmp	sl, r7
    2b60:	4180      	sbcs	r0, r0
    2b62:	1a64      	subs	r4, r4, r1
    2b64:	4240      	negs	r0, r0
    2b66:	1a24      	subs	r4, r4, r0
    2b68:	2601      	movs	r6, #1
    2b6a:	e01e      	b.n	2baa <__aeabi_dsub+0xb2>
    2b6c:	4bb3      	ldr	r3, [pc, #716]	; (2e3c <__aeabi_dsub+0x344>)
    2b6e:	429e      	cmp	r6, r3
    2b70:	d048      	beq.n	2c04 <__aeabi_dsub+0x10c>
    2b72:	2380      	movs	r3, #128	; 0x80
    2b74:	041b      	lsls	r3, r3, #16
    2b76:	4319      	orrs	r1, r3
    2b78:	2d38      	cmp	r5, #56	; 0x38
    2b7a:	dd00      	ble.n	2b7e <__aeabi_dsub+0x86>
    2b7c:	e119      	b.n	2db2 <__aeabi_dsub+0x2ba>
    2b7e:	2d1f      	cmp	r5, #31
    2b80:	dd00      	ble.n	2b84 <__aeabi_dsub+0x8c>
    2b82:	e14c      	b.n	2e1e <__aeabi_dsub+0x326>
    2b84:	2320      	movs	r3, #32
    2b86:	000f      	movs	r7, r1
    2b88:	1b5b      	subs	r3, r3, r5
    2b8a:	0010      	movs	r0, r2
    2b8c:	409a      	lsls	r2, r3
    2b8e:	409f      	lsls	r7, r3
    2b90:	40e8      	lsrs	r0, r5
    2b92:	1e53      	subs	r3, r2, #1
    2b94:	419a      	sbcs	r2, r3
    2b96:	40e9      	lsrs	r1, r5
    2b98:	4307      	orrs	r7, r0
    2b9a:	4317      	orrs	r7, r2
    2b9c:	4653      	mov	r3, sl
    2b9e:	1bdf      	subs	r7, r3, r7
    2ba0:	1a61      	subs	r1, r4, r1
    2ba2:	45ba      	cmp	sl, r7
    2ba4:	41a4      	sbcs	r4, r4
    2ba6:	4264      	negs	r4, r4
    2ba8:	1b0c      	subs	r4, r1, r4
    2baa:	0223      	lsls	r3, r4, #8
    2bac:	d400      	bmi.n	2bb0 <__aeabi_dsub+0xb8>
    2bae:	e0c5      	b.n	2d3c <__aeabi_dsub+0x244>
    2bb0:	0264      	lsls	r4, r4, #9
    2bb2:	0a65      	lsrs	r5, r4, #9
    2bb4:	2d00      	cmp	r5, #0
    2bb6:	d100      	bne.n	2bba <__aeabi_dsub+0xc2>
    2bb8:	e0f6      	b.n	2da8 <__aeabi_dsub+0x2b0>
    2bba:	0028      	movs	r0, r5
    2bbc:	f000 fbea 	bl	3394 <__clzsi2>
    2bc0:	0003      	movs	r3, r0
    2bc2:	3b08      	subs	r3, #8
    2bc4:	2b1f      	cmp	r3, #31
    2bc6:	dd00      	ble.n	2bca <__aeabi_dsub+0xd2>
    2bc8:	e0e9      	b.n	2d9e <__aeabi_dsub+0x2a6>
    2bca:	2220      	movs	r2, #32
    2bcc:	003c      	movs	r4, r7
    2bce:	1ad2      	subs	r2, r2, r3
    2bd0:	409d      	lsls	r5, r3
    2bd2:	40d4      	lsrs	r4, r2
    2bd4:	409f      	lsls	r7, r3
    2bd6:	4325      	orrs	r5, r4
    2bd8:	429e      	cmp	r6, r3
    2bda:	dd00      	ble.n	2bde <__aeabi_dsub+0xe6>
    2bdc:	e0db      	b.n	2d96 <__aeabi_dsub+0x29e>
    2bde:	1b9e      	subs	r6, r3, r6
    2be0:	1c73      	adds	r3, r6, #1
    2be2:	2b1f      	cmp	r3, #31
    2be4:	dd00      	ble.n	2be8 <__aeabi_dsub+0xf0>
    2be6:	e10a      	b.n	2dfe <__aeabi_dsub+0x306>
    2be8:	2220      	movs	r2, #32
    2bea:	0038      	movs	r0, r7
    2bec:	1ad2      	subs	r2, r2, r3
    2bee:	0029      	movs	r1, r5
    2bf0:	4097      	lsls	r7, r2
    2bf2:	002c      	movs	r4, r5
    2bf4:	4091      	lsls	r1, r2
    2bf6:	40d8      	lsrs	r0, r3
    2bf8:	1e7a      	subs	r2, r7, #1
    2bfa:	4197      	sbcs	r7, r2
    2bfc:	40dc      	lsrs	r4, r3
    2bfe:	2600      	movs	r6, #0
    2c00:	4301      	orrs	r1, r0
    2c02:	430f      	orrs	r7, r1
    2c04:	077b      	lsls	r3, r7, #29
    2c06:	d009      	beq.n	2c1c <__aeabi_dsub+0x124>
    2c08:	230f      	movs	r3, #15
    2c0a:	403b      	ands	r3, r7
    2c0c:	2b04      	cmp	r3, #4
    2c0e:	d005      	beq.n	2c1c <__aeabi_dsub+0x124>
    2c10:	1d3b      	adds	r3, r7, #4
    2c12:	42bb      	cmp	r3, r7
    2c14:	41bf      	sbcs	r7, r7
    2c16:	427f      	negs	r7, r7
    2c18:	19e4      	adds	r4, r4, r7
    2c1a:	001f      	movs	r7, r3
    2c1c:	0223      	lsls	r3, r4, #8
    2c1e:	d525      	bpl.n	2c6c <__aeabi_dsub+0x174>
    2c20:	4b86      	ldr	r3, [pc, #536]	; (2e3c <__aeabi_dsub+0x344>)
    2c22:	3601      	adds	r6, #1
    2c24:	429e      	cmp	r6, r3
    2c26:	d100      	bne.n	2c2a <__aeabi_dsub+0x132>
    2c28:	e0af      	b.n	2d8a <__aeabi_dsub+0x292>
    2c2a:	4b85      	ldr	r3, [pc, #532]	; (2e40 <__aeabi_dsub+0x348>)
    2c2c:	2501      	movs	r5, #1
    2c2e:	401c      	ands	r4, r3
    2c30:	4643      	mov	r3, r8
    2c32:	0762      	lsls	r2, r4, #29
    2c34:	08ff      	lsrs	r7, r7, #3
    2c36:	0264      	lsls	r4, r4, #9
    2c38:	0576      	lsls	r6, r6, #21
    2c3a:	4317      	orrs	r7, r2
    2c3c:	0b24      	lsrs	r4, r4, #12
    2c3e:	0d76      	lsrs	r6, r6, #21
    2c40:	401d      	ands	r5, r3
    2c42:	2100      	movs	r1, #0
    2c44:	0324      	lsls	r4, r4, #12
    2c46:	0b23      	lsrs	r3, r4, #12
    2c48:	0d0c      	lsrs	r4, r1, #20
    2c4a:	4a7e      	ldr	r2, [pc, #504]	; (2e44 <__aeabi_dsub+0x34c>)
    2c4c:	0524      	lsls	r4, r4, #20
    2c4e:	431c      	orrs	r4, r3
    2c50:	4014      	ands	r4, r2
    2c52:	0533      	lsls	r3, r6, #20
    2c54:	4323      	orrs	r3, r4
    2c56:	005b      	lsls	r3, r3, #1
    2c58:	07ed      	lsls	r5, r5, #31
    2c5a:	085b      	lsrs	r3, r3, #1
    2c5c:	432b      	orrs	r3, r5
    2c5e:	0038      	movs	r0, r7
    2c60:	0019      	movs	r1, r3
    2c62:	bc1c      	pop	{r2, r3, r4}
    2c64:	4690      	mov	r8, r2
    2c66:	4699      	mov	r9, r3
    2c68:	46a2      	mov	sl, r4
    2c6a:	bdf0      	pop	{r4, r5, r6, r7, pc}
    2c6c:	2501      	movs	r5, #1
    2c6e:	4643      	mov	r3, r8
    2c70:	0762      	lsls	r2, r4, #29
    2c72:	08ff      	lsrs	r7, r7, #3
    2c74:	4317      	orrs	r7, r2
    2c76:	08e4      	lsrs	r4, r4, #3
    2c78:	401d      	ands	r5, r3
    2c7a:	4b70      	ldr	r3, [pc, #448]	; (2e3c <__aeabi_dsub+0x344>)
    2c7c:	429e      	cmp	r6, r3
    2c7e:	d036      	beq.n	2cee <__aeabi_dsub+0x1f6>
    2c80:	0324      	lsls	r4, r4, #12
    2c82:	0576      	lsls	r6, r6, #21
    2c84:	0b24      	lsrs	r4, r4, #12
    2c86:	0d76      	lsrs	r6, r6, #21
    2c88:	e7db      	b.n	2c42 <__aeabi_dsub+0x14a>
    2c8a:	4663      	mov	r3, ip
    2c8c:	1af3      	subs	r3, r6, r3
    2c8e:	2b00      	cmp	r3, #0
    2c90:	dc00      	bgt.n	2c94 <__aeabi_dsub+0x19c>
    2c92:	e094      	b.n	2dbe <__aeabi_dsub+0x2c6>
    2c94:	4660      	mov	r0, ip
    2c96:	2800      	cmp	r0, #0
    2c98:	d035      	beq.n	2d06 <__aeabi_dsub+0x20e>
    2c9a:	4868      	ldr	r0, [pc, #416]	; (2e3c <__aeabi_dsub+0x344>)
    2c9c:	4286      	cmp	r6, r0
    2c9e:	d0b1      	beq.n	2c04 <__aeabi_dsub+0x10c>
    2ca0:	2780      	movs	r7, #128	; 0x80
    2ca2:	043f      	lsls	r7, r7, #16
    2ca4:	4339      	orrs	r1, r7
    2ca6:	2b38      	cmp	r3, #56	; 0x38
    2ca8:	dc00      	bgt.n	2cac <__aeabi_dsub+0x1b4>
    2caa:	e0fd      	b.n	2ea8 <__aeabi_dsub+0x3b0>
    2cac:	430a      	orrs	r2, r1
    2cae:	0017      	movs	r7, r2
    2cb0:	2100      	movs	r1, #0
    2cb2:	1e7a      	subs	r2, r7, #1
    2cb4:	4197      	sbcs	r7, r2
    2cb6:	4457      	add	r7, sl
    2cb8:	4557      	cmp	r7, sl
    2cba:	4180      	sbcs	r0, r0
    2cbc:	1909      	adds	r1, r1, r4
    2cbe:	4244      	negs	r4, r0
    2cc0:	190c      	adds	r4, r1, r4
    2cc2:	0223      	lsls	r3, r4, #8
    2cc4:	d53a      	bpl.n	2d3c <__aeabi_dsub+0x244>
    2cc6:	4b5d      	ldr	r3, [pc, #372]	; (2e3c <__aeabi_dsub+0x344>)
    2cc8:	3601      	adds	r6, #1
    2cca:	429e      	cmp	r6, r3
    2ccc:	d100      	bne.n	2cd0 <__aeabi_dsub+0x1d8>
    2cce:	e14b      	b.n	2f68 <__aeabi_dsub+0x470>
    2cd0:	2201      	movs	r2, #1
    2cd2:	4b5b      	ldr	r3, [pc, #364]	; (2e40 <__aeabi_dsub+0x348>)
    2cd4:	401c      	ands	r4, r3
    2cd6:	087b      	lsrs	r3, r7, #1
    2cd8:	4017      	ands	r7, r2
    2cda:	431f      	orrs	r7, r3
    2cdc:	07e2      	lsls	r2, r4, #31
    2cde:	4317      	orrs	r7, r2
    2ce0:	0864      	lsrs	r4, r4, #1
    2ce2:	e78f      	b.n	2c04 <__aeabi_dsub+0x10c>
    2ce4:	0008      	movs	r0, r1
    2ce6:	4310      	orrs	r0, r2
    2ce8:	d000      	beq.n	2cec <__aeabi_dsub+0x1f4>
    2cea:	e724      	b.n	2b36 <__aeabi_dsub+0x3e>
    2cec:	e721      	b.n	2b32 <__aeabi_dsub+0x3a>
    2cee:	0023      	movs	r3, r4
    2cf0:	433b      	orrs	r3, r7
    2cf2:	d100      	bne.n	2cf6 <__aeabi_dsub+0x1fe>
    2cf4:	e1b9      	b.n	306a <__aeabi_dsub+0x572>
    2cf6:	2280      	movs	r2, #128	; 0x80
    2cf8:	0312      	lsls	r2, r2, #12
    2cfa:	4314      	orrs	r4, r2
    2cfc:	0324      	lsls	r4, r4, #12
    2cfe:	0b24      	lsrs	r4, r4, #12
    2d00:	e79f      	b.n	2c42 <__aeabi_dsub+0x14a>
    2d02:	002e      	movs	r6, r5
    2d04:	e77e      	b.n	2c04 <__aeabi_dsub+0x10c>
    2d06:	0008      	movs	r0, r1
    2d08:	4310      	orrs	r0, r2
    2d0a:	d100      	bne.n	2d0e <__aeabi_dsub+0x216>
    2d0c:	e0ca      	b.n	2ea4 <__aeabi_dsub+0x3ac>
    2d0e:	1e58      	subs	r0, r3, #1
    2d10:	4684      	mov	ip, r0
    2d12:	2800      	cmp	r0, #0
    2d14:	d000      	beq.n	2d18 <__aeabi_dsub+0x220>
    2d16:	e0e7      	b.n	2ee8 <__aeabi_dsub+0x3f0>
    2d18:	4452      	add	r2, sl
    2d1a:	4552      	cmp	r2, sl
    2d1c:	4180      	sbcs	r0, r0
    2d1e:	1864      	adds	r4, r4, r1
    2d20:	4240      	negs	r0, r0
    2d22:	1824      	adds	r4, r4, r0
    2d24:	0017      	movs	r7, r2
    2d26:	2601      	movs	r6, #1
    2d28:	0223      	lsls	r3, r4, #8
    2d2a:	d507      	bpl.n	2d3c <__aeabi_dsub+0x244>
    2d2c:	2602      	movs	r6, #2
    2d2e:	e7cf      	b.n	2cd0 <__aeabi_dsub+0x1d8>
    2d30:	4664      	mov	r4, ip
    2d32:	432c      	orrs	r4, r5
    2d34:	d100      	bne.n	2d38 <__aeabi_dsub+0x240>
    2d36:	e1b3      	b.n	30a0 <__aeabi_dsub+0x5a8>
    2d38:	002c      	movs	r4, r5
    2d3a:	4667      	mov	r7, ip
    2d3c:	077b      	lsls	r3, r7, #29
    2d3e:	d000      	beq.n	2d42 <__aeabi_dsub+0x24a>
    2d40:	e762      	b.n	2c08 <__aeabi_dsub+0x110>
    2d42:	0763      	lsls	r3, r4, #29
    2d44:	08ff      	lsrs	r7, r7, #3
    2d46:	431f      	orrs	r7, r3
    2d48:	2501      	movs	r5, #1
    2d4a:	4643      	mov	r3, r8
    2d4c:	08e4      	lsrs	r4, r4, #3
    2d4e:	401d      	ands	r5, r3
    2d50:	e793      	b.n	2c7a <__aeabi_dsub+0x182>
    2d52:	2d00      	cmp	r5, #0
    2d54:	d178      	bne.n	2e48 <__aeabi_dsub+0x350>
    2d56:	1c75      	adds	r5, r6, #1
    2d58:	056d      	lsls	r5, r5, #21
    2d5a:	0d6d      	lsrs	r5, r5, #21
    2d5c:	2d01      	cmp	r5, #1
    2d5e:	dc00      	bgt.n	2d62 <__aeabi_dsub+0x26a>
    2d60:	e0f2      	b.n	2f48 <__aeabi_dsub+0x450>
    2d62:	4650      	mov	r0, sl
    2d64:	1a80      	subs	r0, r0, r2
    2d66:	4582      	cmp	sl, r0
    2d68:	41bf      	sbcs	r7, r7
    2d6a:	1a65      	subs	r5, r4, r1
    2d6c:	427f      	negs	r7, r7
    2d6e:	1bed      	subs	r5, r5, r7
    2d70:	4684      	mov	ip, r0
    2d72:	0228      	lsls	r0, r5, #8
    2d74:	d400      	bmi.n	2d78 <__aeabi_dsub+0x280>
    2d76:	e08c      	b.n	2e92 <__aeabi_dsub+0x39a>
    2d78:	4650      	mov	r0, sl
    2d7a:	1a17      	subs	r7, r2, r0
    2d7c:	42ba      	cmp	r2, r7
    2d7e:	4192      	sbcs	r2, r2
    2d80:	1b0c      	subs	r4, r1, r4
    2d82:	4255      	negs	r5, r2
    2d84:	1b65      	subs	r5, r4, r5
    2d86:	4698      	mov	r8, r3
    2d88:	e714      	b.n	2bb4 <__aeabi_dsub+0xbc>
    2d8a:	2501      	movs	r5, #1
    2d8c:	4643      	mov	r3, r8
    2d8e:	2400      	movs	r4, #0
    2d90:	401d      	ands	r5, r3
    2d92:	2700      	movs	r7, #0
    2d94:	e755      	b.n	2c42 <__aeabi_dsub+0x14a>
    2d96:	4c2a      	ldr	r4, [pc, #168]	; (2e40 <__aeabi_dsub+0x348>)
    2d98:	1af6      	subs	r6, r6, r3
    2d9a:	402c      	ands	r4, r5
    2d9c:	e732      	b.n	2c04 <__aeabi_dsub+0x10c>
    2d9e:	003d      	movs	r5, r7
    2da0:	3828      	subs	r0, #40	; 0x28
    2da2:	4085      	lsls	r5, r0
    2da4:	2700      	movs	r7, #0
    2da6:	e717      	b.n	2bd8 <__aeabi_dsub+0xe0>
    2da8:	0038      	movs	r0, r7
    2daa:	f000 faf3 	bl	3394 <__clzsi2>
    2dae:	3020      	adds	r0, #32
    2db0:	e706      	b.n	2bc0 <__aeabi_dsub+0xc8>
    2db2:	430a      	orrs	r2, r1
    2db4:	0017      	movs	r7, r2
    2db6:	2100      	movs	r1, #0
    2db8:	1e7a      	subs	r2, r7, #1
    2dba:	4197      	sbcs	r7, r2
    2dbc:	e6ee      	b.n	2b9c <__aeabi_dsub+0xa4>
    2dbe:	2b00      	cmp	r3, #0
    2dc0:	d000      	beq.n	2dc4 <__aeabi_dsub+0x2cc>
    2dc2:	e0e5      	b.n	2f90 <__aeabi_dsub+0x498>
    2dc4:	1c73      	adds	r3, r6, #1
    2dc6:	469c      	mov	ip, r3
    2dc8:	055b      	lsls	r3, r3, #21
    2dca:	0d5b      	lsrs	r3, r3, #21
    2dcc:	2b01      	cmp	r3, #1
    2dce:	dc00      	bgt.n	2dd2 <__aeabi_dsub+0x2da>
    2dd0:	e09f      	b.n	2f12 <__aeabi_dsub+0x41a>
    2dd2:	4b1a      	ldr	r3, [pc, #104]	; (2e3c <__aeabi_dsub+0x344>)
    2dd4:	459c      	cmp	ip, r3
    2dd6:	d100      	bne.n	2dda <__aeabi_dsub+0x2e2>
    2dd8:	e0c5      	b.n	2f66 <__aeabi_dsub+0x46e>
    2dda:	4452      	add	r2, sl
    2ddc:	4552      	cmp	r2, sl
    2dde:	4180      	sbcs	r0, r0
    2de0:	1864      	adds	r4, r4, r1
    2de2:	4240      	negs	r0, r0
    2de4:	1824      	adds	r4, r4, r0
    2de6:	07e7      	lsls	r7, r4, #31
    2de8:	0852      	lsrs	r2, r2, #1
    2dea:	4317      	orrs	r7, r2
    2dec:	0864      	lsrs	r4, r4, #1
    2dee:	4666      	mov	r6, ip
    2df0:	e708      	b.n	2c04 <__aeabi_dsub+0x10c>
    2df2:	4812      	ldr	r0, [pc, #72]	; (2e3c <__aeabi_dsub+0x344>)
    2df4:	4285      	cmp	r5, r0
    2df6:	d100      	bne.n	2dfa <__aeabi_dsub+0x302>
    2df8:	e085      	b.n	2f06 <__aeabi_dsub+0x40e>
    2dfa:	001d      	movs	r5, r3
    2dfc:	e6bc      	b.n	2b78 <__aeabi_dsub+0x80>
    2dfe:	0029      	movs	r1, r5
    2e00:	3e1f      	subs	r6, #31
    2e02:	40f1      	lsrs	r1, r6
    2e04:	2b20      	cmp	r3, #32
    2e06:	d100      	bne.n	2e0a <__aeabi_dsub+0x312>
    2e08:	e07f      	b.n	2f0a <__aeabi_dsub+0x412>
    2e0a:	2240      	movs	r2, #64	; 0x40
    2e0c:	1ad3      	subs	r3, r2, r3
    2e0e:	409d      	lsls	r5, r3
    2e10:	432f      	orrs	r7, r5
    2e12:	1e7d      	subs	r5, r7, #1
    2e14:	41af      	sbcs	r7, r5
    2e16:	2400      	movs	r4, #0
    2e18:	430f      	orrs	r7, r1
    2e1a:	2600      	movs	r6, #0
    2e1c:	e78e      	b.n	2d3c <__aeabi_dsub+0x244>
    2e1e:	002b      	movs	r3, r5
    2e20:	000f      	movs	r7, r1
    2e22:	3b20      	subs	r3, #32
    2e24:	40df      	lsrs	r7, r3
    2e26:	2d20      	cmp	r5, #32
    2e28:	d071      	beq.n	2f0e <__aeabi_dsub+0x416>
    2e2a:	2340      	movs	r3, #64	; 0x40
    2e2c:	1b5d      	subs	r5, r3, r5
    2e2e:	40a9      	lsls	r1, r5
    2e30:	430a      	orrs	r2, r1
    2e32:	1e51      	subs	r1, r2, #1
    2e34:	418a      	sbcs	r2, r1
    2e36:	2100      	movs	r1, #0
    2e38:	4317      	orrs	r7, r2
    2e3a:	e6af      	b.n	2b9c <__aeabi_dsub+0xa4>
    2e3c:	000007ff 	.word	0x000007ff
    2e40:	ff7fffff 	.word	0xff7fffff
    2e44:	800fffff 	.word	0x800fffff
    2e48:	2e00      	cmp	r6, #0
    2e4a:	d03e      	beq.n	2eca <__aeabi_dsub+0x3d2>
    2e4c:	4eb3      	ldr	r6, [pc, #716]	; (311c <__aeabi_dsub+0x624>)
    2e4e:	45b4      	cmp	ip, r6
    2e50:	d045      	beq.n	2ede <__aeabi_dsub+0x3e6>
    2e52:	2680      	movs	r6, #128	; 0x80
    2e54:	0436      	lsls	r6, r6, #16
    2e56:	426d      	negs	r5, r5
    2e58:	4334      	orrs	r4, r6
    2e5a:	2d38      	cmp	r5, #56	; 0x38
    2e5c:	dd00      	ble.n	2e60 <__aeabi_dsub+0x368>
    2e5e:	e0a8      	b.n	2fb2 <__aeabi_dsub+0x4ba>
    2e60:	2d1f      	cmp	r5, #31
    2e62:	dd00      	ble.n	2e66 <__aeabi_dsub+0x36e>
    2e64:	e11f      	b.n	30a6 <__aeabi_dsub+0x5ae>
    2e66:	2620      	movs	r6, #32
    2e68:	0027      	movs	r7, r4
    2e6a:	4650      	mov	r0, sl
    2e6c:	1b76      	subs	r6, r6, r5
    2e6e:	40b7      	lsls	r7, r6
    2e70:	40e8      	lsrs	r0, r5
    2e72:	4307      	orrs	r7, r0
    2e74:	4650      	mov	r0, sl
    2e76:	40b0      	lsls	r0, r6
    2e78:	1e46      	subs	r6, r0, #1
    2e7a:	41b0      	sbcs	r0, r6
    2e7c:	40ec      	lsrs	r4, r5
    2e7e:	4338      	orrs	r0, r7
    2e80:	1a17      	subs	r7, r2, r0
    2e82:	42ba      	cmp	r2, r7
    2e84:	4192      	sbcs	r2, r2
    2e86:	1b0c      	subs	r4, r1, r4
    2e88:	4252      	negs	r2, r2
    2e8a:	1aa4      	subs	r4, r4, r2
    2e8c:	4666      	mov	r6, ip
    2e8e:	4698      	mov	r8, r3
    2e90:	e68b      	b.n	2baa <__aeabi_dsub+0xb2>
    2e92:	4664      	mov	r4, ip
    2e94:	4667      	mov	r7, ip
    2e96:	432c      	orrs	r4, r5
    2e98:	d000      	beq.n	2e9c <__aeabi_dsub+0x3a4>
    2e9a:	e68b      	b.n	2bb4 <__aeabi_dsub+0xbc>
    2e9c:	2500      	movs	r5, #0
    2e9e:	2600      	movs	r6, #0
    2ea0:	2700      	movs	r7, #0
    2ea2:	e6ea      	b.n	2c7a <__aeabi_dsub+0x182>
    2ea4:	001e      	movs	r6, r3
    2ea6:	e6ad      	b.n	2c04 <__aeabi_dsub+0x10c>
    2ea8:	2b1f      	cmp	r3, #31
    2eaa:	dc60      	bgt.n	2f6e <__aeabi_dsub+0x476>
    2eac:	2720      	movs	r7, #32
    2eae:	1af8      	subs	r0, r7, r3
    2eb0:	000f      	movs	r7, r1
    2eb2:	4684      	mov	ip, r0
    2eb4:	4087      	lsls	r7, r0
    2eb6:	0010      	movs	r0, r2
    2eb8:	40d8      	lsrs	r0, r3
    2eba:	4307      	orrs	r7, r0
    2ebc:	4660      	mov	r0, ip
    2ebe:	4082      	lsls	r2, r0
    2ec0:	1e50      	subs	r0, r2, #1
    2ec2:	4182      	sbcs	r2, r0
    2ec4:	40d9      	lsrs	r1, r3
    2ec6:	4317      	orrs	r7, r2
    2ec8:	e6f5      	b.n	2cb6 <__aeabi_dsub+0x1be>
    2eca:	0026      	movs	r6, r4
    2ecc:	4650      	mov	r0, sl
    2ece:	4306      	orrs	r6, r0
    2ed0:	d005      	beq.n	2ede <__aeabi_dsub+0x3e6>
    2ed2:	43ed      	mvns	r5, r5
    2ed4:	2d00      	cmp	r5, #0
    2ed6:	d0d3      	beq.n	2e80 <__aeabi_dsub+0x388>
    2ed8:	4e90      	ldr	r6, [pc, #576]	; (311c <__aeabi_dsub+0x624>)
    2eda:	45b4      	cmp	ip, r6
    2edc:	d1bd      	bne.n	2e5a <__aeabi_dsub+0x362>
    2ede:	000c      	movs	r4, r1
    2ee0:	0017      	movs	r7, r2
    2ee2:	4666      	mov	r6, ip
    2ee4:	4698      	mov	r8, r3
    2ee6:	e68d      	b.n	2c04 <__aeabi_dsub+0x10c>
    2ee8:	488c      	ldr	r0, [pc, #560]	; (311c <__aeabi_dsub+0x624>)
    2eea:	4283      	cmp	r3, r0
    2eec:	d00b      	beq.n	2f06 <__aeabi_dsub+0x40e>
    2eee:	4663      	mov	r3, ip
    2ef0:	e6d9      	b.n	2ca6 <__aeabi_dsub+0x1ae>
    2ef2:	2d00      	cmp	r5, #0
    2ef4:	d000      	beq.n	2ef8 <__aeabi_dsub+0x400>
    2ef6:	e096      	b.n	3026 <__aeabi_dsub+0x52e>
    2ef8:	0008      	movs	r0, r1
    2efa:	4310      	orrs	r0, r2
    2efc:	d100      	bne.n	2f00 <__aeabi_dsub+0x408>
    2efe:	e0e2      	b.n	30c6 <__aeabi_dsub+0x5ce>
    2f00:	000c      	movs	r4, r1
    2f02:	0017      	movs	r7, r2
    2f04:	4698      	mov	r8, r3
    2f06:	4e85      	ldr	r6, [pc, #532]	; (311c <__aeabi_dsub+0x624>)
    2f08:	e67c      	b.n	2c04 <__aeabi_dsub+0x10c>
    2f0a:	2500      	movs	r5, #0
    2f0c:	e780      	b.n	2e10 <__aeabi_dsub+0x318>
    2f0e:	2100      	movs	r1, #0
    2f10:	e78e      	b.n	2e30 <__aeabi_dsub+0x338>
    2f12:	0023      	movs	r3, r4
    2f14:	4650      	mov	r0, sl
    2f16:	4303      	orrs	r3, r0
    2f18:	2e00      	cmp	r6, #0
    2f1a:	d000      	beq.n	2f1e <__aeabi_dsub+0x426>
    2f1c:	e0a8      	b.n	3070 <__aeabi_dsub+0x578>
    2f1e:	2b00      	cmp	r3, #0
    2f20:	d100      	bne.n	2f24 <__aeabi_dsub+0x42c>
    2f22:	e0de      	b.n	30e2 <__aeabi_dsub+0x5ea>
    2f24:	000b      	movs	r3, r1
    2f26:	4313      	orrs	r3, r2
    2f28:	d100      	bne.n	2f2c <__aeabi_dsub+0x434>
    2f2a:	e66b      	b.n	2c04 <__aeabi_dsub+0x10c>
    2f2c:	4452      	add	r2, sl
    2f2e:	4552      	cmp	r2, sl
    2f30:	4180      	sbcs	r0, r0
    2f32:	1864      	adds	r4, r4, r1
    2f34:	4240      	negs	r0, r0
    2f36:	1824      	adds	r4, r4, r0
    2f38:	0017      	movs	r7, r2
    2f3a:	0223      	lsls	r3, r4, #8
    2f3c:	d400      	bmi.n	2f40 <__aeabi_dsub+0x448>
    2f3e:	e6fd      	b.n	2d3c <__aeabi_dsub+0x244>
    2f40:	4b77      	ldr	r3, [pc, #476]	; (3120 <__aeabi_dsub+0x628>)
    2f42:	4666      	mov	r6, ip
    2f44:	401c      	ands	r4, r3
    2f46:	e65d      	b.n	2c04 <__aeabi_dsub+0x10c>
    2f48:	0025      	movs	r5, r4
    2f4a:	4650      	mov	r0, sl
    2f4c:	4305      	orrs	r5, r0
    2f4e:	2e00      	cmp	r6, #0
    2f50:	d1cf      	bne.n	2ef2 <__aeabi_dsub+0x3fa>
    2f52:	2d00      	cmp	r5, #0
    2f54:	d14f      	bne.n	2ff6 <__aeabi_dsub+0x4fe>
    2f56:	000c      	movs	r4, r1
    2f58:	4314      	orrs	r4, r2
    2f5a:	d100      	bne.n	2f5e <__aeabi_dsub+0x466>
    2f5c:	e0a0      	b.n	30a0 <__aeabi_dsub+0x5a8>
    2f5e:	000c      	movs	r4, r1
    2f60:	0017      	movs	r7, r2
    2f62:	4698      	mov	r8, r3
    2f64:	e64e      	b.n	2c04 <__aeabi_dsub+0x10c>
    2f66:	4666      	mov	r6, ip
    2f68:	2400      	movs	r4, #0
    2f6a:	2700      	movs	r7, #0
    2f6c:	e685      	b.n	2c7a <__aeabi_dsub+0x182>
    2f6e:	001f      	movs	r7, r3
    2f70:	0008      	movs	r0, r1
    2f72:	3f20      	subs	r7, #32
    2f74:	40f8      	lsrs	r0, r7
    2f76:	0007      	movs	r7, r0
    2f78:	2b20      	cmp	r3, #32
    2f7a:	d100      	bne.n	2f7e <__aeabi_dsub+0x486>
    2f7c:	e08e      	b.n	309c <__aeabi_dsub+0x5a4>
    2f7e:	2040      	movs	r0, #64	; 0x40
    2f80:	1ac3      	subs	r3, r0, r3
    2f82:	4099      	lsls	r1, r3
    2f84:	430a      	orrs	r2, r1
    2f86:	1e51      	subs	r1, r2, #1
    2f88:	418a      	sbcs	r2, r1
    2f8a:	2100      	movs	r1, #0
    2f8c:	4317      	orrs	r7, r2
    2f8e:	e692      	b.n	2cb6 <__aeabi_dsub+0x1be>
    2f90:	2e00      	cmp	r6, #0
    2f92:	d114      	bne.n	2fbe <__aeabi_dsub+0x4c6>
    2f94:	0026      	movs	r6, r4
    2f96:	4650      	mov	r0, sl
    2f98:	4306      	orrs	r6, r0
    2f9a:	d062      	beq.n	3062 <__aeabi_dsub+0x56a>
    2f9c:	43db      	mvns	r3, r3
    2f9e:	2b00      	cmp	r3, #0
    2fa0:	d15c      	bne.n	305c <__aeabi_dsub+0x564>
    2fa2:	1887      	adds	r7, r0, r2
    2fa4:	4297      	cmp	r7, r2
    2fa6:	4192      	sbcs	r2, r2
    2fa8:	1864      	adds	r4, r4, r1
    2faa:	4252      	negs	r2, r2
    2fac:	18a4      	adds	r4, r4, r2
    2fae:	4666      	mov	r6, ip
    2fb0:	e687      	b.n	2cc2 <__aeabi_dsub+0x1ca>
    2fb2:	4650      	mov	r0, sl
    2fb4:	4320      	orrs	r0, r4
    2fb6:	1e44      	subs	r4, r0, #1
    2fb8:	41a0      	sbcs	r0, r4
    2fba:	2400      	movs	r4, #0
    2fbc:	e760      	b.n	2e80 <__aeabi_dsub+0x388>
    2fbe:	4e57      	ldr	r6, [pc, #348]	; (311c <__aeabi_dsub+0x624>)
    2fc0:	45b4      	cmp	ip, r6
    2fc2:	d04e      	beq.n	3062 <__aeabi_dsub+0x56a>
    2fc4:	2680      	movs	r6, #128	; 0x80
    2fc6:	0436      	lsls	r6, r6, #16
    2fc8:	425b      	negs	r3, r3
    2fca:	4334      	orrs	r4, r6
    2fcc:	2b38      	cmp	r3, #56	; 0x38
    2fce:	dd00      	ble.n	2fd2 <__aeabi_dsub+0x4da>
    2fd0:	e07f      	b.n	30d2 <__aeabi_dsub+0x5da>
    2fd2:	2b1f      	cmp	r3, #31
    2fd4:	dd00      	ble.n	2fd8 <__aeabi_dsub+0x4e0>
    2fd6:	e08b      	b.n	30f0 <__aeabi_dsub+0x5f8>
    2fd8:	2620      	movs	r6, #32
    2fda:	0027      	movs	r7, r4
    2fdc:	4650      	mov	r0, sl
    2fde:	1af6      	subs	r6, r6, r3
    2fe0:	40b7      	lsls	r7, r6
    2fe2:	40d8      	lsrs	r0, r3
    2fe4:	4307      	orrs	r7, r0
    2fe6:	4650      	mov	r0, sl
    2fe8:	40b0      	lsls	r0, r6
    2fea:	1e46      	subs	r6, r0, #1
    2fec:	41b0      	sbcs	r0, r6
    2fee:	4307      	orrs	r7, r0
    2ff0:	40dc      	lsrs	r4, r3
    2ff2:	18bf      	adds	r7, r7, r2
    2ff4:	e7d6      	b.n	2fa4 <__aeabi_dsub+0x4ac>
    2ff6:	000d      	movs	r5, r1
    2ff8:	4315      	orrs	r5, r2
    2ffa:	d100      	bne.n	2ffe <__aeabi_dsub+0x506>
    2ffc:	e602      	b.n	2c04 <__aeabi_dsub+0x10c>
    2ffe:	4650      	mov	r0, sl
    3000:	1a80      	subs	r0, r0, r2
    3002:	4582      	cmp	sl, r0
    3004:	41bf      	sbcs	r7, r7
    3006:	1a65      	subs	r5, r4, r1
    3008:	427f      	negs	r7, r7
    300a:	1bed      	subs	r5, r5, r7
    300c:	4684      	mov	ip, r0
    300e:	0228      	lsls	r0, r5, #8
    3010:	d400      	bmi.n	3014 <__aeabi_dsub+0x51c>
    3012:	e68d      	b.n	2d30 <__aeabi_dsub+0x238>
    3014:	4650      	mov	r0, sl
    3016:	1a17      	subs	r7, r2, r0
    3018:	42ba      	cmp	r2, r7
    301a:	4192      	sbcs	r2, r2
    301c:	1b0c      	subs	r4, r1, r4
    301e:	4252      	negs	r2, r2
    3020:	1aa4      	subs	r4, r4, r2
    3022:	4698      	mov	r8, r3
    3024:	e5ee      	b.n	2c04 <__aeabi_dsub+0x10c>
    3026:	000d      	movs	r5, r1
    3028:	4315      	orrs	r5, r2
    302a:	d100      	bne.n	302e <__aeabi_dsub+0x536>
    302c:	e76b      	b.n	2f06 <__aeabi_dsub+0x40e>
    302e:	4650      	mov	r0, sl
    3030:	0767      	lsls	r7, r4, #29
    3032:	08c0      	lsrs	r0, r0, #3
    3034:	4307      	orrs	r7, r0
    3036:	2080      	movs	r0, #128	; 0x80
    3038:	08e4      	lsrs	r4, r4, #3
    303a:	0300      	lsls	r0, r0, #12
    303c:	4204      	tst	r4, r0
    303e:	d007      	beq.n	3050 <__aeabi_dsub+0x558>
    3040:	08cd      	lsrs	r5, r1, #3
    3042:	4205      	tst	r5, r0
    3044:	d104      	bne.n	3050 <__aeabi_dsub+0x558>
    3046:	002c      	movs	r4, r5
    3048:	4698      	mov	r8, r3
    304a:	08d7      	lsrs	r7, r2, #3
    304c:	0749      	lsls	r1, r1, #29
    304e:	430f      	orrs	r7, r1
    3050:	0f7b      	lsrs	r3, r7, #29
    3052:	00e4      	lsls	r4, r4, #3
    3054:	431c      	orrs	r4, r3
    3056:	00ff      	lsls	r7, r7, #3
    3058:	4e30      	ldr	r6, [pc, #192]	; (311c <__aeabi_dsub+0x624>)
    305a:	e5d3      	b.n	2c04 <__aeabi_dsub+0x10c>
    305c:	4e2f      	ldr	r6, [pc, #188]	; (311c <__aeabi_dsub+0x624>)
    305e:	45b4      	cmp	ip, r6
    3060:	d1b4      	bne.n	2fcc <__aeabi_dsub+0x4d4>
    3062:	000c      	movs	r4, r1
    3064:	0017      	movs	r7, r2
    3066:	4666      	mov	r6, ip
    3068:	e5cc      	b.n	2c04 <__aeabi_dsub+0x10c>
    306a:	2700      	movs	r7, #0
    306c:	2400      	movs	r4, #0
    306e:	e5e8      	b.n	2c42 <__aeabi_dsub+0x14a>
    3070:	2b00      	cmp	r3, #0
    3072:	d039      	beq.n	30e8 <__aeabi_dsub+0x5f0>
    3074:	000b      	movs	r3, r1
    3076:	4313      	orrs	r3, r2
    3078:	d100      	bne.n	307c <__aeabi_dsub+0x584>
    307a:	e744      	b.n	2f06 <__aeabi_dsub+0x40e>
    307c:	08c0      	lsrs	r0, r0, #3
    307e:	0767      	lsls	r7, r4, #29
    3080:	4307      	orrs	r7, r0
    3082:	2080      	movs	r0, #128	; 0x80
    3084:	08e4      	lsrs	r4, r4, #3
    3086:	0300      	lsls	r0, r0, #12
    3088:	4204      	tst	r4, r0
    308a:	d0e1      	beq.n	3050 <__aeabi_dsub+0x558>
    308c:	08cb      	lsrs	r3, r1, #3
    308e:	4203      	tst	r3, r0
    3090:	d1de      	bne.n	3050 <__aeabi_dsub+0x558>
    3092:	08d7      	lsrs	r7, r2, #3
    3094:	0749      	lsls	r1, r1, #29
    3096:	430f      	orrs	r7, r1
    3098:	001c      	movs	r4, r3
    309a:	e7d9      	b.n	3050 <__aeabi_dsub+0x558>
    309c:	2100      	movs	r1, #0
    309e:	e771      	b.n	2f84 <__aeabi_dsub+0x48c>
    30a0:	2500      	movs	r5, #0
    30a2:	2700      	movs	r7, #0
    30a4:	e5e9      	b.n	2c7a <__aeabi_dsub+0x182>
    30a6:	002e      	movs	r6, r5
    30a8:	0027      	movs	r7, r4
    30aa:	3e20      	subs	r6, #32
    30ac:	40f7      	lsrs	r7, r6
    30ae:	2d20      	cmp	r5, #32
    30b0:	d02f      	beq.n	3112 <__aeabi_dsub+0x61a>
    30b2:	2640      	movs	r6, #64	; 0x40
    30b4:	1b75      	subs	r5, r6, r5
    30b6:	40ac      	lsls	r4, r5
    30b8:	4650      	mov	r0, sl
    30ba:	4320      	orrs	r0, r4
    30bc:	1e44      	subs	r4, r0, #1
    30be:	41a0      	sbcs	r0, r4
    30c0:	2400      	movs	r4, #0
    30c2:	4338      	orrs	r0, r7
    30c4:	e6dc      	b.n	2e80 <__aeabi_dsub+0x388>
    30c6:	2480      	movs	r4, #128	; 0x80
    30c8:	2500      	movs	r5, #0
    30ca:	0324      	lsls	r4, r4, #12
    30cc:	4e13      	ldr	r6, [pc, #76]	; (311c <__aeabi_dsub+0x624>)
    30ce:	2700      	movs	r7, #0
    30d0:	e5d3      	b.n	2c7a <__aeabi_dsub+0x182>
    30d2:	4650      	mov	r0, sl
    30d4:	4320      	orrs	r0, r4
    30d6:	0007      	movs	r7, r0
    30d8:	1e78      	subs	r0, r7, #1
    30da:	4187      	sbcs	r7, r0
    30dc:	2400      	movs	r4, #0
    30de:	18bf      	adds	r7, r7, r2
    30e0:	e760      	b.n	2fa4 <__aeabi_dsub+0x4ac>
    30e2:	000c      	movs	r4, r1
    30e4:	0017      	movs	r7, r2
    30e6:	e58d      	b.n	2c04 <__aeabi_dsub+0x10c>
    30e8:	000c      	movs	r4, r1
    30ea:	0017      	movs	r7, r2
    30ec:	4e0b      	ldr	r6, [pc, #44]	; (311c <__aeabi_dsub+0x624>)
    30ee:	e589      	b.n	2c04 <__aeabi_dsub+0x10c>
    30f0:	001e      	movs	r6, r3
    30f2:	0027      	movs	r7, r4
    30f4:	3e20      	subs	r6, #32
    30f6:	40f7      	lsrs	r7, r6
    30f8:	2b20      	cmp	r3, #32
    30fa:	d00c      	beq.n	3116 <__aeabi_dsub+0x61e>
    30fc:	2640      	movs	r6, #64	; 0x40
    30fe:	1af3      	subs	r3, r6, r3
    3100:	409c      	lsls	r4, r3
    3102:	4650      	mov	r0, sl
    3104:	4320      	orrs	r0, r4
    3106:	1e44      	subs	r4, r0, #1
    3108:	41a0      	sbcs	r0, r4
    310a:	4307      	orrs	r7, r0
    310c:	2400      	movs	r4, #0
    310e:	18bf      	adds	r7, r7, r2
    3110:	e748      	b.n	2fa4 <__aeabi_dsub+0x4ac>
    3112:	2400      	movs	r4, #0
    3114:	e7d0      	b.n	30b8 <__aeabi_dsub+0x5c0>
    3116:	2400      	movs	r4, #0
    3118:	e7f3      	b.n	3102 <__aeabi_dsub+0x60a>
    311a:	46c0      	nop			; (mov r8, r8)
    311c:	000007ff 	.word	0x000007ff
    3120:	ff7fffff 	.word	0xff7fffff

00003124 <__aeabi_d2iz>:
    3124:	b530      	push	{r4, r5, lr}
    3126:	4d13      	ldr	r5, [pc, #76]	; (3174 <__aeabi_d2iz+0x50>)
    3128:	030a      	lsls	r2, r1, #12
    312a:	004b      	lsls	r3, r1, #1
    312c:	0b12      	lsrs	r2, r2, #12
    312e:	0d5b      	lsrs	r3, r3, #21
    3130:	0fc9      	lsrs	r1, r1, #31
    3132:	2400      	movs	r4, #0
    3134:	42ab      	cmp	r3, r5
    3136:	dd10      	ble.n	315a <__aeabi_d2iz+0x36>
    3138:	4c0f      	ldr	r4, [pc, #60]	; (3178 <__aeabi_d2iz+0x54>)
    313a:	42a3      	cmp	r3, r4
    313c:	dc0f      	bgt.n	315e <__aeabi_d2iz+0x3a>
    313e:	2480      	movs	r4, #128	; 0x80
    3140:	4d0e      	ldr	r5, [pc, #56]	; (317c <__aeabi_d2iz+0x58>)
    3142:	0364      	lsls	r4, r4, #13
    3144:	4322      	orrs	r2, r4
    3146:	1aed      	subs	r5, r5, r3
    3148:	2d1f      	cmp	r5, #31
    314a:	dd0b      	ble.n	3164 <__aeabi_d2iz+0x40>
    314c:	480c      	ldr	r0, [pc, #48]	; (3180 <__aeabi_d2iz+0x5c>)
    314e:	1ac3      	subs	r3, r0, r3
    3150:	40da      	lsrs	r2, r3
    3152:	4254      	negs	r4, r2
    3154:	2900      	cmp	r1, #0
    3156:	d100      	bne.n	315a <__aeabi_d2iz+0x36>
    3158:	0014      	movs	r4, r2
    315a:	0020      	movs	r0, r4
    315c:	bd30      	pop	{r4, r5, pc}
    315e:	4b09      	ldr	r3, [pc, #36]	; (3184 <__aeabi_d2iz+0x60>)
    3160:	18cc      	adds	r4, r1, r3
    3162:	e7fa      	b.n	315a <__aeabi_d2iz+0x36>
    3164:	4c08      	ldr	r4, [pc, #32]	; (3188 <__aeabi_d2iz+0x64>)
    3166:	40e8      	lsrs	r0, r5
    3168:	46a4      	mov	ip, r4
    316a:	4463      	add	r3, ip
    316c:	409a      	lsls	r2, r3
    316e:	4302      	orrs	r2, r0
    3170:	e7ef      	b.n	3152 <__aeabi_d2iz+0x2e>
    3172:	46c0      	nop			; (mov r8, r8)
    3174:	000003fe 	.word	0x000003fe
    3178:	0000041d 	.word	0x0000041d
    317c:	00000433 	.word	0x00000433
    3180:	00000413 	.word	0x00000413
    3184:	7fffffff 	.word	0x7fffffff
    3188:	fffffbed 	.word	0xfffffbed

0000318c <__aeabi_i2d>:
    318c:	b570      	push	{r4, r5, r6, lr}
    318e:	2800      	cmp	r0, #0
    3190:	d030      	beq.n	31f4 <__aeabi_i2d+0x68>
    3192:	17c3      	asrs	r3, r0, #31
    3194:	18c4      	adds	r4, r0, r3
    3196:	405c      	eors	r4, r3
    3198:	0fc5      	lsrs	r5, r0, #31
    319a:	0020      	movs	r0, r4
    319c:	f000 f8fa 	bl	3394 <__clzsi2>
    31a0:	4b17      	ldr	r3, [pc, #92]	; (3200 <__aeabi_i2d+0x74>)
    31a2:	4a18      	ldr	r2, [pc, #96]	; (3204 <__aeabi_i2d+0x78>)
    31a4:	1a1b      	subs	r3, r3, r0
    31a6:	1ad2      	subs	r2, r2, r3
    31a8:	2a1f      	cmp	r2, #31
    31aa:	dd18      	ble.n	31de <__aeabi_i2d+0x52>
    31ac:	4a16      	ldr	r2, [pc, #88]	; (3208 <__aeabi_i2d+0x7c>)
    31ae:	1ad2      	subs	r2, r2, r3
    31b0:	4094      	lsls	r4, r2
    31b2:	2200      	movs	r2, #0
    31b4:	0324      	lsls	r4, r4, #12
    31b6:	055b      	lsls	r3, r3, #21
    31b8:	0b24      	lsrs	r4, r4, #12
    31ba:	0d5b      	lsrs	r3, r3, #21
    31bc:	2100      	movs	r1, #0
    31be:	0010      	movs	r0, r2
    31c0:	0324      	lsls	r4, r4, #12
    31c2:	0d0a      	lsrs	r2, r1, #20
    31c4:	0b24      	lsrs	r4, r4, #12
    31c6:	0512      	lsls	r2, r2, #20
    31c8:	4322      	orrs	r2, r4
    31ca:	4c10      	ldr	r4, [pc, #64]	; (320c <__aeabi_i2d+0x80>)
    31cc:	051b      	lsls	r3, r3, #20
    31ce:	4022      	ands	r2, r4
    31d0:	4313      	orrs	r3, r2
    31d2:	005b      	lsls	r3, r3, #1
    31d4:	07ed      	lsls	r5, r5, #31
    31d6:	085b      	lsrs	r3, r3, #1
    31d8:	432b      	orrs	r3, r5
    31da:	0019      	movs	r1, r3
    31dc:	bd70      	pop	{r4, r5, r6, pc}
    31de:	0021      	movs	r1, r4
    31e0:	4091      	lsls	r1, r2
    31e2:	000a      	movs	r2, r1
    31e4:	210b      	movs	r1, #11
    31e6:	1a08      	subs	r0, r1, r0
    31e8:	40c4      	lsrs	r4, r0
    31ea:	055b      	lsls	r3, r3, #21
    31ec:	0324      	lsls	r4, r4, #12
    31ee:	0b24      	lsrs	r4, r4, #12
    31f0:	0d5b      	lsrs	r3, r3, #21
    31f2:	e7e3      	b.n	31bc <__aeabi_i2d+0x30>
    31f4:	2500      	movs	r5, #0
    31f6:	2300      	movs	r3, #0
    31f8:	2400      	movs	r4, #0
    31fa:	2200      	movs	r2, #0
    31fc:	e7de      	b.n	31bc <__aeabi_i2d+0x30>
    31fe:	46c0      	nop			; (mov r8, r8)
    3200:	0000041e 	.word	0x0000041e
    3204:	00000433 	.word	0x00000433
    3208:	00000413 	.word	0x00000413
    320c:	800fffff 	.word	0x800fffff

00003210 <__aeabi_ui2d>:
    3210:	b510      	push	{r4, lr}
    3212:	1e04      	subs	r4, r0, #0
    3214:	d028      	beq.n	3268 <__aeabi_ui2d+0x58>
    3216:	f000 f8bd 	bl	3394 <__clzsi2>
    321a:	4b15      	ldr	r3, [pc, #84]	; (3270 <__aeabi_ui2d+0x60>)
    321c:	4a15      	ldr	r2, [pc, #84]	; (3274 <__aeabi_ui2d+0x64>)
    321e:	1a1b      	subs	r3, r3, r0
    3220:	1ad2      	subs	r2, r2, r3
    3222:	2a1f      	cmp	r2, #31
    3224:	dd15      	ble.n	3252 <__aeabi_ui2d+0x42>
    3226:	4a14      	ldr	r2, [pc, #80]	; (3278 <__aeabi_ui2d+0x68>)
    3228:	1ad2      	subs	r2, r2, r3
    322a:	4094      	lsls	r4, r2
    322c:	2200      	movs	r2, #0
    322e:	0324      	lsls	r4, r4, #12
    3230:	055b      	lsls	r3, r3, #21
    3232:	0b24      	lsrs	r4, r4, #12
    3234:	0d5b      	lsrs	r3, r3, #21
    3236:	2100      	movs	r1, #0
    3238:	0010      	movs	r0, r2
    323a:	0324      	lsls	r4, r4, #12
    323c:	0d0a      	lsrs	r2, r1, #20
    323e:	0b24      	lsrs	r4, r4, #12
    3240:	0512      	lsls	r2, r2, #20
    3242:	4322      	orrs	r2, r4
    3244:	4c0d      	ldr	r4, [pc, #52]	; (327c <__aeabi_ui2d+0x6c>)
    3246:	051b      	lsls	r3, r3, #20
    3248:	4022      	ands	r2, r4
    324a:	4313      	orrs	r3, r2
    324c:	005b      	lsls	r3, r3, #1
    324e:	0859      	lsrs	r1, r3, #1
    3250:	bd10      	pop	{r4, pc}
    3252:	0021      	movs	r1, r4
    3254:	4091      	lsls	r1, r2
    3256:	000a      	movs	r2, r1
    3258:	210b      	movs	r1, #11
    325a:	1a08      	subs	r0, r1, r0
    325c:	40c4      	lsrs	r4, r0
    325e:	055b      	lsls	r3, r3, #21
    3260:	0324      	lsls	r4, r4, #12
    3262:	0b24      	lsrs	r4, r4, #12
    3264:	0d5b      	lsrs	r3, r3, #21
    3266:	e7e6      	b.n	3236 <__aeabi_ui2d+0x26>
    3268:	2300      	movs	r3, #0
    326a:	2400      	movs	r4, #0
    326c:	2200      	movs	r2, #0
    326e:	e7e2      	b.n	3236 <__aeabi_ui2d+0x26>
    3270:	0000041e 	.word	0x0000041e
    3274:	00000433 	.word	0x00000433
    3278:	00000413 	.word	0x00000413
    327c:	800fffff 	.word	0x800fffff

00003280 <__aeabi_d2f>:
    3280:	b5f0      	push	{r4, r5, r6, r7, lr}
    3282:	004c      	lsls	r4, r1, #1
    3284:	0d64      	lsrs	r4, r4, #21
    3286:	030b      	lsls	r3, r1, #12
    3288:	1c62      	adds	r2, r4, #1
    328a:	0f45      	lsrs	r5, r0, #29
    328c:	0a5b      	lsrs	r3, r3, #9
    328e:	0552      	lsls	r2, r2, #21
    3290:	432b      	orrs	r3, r5
    3292:	0fc9      	lsrs	r1, r1, #31
    3294:	00c5      	lsls	r5, r0, #3
    3296:	0d52      	lsrs	r2, r2, #21
    3298:	2a01      	cmp	r2, #1
    329a:	dd28      	ble.n	32ee <__aeabi_d2f+0x6e>
    329c:	4a3a      	ldr	r2, [pc, #232]	; (3388 <__aeabi_d2f+0x108>)
    329e:	18a6      	adds	r6, r4, r2
    32a0:	2efe      	cmp	r6, #254	; 0xfe
    32a2:	dc1b      	bgt.n	32dc <__aeabi_d2f+0x5c>
    32a4:	2e00      	cmp	r6, #0
    32a6:	dd3e      	ble.n	3326 <__aeabi_d2f+0xa6>
    32a8:	0180      	lsls	r0, r0, #6
    32aa:	0002      	movs	r2, r0
    32ac:	1e50      	subs	r0, r2, #1
    32ae:	4182      	sbcs	r2, r0
    32b0:	0f6d      	lsrs	r5, r5, #29
    32b2:	432a      	orrs	r2, r5
    32b4:	00db      	lsls	r3, r3, #3
    32b6:	4313      	orrs	r3, r2
    32b8:	075a      	lsls	r2, r3, #29
    32ba:	d004      	beq.n	32c6 <__aeabi_d2f+0x46>
    32bc:	220f      	movs	r2, #15
    32be:	401a      	ands	r2, r3
    32c0:	2a04      	cmp	r2, #4
    32c2:	d000      	beq.n	32c6 <__aeabi_d2f+0x46>
    32c4:	3304      	adds	r3, #4
    32c6:	2280      	movs	r2, #128	; 0x80
    32c8:	04d2      	lsls	r2, r2, #19
    32ca:	401a      	ands	r2, r3
    32cc:	d05a      	beq.n	3384 <__aeabi_d2f+0x104>
    32ce:	3601      	adds	r6, #1
    32d0:	2eff      	cmp	r6, #255	; 0xff
    32d2:	d003      	beq.n	32dc <__aeabi_d2f+0x5c>
    32d4:	019b      	lsls	r3, r3, #6
    32d6:	0a5b      	lsrs	r3, r3, #9
    32d8:	b2f4      	uxtb	r4, r6
    32da:	e001      	b.n	32e0 <__aeabi_d2f+0x60>
    32dc:	24ff      	movs	r4, #255	; 0xff
    32de:	2300      	movs	r3, #0
    32e0:	0258      	lsls	r0, r3, #9
    32e2:	05e4      	lsls	r4, r4, #23
    32e4:	0a40      	lsrs	r0, r0, #9
    32e6:	07c9      	lsls	r1, r1, #31
    32e8:	4320      	orrs	r0, r4
    32ea:	4308      	orrs	r0, r1
    32ec:	bdf0      	pop	{r4, r5, r6, r7, pc}
    32ee:	2c00      	cmp	r4, #0
    32f0:	d007      	beq.n	3302 <__aeabi_d2f+0x82>
    32f2:	431d      	orrs	r5, r3
    32f4:	d0f2      	beq.n	32dc <__aeabi_d2f+0x5c>
    32f6:	2080      	movs	r0, #128	; 0x80
    32f8:	00db      	lsls	r3, r3, #3
    32fa:	0480      	lsls	r0, r0, #18
    32fc:	4303      	orrs	r3, r0
    32fe:	26ff      	movs	r6, #255	; 0xff
    3300:	e7da      	b.n	32b8 <__aeabi_d2f+0x38>
    3302:	432b      	orrs	r3, r5
    3304:	d003      	beq.n	330e <__aeabi_d2f+0x8e>
    3306:	2305      	movs	r3, #5
    3308:	08db      	lsrs	r3, r3, #3
    330a:	2cff      	cmp	r4, #255	; 0xff
    330c:	d003      	beq.n	3316 <__aeabi_d2f+0x96>
    330e:	025b      	lsls	r3, r3, #9
    3310:	0a5b      	lsrs	r3, r3, #9
    3312:	b2e4      	uxtb	r4, r4
    3314:	e7e4      	b.n	32e0 <__aeabi_d2f+0x60>
    3316:	2b00      	cmp	r3, #0
    3318:	d032      	beq.n	3380 <__aeabi_d2f+0x100>
    331a:	2080      	movs	r0, #128	; 0x80
    331c:	03c0      	lsls	r0, r0, #15
    331e:	4303      	orrs	r3, r0
    3320:	025b      	lsls	r3, r3, #9
    3322:	0a5b      	lsrs	r3, r3, #9
    3324:	e7dc      	b.n	32e0 <__aeabi_d2f+0x60>
    3326:	0032      	movs	r2, r6
    3328:	3217      	adds	r2, #23
    332a:	db14      	blt.n	3356 <__aeabi_d2f+0xd6>
    332c:	2280      	movs	r2, #128	; 0x80
    332e:	271e      	movs	r7, #30
    3330:	0412      	lsls	r2, r2, #16
    3332:	4313      	orrs	r3, r2
    3334:	1bbf      	subs	r7, r7, r6
    3336:	2f1f      	cmp	r7, #31
    3338:	dc0f      	bgt.n	335a <__aeabi_d2f+0xda>
    333a:	4a14      	ldr	r2, [pc, #80]	; (338c <__aeabi_d2f+0x10c>)
    333c:	4694      	mov	ip, r2
    333e:	4464      	add	r4, ip
    3340:	002a      	movs	r2, r5
    3342:	40a5      	lsls	r5, r4
    3344:	002e      	movs	r6, r5
    3346:	40a3      	lsls	r3, r4
    3348:	1e75      	subs	r5, r6, #1
    334a:	41ae      	sbcs	r6, r5
    334c:	40fa      	lsrs	r2, r7
    334e:	4333      	orrs	r3, r6
    3350:	4313      	orrs	r3, r2
    3352:	2600      	movs	r6, #0
    3354:	e7b0      	b.n	32b8 <__aeabi_d2f+0x38>
    3356:	2400      	movs	r4, #0
    3358:	e7d5      	b.n	3306 <__aeabi_d2f+0x86>
    335a:	2202      	movs	r2, #2
    335c:	4252      	negs	r2, r2
    335e:	1b96      	subs	r6, r2, r6
    3360:	001a      	movs	r2, r3
    3362:	40f2      	lsrs	r2, r6
    3364:	2f20      	cmp	r7, #32
    3366:	d009      	beq.n	337c <__aeabi_d2f+0xfc>
    3368:	4809      	ldr	r0, [pc, #36]	; (3390 <__aeabi_d2f+0x110>)
    336a:	4684      	mov	ip, r0
    336c:	4464      	add	r4, ip
    336e:	40a3      	lsls	r3, r4
    3370:	432b      	orrs	r3, r5
    3372:	1e5d      	subs	r5, r3, #1
    3374:	41ab      	sbcs	r3, r5
    3376:	2600      	movs	r6, #0
    3378:	4313      	orrs	r3, r2
    337a:	e79d      	b.n	32b8 <__aeabi_d2f+0x38>
    337c:	2300      	movs	r3, #0
    337e:	e7f7      	b.n	3370 <__aeabi_d2f+0xf0>
    3380:	2300      	movs	r3, #0
    3382:	e7ad      	b.n	32e0 <__aeabi_d2f+0x60>
    3384:	0034      	movs	r4, r6
    3386:	e7bf      	b.n	3308 <__aeabi_d2f+0x88>
    3388:	fffffc80 	.word	0xfffffc80
    338c:	fffffc82 	.word	0xfffffc82
    3390:	fffffca2 	.word	0xfffffca2

00003394 <__clzsi2>:
    3394:	211c      	movs	r1, #28
    3396:	2301      	movs	r3, #1
    3398:	041b      	lsls	r3, r3, #16
    339a:	4298      	cmp	r0, r3
    339c:	d301      	bcc.n	33a2 <__clzsi2+0xe>
    339e:	0c00      	lsrs	r0, r0, #16
    33a0:	3910      	subs	r1, #16
    33a2:	0a1b      	lsrs	r3, r3, #8
    33a4:	4298      	cmp	r0, r3
    33a6:	d301      	bcc.n	33ac <__clzsi2+0x18>
    33a8:	0a00      	lsrs	r0, r0, #8
    33aa:	3908      	subs	r1, #8
    33ac:	091b      	lsrs	r3, r3, #4
    33ae:	4298      	cmp	r0, r3
    33b0:	d301      	bcc.n	33b6 <__clzsi2+0x22>
    33b2:	0900      	lsrs	r0, r0, #4
    33b4:	3904      	subs	r1, #4
    33b6:	a202      	add	r2, pc, #8	; (adr r2, 33c0 <__clzsi2+0x2c>)
    33b8:	5c10      	ldrb	r0, [r2, r0]
    33ba:	1840      	adds	r0, r0, r1
    33bc:	4770      	bx	lr
    33be:	46c0      	nop			; (mov r8, r8)
    33c0:	02020304 	.word	0x02020304
    33c4:	01010101 	.word	0x01010101
	...

000033d0 <__clzdi2>:
    33d0:	b510      	push	{r4, lr}
    33d2:	2900      	cmp	r1, #0
    33d4:	d103      	bne.n	33de <__clzdi2+0xe>
    33d6:	f7ff ffdd 	bl	3394 <__clzsi2>
    33da:	3020      	adds	r0, #32
    33dc:	e002      	b.n	33e4 <__clzdi2+0x14>
    33de:	1c08      	adds	r0, r1, #0
    33e0:	f7ff ffd8 	bl	3394 <__clzsi2>
    33e4:	bd10      	pop	{r4, pc}
    33e6:	46c0      	nop			; (mov r8, r8)

000033e8 <__divdi3>:
    33e8:	b5f0      	push	{r4, r5, r6, r7, lr}
    33ea:	464e      	mov	r6, r9
    33ec:	4657      	mov	r7, sl
    33ee:	46de      	mov	lr, fp
    33f0:	4645      	mov	r5, r8
    33f2:	b5e0      	push	{r5, r6, r7, lr}
    33f4:	0006      	movs	r6, r0
    33f6:	2000      	movs	r0, #0
    33f8:	000f      	movs	r7, r1
    33fa:	b083      	sub	sp, #12
    33fc:	0019      	movs	r1, r3
    33fe:	4681      	mov	r9, r0
    3400:	2f00      	cmp	r7, #0
    3402:	da00      	bge.n	3406 <__divdi3+0x1e>
    3404:	e08c      	b.n	3520 <__divdi3+0x138>
    3406:	2900      	cmp	r1, #0
    3408:	da00      	bge.n	340c <__divdi3+0x24>
    340a:	e080      	b.n	350e <__divdi3+0x126>
    340c:	0034      	movs	r4, r6
    340e:	003d      	movs	r5, r7
    3410:	4692      	mov	sl, r2
    3412:	4698      	mov	r8, r3
    3414:	42bb      	cmp	r3, r7
    3416:	d869      	bhi.n	34ec <__divdi3+0x104>
    3418:	d066      	beq.n	34e8 <__divdi3+0x100>
    341a:	4641      	mov	r1, r8
    341c:	4650      	mov	r0, sl
    341e:	f7ff ffd7 	bl	33d0 <__clzdi2>
    3422:	4683      	mov	fp, r0
    3424:	0039      	movs	r1, r7
    3426:	0030      	movs	r0, r6
    3428:	f7ff ffd2 	bl	33d0 <__clzdi2>
    342c:	465b      	mov	r3, fp
    342e:	1a1b      	subs	r3, r3, r0
    3430:	469c      	mov	ip, r3
    3432:	3b20      	subs	r3, #32
    3434:	469b      	mov	fp, r3
    3436:	d500      	bpl.n	343a <__divdi3+0x52>
    3438:	e087      	b.n	354a <__divdi3+0x162>
    343a:	4651      	mov	r1, sl
    343c:	4658      	mov	r0, fp
    343e:	4081      	lsls	r1, r0
    3440:	000b      	movs	r3, r1
    3442:	4651      	mov	r1, sl
    3444:	4660      	mov	r0, ip
    3446:	4081      	lsls	r1, r0
    3448:	000a      	movs	r2, r1
    344a:	42bb      	cmp	r3, r7
    344c:	d900      	bls.n	3450 <__divdi3+0x68>
    344e:	e072      	b.n	3536 <__divdi3+0x14e>
    3450:	d06e      	beq.n	3530 <__divdi3+0x148>
    3452:	0034      	movs	r4, r6
    3454:	003d      	movs	r5, r7
    3456:	4659      	mov	r1, fp
    3458:	1aa4      	subs	r4, r4, r2
    345a:	419d      	sbcs	r5, r3
    345c:	2900      	cmp	r1, #0
    345e:	da00      	bge.n	3462 <__divdi3+0x7a>
    3460:	e08a      	b.n	3578 <__divdi3+0x190>
    3462:	2100      	movs	r1, #0
    3464:	2000      	movs	r0, #0
    3466:	2601      	movs	r6, #1
    3468:	9000      	str	r0, [sp, #0]
    346a:	9101      	str	r1, [sp, #4]
    346c:	4659      	mov	r1, fp
    346e:	408e      	lsls	r6, r1
    3470:	9601      	str	r6, [sp, #4]
    3472:	4661      	mov	r1, ip
    3474:	2601      	movs	r6, #1
    3476:	408e      	lsls	r6, r1
    3478:	4661      	mov	r1, ip
    347a:	9600      	str	r6, [sp, #0]
    347c:	2900      	cmp	r1, #0
    347e:	d061      	beq.n	3544 <__divdi3+0x15c>
    3480:	07d9      	lsls	r1, r3, #31
    3482:	0856      	lsrs	r6, r2, #1
    3484:	430e      	orrs	r6, r1
    3486:	085f      	lsrs	r7, r3, #1
    3488:	4661      	mov	r1, ip
    348a:	2201      	movs	r2, #1
    348c:	2300      	movs	r3, #0
    348e:	e00c      	b.n	34aa <__divdi3+0xc2>
    3490:	42af      	cmp	r7, r5
    3492:	d101      	bne.n	3498 <__divdi3+0xb0>
    3494:	42a6      	cmp	r6, r4
    3496:	d80a      	bhi.n	34ae <__divdi3+0xc6>
    3498:	1ba4      	subs	r4, r4, r6
    349a:	41bd      	sbcs	r5, r7
    349c:	1924      	adds	r4, r4, r4
    349e:	416d      	adcs	r5, r5
    34a0:	3901      	subs	r1, #1
    34a2:	18a4      	adds	r4, r4, r2
    34a4:	415d      	adcs	r5, r3
    34a6:	2900      	cmp	r1, #0
    34a8:	d006      	beq.n	34b8 <__divdi3+0xd0>
    34aa:	42af      	cmp	r7, r5
    34ac:	d9f0      	bls.n	3490 <__divdi3+0xa8>
    34ae:	3901      	subs	r1, #1
    34b0:	1924      	adds	r4, r4, r4
    34b2:	416d      	adcs	r5, r5
    34b4:	2900      	cmp	r1, #0
    34b6:	d1f8      	bne.n	34aa <__divdi3+0xc2>
    34b8:	465b      	mov	r3, fp
    34ba:	9800      	ldr	r0, [sp, #0]
    34bc:	9901      	ldr	r1, [sp, #4]
    34be:	1900      	adds	r0, r0, r4
    34c0:	4169      	adcs	r1, r5
    34c2:	2b00      	cmp	r3, #0
    34c4:	db4d      	blt.n	3562 <__divdi3+0x17a>
    34c6:	002e      	movs	r6, r5
    34c8:	40de      	lsrs	r6, r3
    34ca:	4663      	mov	r3, ip
    34cc:	002c      	movs	r4, r5
    34ce:	40dc      	lsrs	r4, r3
    34d0:	465b      	mov	r3, fp
    34d2:	2b00      	cmp	r3, #0
    34d4:	db5b      	blt.n	358e <__divdi3+0x1a6>
    34d6:	0034      	movs	r4, r6
    34d8:	409c      	lsls	r4, r3
    34da:	0023      	movs	r3, r4
    34dc:	4664      	mov	r4, ip
    34de:	40a6      	lsls	r6, r4
    34e0:	0032      	movs	r2, r6
    34e2:	1a80      	subs	r0, r0, r2
    34e4:	4199      	sbcs	r1, r3
    34e6:	e003      	b.n	34f0 <__divdi3+0x108>
    34e8:	42b2      	cmp	r2, r6
    34ea:	d996      	bls.n	341a <__divdi3+0x32>
    34ec:	2000      	movs	r0, #0
    34ee:	2100      	movs	r1, #0
    34f0:	464b      	mov	r3, r9
    34f2:	2b00      	cmp	r3, #0
    34f4:	d004      	beq.n	3500 <__divdi3+0x118>
    34f6:	0003      	movs	r3, r0
    34f8:	000c      	movs	r4, r1
    34fa:	2100      	movs	r1, #0
    34fc:	4258      	negs	r0, r3
    34fe:	41a1      	sbcs	r1, r4
    3500:	b003      	add	sp, #12
    3502:	bc3c      	pop	{r2, r3, r4, r5}
    3504:	4690      	mov	r8, r2
    3506:	4699      	mov	r9, r3
    3508:	46a2      	mov	sl, r4
    350a:	46ab      	mov	fp, r5
    350c:	bdf0      	pop	{r4, r5, r6, r7, pc}
    350e:	4649      	mov	r1, r9
    3510:	43c9      	mvns	r1, r1
    3512:	0010      	movs	r0, r2
    3514:	4689      	mov	r9, r1
    3516:	0019      	movs	r1, r3
    3518:	2300      	movs	r3, #0
    351a:	4242      	negs	r2, r0
    351c:	418b      	sbcs	r3, r1
    351e:	e775      	b.n	340c <__divdi3+0x24>
    3520:	0034      	movs	r4, r6
    3522:	003d      	movs	r5, r7
    3524:	3801      	subs	r0, #1
    3526:	2700      	movs	r7, #0
    3528:	4266      	negs	r6, r4
    352a:	41af      	sbcs	r7, r5
    352c:	4681      	mov	r9, r0
    352e:	e76a      	b.n	3406 <__divdi3+0x1e>
    3530:	42b1      	cmp	r1, r6
    3532:	d800      	bhi.n	3536 <__divdi3+0x14e>
    3534:	e78d      	b.n	3452 <__divdi3+0x6a>
    3536:	2100      	movs	r1, #0
    3538:	2000      	movs	r0, #0
    353a:	9000      	str	r0, [sp, #0]
    353c:	9101      	str	r1, [sp, #4]
    353e:	4661      	mov	r1, ip
    3540:	2900      	cmp	r1, #0
    3542:	d19d      	bne.n	3480 <__divdi3+0x98>
    3544:	9800      	ldr	r0, [sp, #0]
    3546:	9901      	ldr	r1, [sp, #4]
    3548:	e7d2      	b.n	34f0 <__divdi3+0x108>
    354a:	4662      	mov	r2, ip
    354c:	4640      	mov	r0, r8
    354e:	2320      	movs	r3, #32
    3550:	4651      	mov	r1, sl
    3552:	4090      	lsls	r0, r2
    3554:	1a9b      	subs	r3, r3, r2
    3556:	40d9      	lsrs	r1, r3
    3558:	0003      	movs	r3, r0
    355a:	9100      	str	r1, [sp, #0]
    355c:	9900      	ldr	r1, [sp, #0]
    355e:	430b      	orrs	r3, r1
    3560:	e76f      	b.n	3442 <__divdi3+0x5a>
    3562:	4662      	mov	r2, ip
    3564:	2320      	movs	r3, #32
    3566:	1a9b      	subs	r3, r3, r2
    3568:	002a      	movs	r2, r5
    356a:	409a      	lsls	r2, r3
    356c:	0026      	movs	r6, r4
    356e:	0013      	movs	r3, r2
    3570:	4662      	mov	r2, ip
    3572:	40d6      	lsrs	r6, r2
    3574:	431e      	orrs	r6, r3
    3576:	e7a8      	b.n	34ca <__divdi3+0xe2>
    3578:	4661      	mov	r1, ip
    357a:	2620      	movs	r6, #32
    357c:	2701      	movs	r7, #1
    357e:	1a76      	subs	r6, r6, r1
    3580:	2000      	movs	r0, #0
    3582:	2100      	movs	r1, #0
    3584:	40f7      	lsrs	r7, r6
    3586:	9000      	str	r0, [sp, #0]
    3588:	9101      	str	r1, [sp, #4]
    358a:	9701      	str	r7, [sp, #4]
    358c:	e771      	b.n	3472 <__divdi3+0x8a>
    358e:	4662      	mov	r2, ip
    3590:	2320      	movs	r3, #32
    3592:	0035      	movs	r5, r6
    3594:	4094      	lsls	r4, r2
    3596:	1a9b      	subs	r3, r3, r2
    3598:	40dd      	lsrs	r5, r3
    359a:	0023      	movs	r3, r4
    359c:	432b      	orrs	r3, r5
    359e:	e79d      	b.n	34dc <__divdi3+0xf4>

000035a0 <__libc_init_array>:
    35a0:	b570      	push	{r4, r5, r6, lr}
    35a2:	2600      	movs	r6, #0
    35a4:	4d0c      	ldr	r5, [pc, #48]	; (35d8 <__libc_init_array+0x38>)
    35a6:	4c0d      	ldr	r4, [pc, #52]	; (35dc <__libc_init_array+0x3c>)
    35a8:	1b64      	subs	r4, r4, r5
    35aa:	10a4      	asrs	r4, r4, #2
    35ac:	42a6      	cmp	r6, r4
    35ae:	d109      	bne.n	35c4 <__libc_init_array+0x24>
    35b0:	2600      	movs	r6, #0
    35b2:	f000 f877 	bl	36a4 <_init>
    35b6:	4d0a      	ldr	r5, [pc, #40]	; (35e0 <__libc_init_array+0x40>)
    35b8:	4c0a      	ldr	r4, [pc, #40]	; (35e4 <__libc_init_array+0x44>)
    35ba:	1b64      	subs	r4, r4, r5
    35bc:	10a4      	asrs	r4, r4, #2
    35be:	42a6      	cmp	r6, r4
    35c0:	d105      	bne.n	35ce <__libc_init_array+0x2e>
    35c2:	bd70      	pop	{r4, r5, r6, pc}
    35c4:	00b3      	lsls	r3, r6, #2
    35c6:	58eb      	ldr	r3, [r5, r3]
    35c8:	4798      	blx	r3
    35ca:	3601      	adds	r6, #1
    35cc:	e7ee      	b.n	35ac <__libc_init_array+0xc>
    35ce:	00b3      	lsls	r3, r6, #2
    35d0:	58eb      	ldr	r3, [r5, r3]
    35d2:	4798      	blx	r3
    35d4:	3601      	adds	r6, #1
    35d6:	e7f2      	b.n	35be <__libc_init_array+0x1e>
    35d8:	000036b0 	.word	0x000036b0
    35dc:	000036b0 	.word	0x000036b0
    35e0:	000036b0 	.word	0x000036b0
    35e4:	000036b4 	.word	0x000036b4

000035e8 <memcpy>:
    35e8:	2300      	movs	r3, #0
    35ea:	b510      	push	{r4, lr}
    35ec:	429a      	cmp	r2, r3
    35ee:	d100      	bne.n	35f2 <memcpy+0xa>
    35f0:	bd10      	pop	{r4, pc}
    35f2:	5ccc      	ldrb	r4, [r1, r3]
    35f4:	54c4      	strb	r4, [r0, r3]
    35f6:	3301      	adds	r3, #1
    35f8:	e7f8      	b.n	35ec <memcpy+0x4>

000035fa <memset>:
    35fa:	0003      	movs	r3, r0
    35fc:	1882      	adds	r2, r0, r2
    35fe:	4293      	cmp	r3, r2
    3600:	d100      	bne.n	3604 <memset+0xa>
    3602:	4770      	bx	lr
    3604:	7019      	strb	r1, [r3, #0]
    3606:	3301      	adds	r3, #1
    3608:	e7f9      	b.n	35fe <memset+0x4>
    360a:	0000      	movs	r0, r0
    360c:	42000000 	.word	0x42000000
    3610:	42000400 	.word	0x42000400
    3614:	42000800 	.word	0x42000800
    3618:	42000c00 	.word	0x42000c00
    361c:	42001000 	.word	0x42001000
    3620:	43000400 	.word	0x43000400
    3624:	00002188 	.word	0x00002188
    3628:	0000216a 	.word	0x0000216a
    362c:	00002124 	.word	0x00002124
    3630:	00002042 	.word	0x00002042
    3634:	00002124 	.word	0x00002124
    3638:	0000215c 	.word	0x0000215c
    363c:	00002124 	.word	0x00002124
    3640:	00002042 	.word	0x00002042
    3644:	0000216a 	.word	0x0000216a
    3648:	0000216a 	.word	0x0000216a
    364c:	0000215c 	.word	0x0000215c
    3650:	00002042 	.word	0x00002042
    3654:	0000203a 	.word	0x0000203a
    3658:	0000203a 	.word	0x0000203a
    365c:	0000203a 	.word	0x0000203a
    3660:	000023a0 	.word	0x000023a0
    3664:	000027e8 	.word	0x000027e8
    3668:	000026a8 	.word	0x000026a8
    366c:	000026a8 	.word	0x000026a8
    3670:	000026a4 	.word	0x000026a4
    3674:	000027c0 	.word	0x000027c0
    3678:	000027c0 	.word	0x000027c0
    367c:	000027b2 	.word	0x000027b2
    3680:	000026a4 	.word	0x000026a4
    3684:	000027c0 	.word	0x000027c0
    3688:	000027b2 	.word	0x000027b2
    368c:	000027c0 	.word	0x000027c0
    3690:	000026a4 	.word	0x000026a4
    3694:	000027c8 	.word	0x000027c8
    3698:	000027c8 	.word	0x000027c8
    369c:	000027c8 	.word	0x000027c8
    36a0:	000029cc 	.word	0x000029cc

000036a4 <_init>:
    36a4:	b5f8      	push	{r3, r4, r5, r6, r7, lr}
    36a6:	46c0      	nop			; (mov r8, r8)
    36a8:	bcf8      	pop	{r3, r4, r5, r6, r7}
    36aa:	bc08      	pop	{r3}
    36ac:	469e      	mov	lr, r3
    36ae:	4770      	bx	lr

000036b0 <__init_array_start>:
    36b0:	000000dd 	.word	0x000000dd

000036b4 <_fini>:
    36b4:	b5f8      	push	{r3, r4, r5, r6, r7, lr}
    36b6:	46c0      	nop			; (mov r8, r8)
    36b8:	bcf8      	pop	{r3, r4, r5, r6, r7}
    36ba:	bc08      	pop	{r3}
    36bc:	469e      	mov	lr, r3
    36be:	4770      	bx	lr

000036c0 <__fini_array_start>:
    36c0:	000000b5 	.word	0x000000b5

Disassembly of section .relocate:

20000000 <portable_delay_cycles>:
20000000:	f3bf 8f5f 	dmb	sy
20000004:	3801      	subs	r0, #1
20000006:	2800      	cmp	r0, #0
20000008:	d1fa      	bne.n	20000000 <portable_delay_cycles>
2000000a:	4770      	bx	lr

2000000c <g_interrupt_enabled>:
2000000c:	0001 0000                                   ....
